; Listing generated by Microsoft (R) Optimizing Compiler Version 19.00.23506.0 

include listing.inc

INCLUDELIB MSVCRTD
INCLUDELIB OLDNAMES

_BSS	SEGMENT
?BASAL@@3HA DD	01H DUP (?)				; BASAL
?rng_initalized@@3_NA DB 01H DUP (?)			; rng_initalized
_BSS	ENDS
_DATA	SEGMENT
?SYSTEM@@3HA DD	01H					; SYSTEM
?WHOLE@@3HA DD	01H					; WHOLE
_DATA	ENDS
PUBLIC	?__empty_global_delete@@YAXPEAX@Z		; __empty_global_delete
PUBLIC	?__empty_global_delete@@YAXPEAX_K@Z		; __empty_global_delete
PUBLIC	?max@?$numeric_limits@N@std@@SANXZ		; std::numeric_limits<double>::max
PUBLIC	??0_Iterator_base12@std@@QEAA@XZ		; std::_Iterator_base12::_Iterator_base12
PUBLIC	??1_Iterator_base12@std@@QEAA@XZ		; std::_Iterator_base12::~_Iterator_base12
PUBLIC	?_Adopt@_Iterator_base12@std@@QEAAXPEBU_Container_base12@2@@Z ; std::_Iterator_base12::_Adopt
PUBLIC	?_Getcont@_Iterator_base12@std@@QEBAPEBU_Container_base12@2@XZ ; std::_Iterator_base12::_Getcont
PUBLIC	?_Orphan_me@_Iterator_base12@std@@QEAAXXZ	; std::_Iterator_base12::_Orphan_me
PUBLIC	?_Incref@_Ref_count_base@std@@QEAAXXZ		; std::_Ref_count_base::_Incref
PUBLIC	?_Decref@_Ref_count_base@std@@QEAAXXZ		; std::_Ref_count_base::_Decref
PUBLIC	?_Decwref@_Ref_count_base@std@@QEAAXXZ		; std::_Ref_count_base::_Decwref
PUBLIC	??0?$mersenne_twister@_K$0EA@$0BDI@$0JM@$0BP@$0?EKPNJAKFFGJJOGBH@$0BN@$0BB@$0HBNGHPPPONKGAAAA@$0CF@$0?IBBCAAAAAAAAA@$0CL@@std@@QEAA@_K00@Z ; std::mersenne_twister<unsigned __int64,64,312,156,31,-5403634167711393303,29,17,8202884508482404352,37,-2270628950310912,43>::mersenne_twister<unsigned __int64,64,312,156,31,-5403634167711393303,29,17,8202884508482404352,37,-2270628950310912,43>
PUBLIC	?seed@?$mersenne_twister@_K$0EA@$0BDI@$0JM@$0BP@$0?EKPNJAKFFGJJOGBH@$0BN@$0BB@$0HBNGHPPPONKGAAAA@$0CF@$0?IBBCAAAAAAAAA@$0CL@@std@@QEAAX_K0@Z ; std::mersenne_twister<unsigned __int64,64,312,156,31,-5403634167711393303,29,17,8202884508482404352,37,-2270628950310912,43>::seed
PUBLIC	??0?$mersenne_twister_engine@_K$0EA@$0BDI@$0JM@$0BP@$0?EKPNJAKFFGJJOGBH@$0BN@$0FFFFFFFFFFFFFFFF@$0BB@$0HBNGHPPPONKGAAAA@$0CF@$0?IBBCAAAAAAAAA@$0CL@$0FIFBPECNEMJFHPCN@@std@@QEAA@_K@Z ; std::mersenne_twister_engine<unsigned __int64,64,312,156,31,-5403634167711393303,29,6148914691236517205,17,8202884508482404352,37,-2270628950310912,43,6364136223846793005>::mersenne_twister_engine<unsigned __int64,64,312,156,31,-5403634167711393303,29,6148914691236517205,17,8202884508482404352,37,-2270628950310912,43,6364136223846793005>
PUBLIC	??0?$uniform_real@N@std@@QEAA@NN@Z		; std::uniform_real<double>::uniform_real<double>
PUBLIC	??0param_type@?$uniform_real@N@std@@QEAA@NN@Z	; std::uniform_real<double>::param_type::param_type
PUBLIC	?_Init@param_type@?$uniform_real@N@std@@QEAAXNN@Z ; std::uniform_real<double>::param_type::_Init
PUBLIC	??0?$uniform_real_distribution@N@std@@QEAA@NN@Z	; std::uniform_real_distribution<double>::uniform_real_distribution<double>
PUBLIC	?perio_diff_x@@YANNN@Z				; perio_diff_x
PUBLIC	?perio_diff_y@@YANNN@Z				; perio_diff_y
PUBLIC	?normSq@@YANNNN@Z				; normSq
PUBLIC	?dist3Sq@@YANNNNNNN@Z				; dist3Sq
PUBLIC	?adhesion@@YANNNN@Z				; adhesion
PUBLIC	??0?$_Ptr_base@VCell@@@std@@QEAA@XZ		; std::_Ptr_base<Cell>::_Ptr_base<Cell>
PUBLIC	?_Get@?$_Ptr_base@VCell@@@std@@QEBAPEAVCell@@XZ	; std::_Ptr_base<Cell>::_Get
PUBLIC	?_Reset@?$_Ptr_base@VCell@@@std@@QEAAXPEAVCell@@PEAV_Ref_count_base@2@@Z ; std::_Ptr_base<Cell>::_Reset
PUBLIC	?_Reset0@?$_Ptr_base@VCell@@@std@@QEAAXPEAVCell@@PEAV_Ref_count_base@2@@Z ; std::_Ptr_base<Cell>::_Reset0
PUBLIC	??0?$shared_ptr@VCell@@@std@@QEAA@$$T@Z		; std::shared_ptr<Cell>::shared_ptr<Cell>
PUBLIC	??0?$shared_ptr@VCell@@@std@@QEAA@AEBV01@@Z	; std::shared_ptr<Cell>::shared_ptr<Cell>
PUBLIC	?get@?$shared_ptr@VCell@@@std@@QEBAPEAVCell@@XZ	; std::shared_ptr<Cell>::get
PUBLIC	??C?$shared_ptr@VCell@@@std@@QEBAPEAVCell@@XZ	; std::shared_ptr<Cell>::operator->
PUBLIC	?_Get_data@?$_Vector_alloc@U?$_Vec_base_types@V?$vector@V?$shared_ptr@VCell@@@std@@V?$allocator@V?$shared_ptr@VCell@@@std@@@2@@std@@V?$allocator@V?$vector@V?$shared_ptr@VCell@@@std@@V?$allocator@V?$shared_ptr@VCell@@@std@@@2@@std@@@2@@std@@@std@@QEAAAEAV?$_Vector_val@U?$_Simple_types@V?$vector@V?$shared_ptr@VCell@@@std@@V?$allocator@V?$shared_ptr@VCell@@@std@@@2@@std@@@std@@@2@XZ ; std::_Vector_alloc<std::_Vec_base_types<std::vector<std::shared_ptr<Cell>,std::allocator<std::shared_ptr<Cell> > >,std::allocator<std::vector<std::shared_ptr<Cell>,std::allocator<std::shared_ptr<Cell> > > > > >::_Get_data
PUBLIC	?_Get_data@?$_Vector_alloc@U?$_Vec_base_types@V?$vector@V?$shared_ptr@VCell@@@std@@V?$allocator@V?$shared_ptr@VCell@@@std@@@2@@std@@V?$allocator@V?$vector@V?$shared_ptr@VCell@@@std@@V?$allocator@V?$shared_ptr@VCell@@@std@@@2@@std@@@2@@std@@@std@@QEBAAEBV?$_Vector_val@U?$_Simple_types@V?$vector@V?$shared_ptr@VCell@@@std@@V?$allocator@V?$shared_ptr@VCell@@@std@@@2@@std@@@std@@@2@XZ ; std::_Vector_alloc<std::_Vec_base_types<std::vector<std::shared_ptr<Cell>,std::allocator<std::shared_ptr<Cell> > >,std::allocator<std::vector<std::shared_ptr<Cell>,std::allocator<std::shared_ptr<Cell> > > > > >::_Get_data
PUBLIC	?_Myfirst@?$_Vector_alloc@U?$_Vec_base_types@V?$vector@V?$shared_ptr@VCell@@@std@@V?$allocator@V?$shared_ptr@VCell@@@std@@@2@@std@@V?$allocator@V?$vector@V?$shared_ptr@VCell@@@std@@V?$allocator@V?$shared_ptr@VCell@@@std@@@2@@std@@@2@@std@@@std@@QEAAAEAPEAV?$vector@V?$shared_ptr@VCell@@@std@@V?$allocator@V?$shared_ptr@VCell@@@std@@@2@@2@XZ ; std::_Vector_alloc<std::_Vec_base_types<std::vector<std::shared_ptr<Cell>,std::allocator<std::shared_ptr<Cell> > >,std::allocator<std::vector<std::shared_ptr<Cell>,std::allocator<std::shared_ptr<Cell> > > > > >::_Myfirst
PUBLIC	?_Myfirst@?$_Vector_alloc@U?$_Vec_base_types@V?$vector@V?$shared_ptr@VCell@@@std@@V?$allocator@V?$shared_ptr@VCell@@@std@@@2@@std@@V?$allocator@V?$vector@V?$shared_ptr@VCell@@@std@@V?$allocator@V?$shared_ptr@VCell@@@std@@@2@@std@@@2@@std@@@std@@QEBAAEBQEAV?$vector@V?$shared_ptr@VCell@@@std@@V?$allocator@V?$shared_ptr@VCell@@@std@@@2@@2@XZ ; std::_Vector_alloc<std::_Vec_base_types<std::vector<std::shared_ptr<Cell>,std::allocator<std::shared_ptr<Cell> > >,std::allocator<std::vector<std::shared_ptr<Cell>,std::allocator<std::shared_ptr<Cell> > > > > >::_Myfirst
PUBLIC	?_Mylast@?$_Vector_alloc@U?$_Vec_base_types@V?$vector@V?$shared_ptr@VCell@@@std@@V?$allocator@V?$shared_ptr@VCell@@@std@@@2@@std@@V?$allocator@V?$vector@V?$shared_ptr@VCell@@@std@@V?$allocator@V?$shared_ptr@VCell@@@std@@@2@@std@@@2@@std@@@std@@QEBAAEBQEAV?$vector@V?$shared_ptr@VCell@@@std@@V?$allocator@V?$shared_ptr@VCell@@@std@@@2@@2@XZ ; std::_Vector_alloc<std::_Vec_base_types<std::vector<std::shared_ptr<Cell>,std::allocator<std::shared_ptr<Cell> > >,std::allocator<std::vector<std::shared_ptr<Cell>,std::allocator<std::shared_ptr<Cell> > > > > >::_Mylast
PUBLIC	?_Get_second@?$_Compressed_pair@U?$_Wrap_alloc@V?$allocator@V?$vector@V?$shared_ptr@VCell@@@std@@V?$allocator@V?$shared_ptr@VCell@@@std@@@2@@std@@@std@@@std@@V?$_Vector_val@U?$_Simple_types@V?$vector@V?$shared_ptr@VCell@@@std@@V?$allocator@V?$shared_ptr@VCell@@@std@@@2@@std@@@std@@@2@$00@std@@QEAAAEAV?$_Vector_val@U?$_Simple_types@V?$vector@V?$shared_ptr@VCell@@@std@@V?$allocator@V?$shared_ptr@VCell@@@std@@@2@@std@@@std@@@2@XZ ; std::_Compressed_pair<std::_Wrap_alloc<std::allocator<std::vector<std::shared_ptr<Cell>,std::allocator<std::shared_ptr<Cell> > > > >,std::_Vector_val<std::_Simple_types<std::vector<std::shared_ptr<Cell>,std::allocator<std::shared_ptr<Cell> > > > >,1>::_Get_second
PUBLIC	?_Get_second@?$_Compressed_pair@U?$_Wrap_alloc@V?$allocator@V?$vector@V?$shared_ptr@VCell@@@std@@V?$allocator@V?$shared_ptr@VCell@@@std@@@2@@std@@@std@@@std@@V?$_Vector_val@U?$_Simple_types@V?$vector@V?$shared_ptr@VCell@@@std@@V?$allocator@V?$shared_ptr@VCell@@@std@@@2@@std@@@std@@@2@$00@std@@QEBAAEBV?$_Vector_val@U?$_Simple_types@V?$vector@V?$shared_ptr@VCell@@@std@@V?$allocator@V?$shared_ptr@VCell@@@std@@@2@@std@@@std@@@2@XZ ; std::_Compressed_pair<std::_Wrap_alloc<std::allocator<std::vector<std::shared_ptr<Cell>,std::allocator<std::shared_ptr<Cell> > > > >,std::_Vector_val<std::_Simple_types<std::vector<std::shared_ptr<Cell>,std::allocator<std::shared_ptr<Cell> > > > >,1>::_Get_second
PUBLIC	?size@?$vector@V?$vector@V?$shared_ptr@VCell@@@std@@V?$allocator@V?$shared_ptr@VCell@@@std@@@2@@std@@V?$allocator@V?$vector@V?$shared_ptr@VCell@@@std@@V?$allocator@V?$shared_ptr@VCell@@@std@@@2@@std@@@2@@std@@QEBA_KXZ ; std::vector<std::vector<std::shared_ptr<Cell>,std::allocator<std::shared_ptr<Cell> > >,std::allocator<std::vector<std::shared_ptr<Cell>,std::allocator<std::shared_ptr<Cell> > > > >::size
PUBLIC	??A?$vector@V?$vector@V?$shared_ptr@VCell@@@std@@V?$allocator@V?$shared_ptr@VCell@@@std@@@2@@std@@V?$allocator@V?$vector@V?$shared_ptr@VCell@@@std@@V?$allocator@V?$shared_ptr@VCell@@@std@@@2@@std@@@2@@std@@QEAAAEAV?$vector@V?$shared_ptr@VCell@@@std@@V?$allocator@V?$shared_ptr@VCell@@@std@@@2@@1@_K@Z ; std::vector<std::vector<std::shared_ptr<Cell>,std::allocator<std::shared_ptr<Cell> > >,std::allocator<std::vector<std::shared_ptr<Cell>,std::allocator<std::shared_ptr<Cell> > > > >::operator[]
PUBLIC	?_Get_data@?$_Vector_alloc@U?$_Vec_base_types@V?$shared_ptr@VCell@@@std@@V?$allocator@V?$shared_ptr@VCell@@@std@@@2@@std@@@std@@QEAAAEAV?$_Vector_val@U?$_Simple_types@V?$shared_ptr@VCell@@@std@@@std@@@2@XZ ; std::_Vector_alloc<std::_Vec_base_types<std::shared_ptr<Cell>,std::allocator<std::shared_ptr<Cell> > > >::_Get_data
PUBLIC	?_Myfirst@?$_Vector_alloc@U?$_Vec_base_types@V?$shared_ptr@VCell@@@std@@V?$allocator@V?$shared_ptr@VCell@@@std@@@2@@std@@@std@@QEAAAEAPEAV?$shared_ptr@VCell@@@2@XZ ; std::_Vector_alloc<std::_Vec_base_types<std::shared_ptr<Cell>,std::allocator<std::shared_ptr<Cell> > > >::_Myfirst
PUBLIC	?_Mylast@?$_Vector_alloc@U?$_Vec_base_types@V?$shared_ptr@VCell@@@std@@V?$allocator@V?$shared_ptr@VCell@@@std@@@2@@std@@@std@@QEAAAEAPEAV?$shared_ptr@VCell@@@2@XZ ; std::_Vector_alloc<std::_Vec_base_types<std::shared_ptr<Cell>,std::allocator<std::shared_ptr<Cell> > > >::_Mylast
PUBLIC	?_Get_second@?$_Compressed_pair@U?$_Wrap_alloc@V?$allocator@V?$shared_ptr@VCell@@@std@@@std@@@std@@V?$_Vector_val@U?$_Simple_types@V?$shared_ptr@VCell@@@std@@@std@@@2@$00@std@@QEAAAEAV?$_Vector_val@U?$_Simple_types@V?$shared_ptr@VCell@@@std@@@std@@@2@XZ ; std::_Compressed_pair<std::_Wrap_alloc<std::allocator<std::shared_ptr<Cell> > >,std::_Vector_val<std::_Simple_types<std::shared_ptr<Cell> > >,1>::_Get_second
PUBLIC	?begin@?$vector@V?$shared_ptr@VCell@@@std@@V?$allocator@V?$shared_ptr@VCell@@@std@@@2@@std@@QEAA?AV?$_Vector_iterator@V?$_Vector_val@U?$_Simple_types@V?$shared_ptr@VCell@@@std@@@std@@@std@@@2@XZ ; std::vector<std::shared_ptr<Cell>,std::allocator<std::shared_ptr<Cell> > >::begin
PUBLIC	?end@?$vector@V?$shared_ptr@VCell@@@std@@V?$allocator@V?$shared_ptr@VCell@@@std@@@2@@std@@QEAA?AV?$_Vector_iterator@V?$_Vector_val@U?$_Simple_types@V?$shared_ptr@VCell@@@std@@@std@@@std@@@2@XZ ; std::vector<std::shared_ptr<Cell>,std::allocator<std::shared_ptr<Cell> > >::end
PUBLIC	?div_direction@Cell@@AEAAXAEBUCellData@@0PEAN11@Z ; Cell::div_direction
PUBLIC	?interac_wall@@YAXAEAV?$shared_ptr@VCell@@@std@@@Z ; interac_wall
PUBLIC	??Rmemb_memb_coef@@QEAANAEBV?$shared_ptr@VCell@@@std@@0NNN@Z ; memb_memb_coef::operator()
PUBLIC	??Rnull_coef@@QEAANAEBV?$shared_ptr@VCell@@@std@@0NNN@Z ; null_coef::operator()
PUBLIC	??Rcommon_common_coef@@QEAANAEBV?$shared_ptr@VCell@@@std@@0NNN@Z ; common_common_coef::operator()
PUBLIC	??Rder_der_coef@@QEAANAEBV?$shared_ptr@VCell@@@std@@0NNN@Z ; der_der_coef::operator()
PUBLIC	??Rsupra_others_coef@@QEAANAEBV?$shared_ptr@VCell@@@std@@0NNN@Z ; supra_others_coef::operator()
PUBLIC	??Rstem_stem_coef@@QEAANAEBV?$shared_ptr@VCell@@@std@@0NNN@Z ; stem_stem_coef::operator()
PUBLIC	??Rpair_coef@@QEAANAEBV?$shared_ptr@VCell@@@std@@0NNN@Z ; pair_coef::operator()
PUBLIC	?k_lipid_release@@YANNN@Z			; k_lipid_release
PUBLIC	?k_lipid@@YANNN@Z				; k_lipid
PUBLIC	?find_dermis@@YA?AV?$shared_ptr@VCell@@@std@@AEBV12@@Z ; find_dermis
PUBLIC	?calc_normal@@YAXAEBUCellData@@0PEAN11@Z	; calc_normal
PUBLIC	??0?$_Iterator012@Urandom_access_iterator_tag@std@@V?$shared_ptr@VCell@@@2@_JPEBV32@AEBV32@U_Iterator_base12@2@@std@@QEAA@XZ ; std::_Iterator012<std::random_access_iterator_tag,std::shared_ptr<Cell>,__int64,std::shared_ptr<Cell> const * __ptr64,std::shared_ptr<Cell> const & __ptr64,std::_Iterator_base12>::_Iterator012<std::random_access_iterator_tag,std::shared_ptr<Cell>,__int64,std::shared_ptr<Cell> const * __ptr64,std::shared_ptr<Cell> const & __ptr64,std::_Iterator_base12>
PUBLIC	??1?$_Iterator012@Urandom_access_iterator_tag@std@@V?$shared_ptr@VCell@@@2@_JPEBV32@AEBV32@U_Iterator_base12@2@@std@@QEAA@XZ ; std::_Iterator012<std::random_access_iterator_tag,std::shared_ptr<Cell>,__int64,std::shared_ptr<Cell> const * __ptr64,std::shared_ptr<Cell> const & __ptr64,std::_Iterator_base12>::~_Iterator012<std::random_access_iterator_tag,std::shared_ptr<Cell>,__int64,std::shared_ptr<Cell> const * __ptr64,std::shared_ptr<Cell> const & __ptr64,std::_Iterator_base12>
PUBLIC	??0?$_Vector_const_iterator@V?$_Vector_val@U?$_Simple_types@V?$shared_ptr@VCell@@@std@@@std@@@std@@@std@@QEAA@PEAV?$shared_ptr@VCell@@@1@PEBU_Container_base12@1@@Z ; std::_Vector_const_iterator<std::_Vector_val<std::_Simple_types<std::shared_ptr<Cell> > > >::_Vector_const_iterator<std::_Vector_val<std::_Simple_types<std::shared_ptr<Cell> > > >
PUBLIC	??D?$_Vector_const_iterator@V?$_Vector_val@U?$_Simple_types@V?$shared_ptr@VCell@@@std@@@std@@@std@@@std@@QEBAAEBV?$shared_ptr@VCell@@@1@XZ ; std::_Vector_const_iterator<std::_Vector_val<std::_Simple_types<std::shared_ptr<Cell> > > >::operator*
PUBLIC	??E?$_Vector_const_iterator@V?$_Vector_val@U?$_Simple_types@V?$shared_ptr@VCell@@@std@@@std@@@std@@@std@@QEAAAEAV01@XZ ; std::_Vector_const_iterator<std::_Vector_val<std::_Simple_types<std::shared_ptr<Cell> > > >::operator++
PUBLIC	??8?$_Vector_const_iterator@V?$_Vector_val@U?$_Simple_types@V?$shared_ptr@VCell@@@std@@@std@@@std@@@std@@QEBA_NAEBV01@@Z ; std::_Vector_const_iterator<std::_Vector_val<std::_Simple_types<std::shared_ptr<Cell> > > >::operator==
PUBLIC	??9?$_Vector_const_iterator@V?$_Vector_val@U?$_Simple_types@V?$shared_ptr@VCell@@@std@@@std@@@std@@@std@@QEBA_NAEBV01@@Z ; std::_Vector_const_iterator<std::_Vector_val<std::_Simple_types<std::shared_ptr<Cell> > > >::operator!=
PUBLIC	?_Compat@?$_Vector_const_iterator@V?$_Vector_val@U?$_Simple_types@V?$shared_ptr@VCell@@@std@@@std@@@std@@@std@@QEBAXAEBV12@@Z ; std::_Vector_const_iterator<std::_Vector_val<std::_Simple_types<std::shared_ptr<Cell> > > >::_Compat
PUBLIC	??1?$_Vector_const_iterator@V?$_Vector_val@U?$_Simple_types@V?$shared_ptr@VCell@@@std@@@std@@@std@@@std@@QEAA@XZ ; std::_Vector_const_iterator<std::_Vector_val<std::_Simple_types<std::shared_ptr<Cell> > > >::~_Vector_const_iterator<std::_Vector_val<std::_Simple_types<std::shared_ptr<Cell> > > >
PUBLIC	??0?$_Vector_iterator@V?$_Vector_val@U?$_Simple_types@V?$shared_ptr@VCell@@@std@@@std@@@std@@@std@@QEAA@PEAV?$shared_ptr@VCell@@@1@PEBU_Container_base12@1@@Z ; std::_Vector_iterator<std::_Vector_val<std::_Simple_types<std::shared_ptr<Cell> > > >::_Vector_iterator<std::_Vector_val<std::_Simple_types<std::shared_ptr<Cell> > > >
PUBLIC	??D?$_Vector_iterator@V?$_Vector_val@U?$_Simple_types@V?$shared_ptr@VCell@@@std@@@std@@@std@@@std@@QEBAAEAV?$shared_ptr@VCell@@@1@XZ ; std::_Vector_iterator<std::_Vector_val<std::_Simple_types<std::shared_ptr<Cell> > > >::operator*
PUBLIC	??E?$_Vector_iterator@V?$_Vector_val@U?$_Simple_types@V?$shared_ptr@VCell@@@std@@@std@@@std@@@std@@QEAAAEAV01@XZ ; std::_Vector_iterator<std::_Vector_val<std::_Simple_types<std::shared_ptr<Cell> > > >::operator++
PUBLIC	??1?$_Vector_iterator@V?$_Vector_val@U?$_Simple_types@V?$shared_ptr@VCell@@@std@@@std@@@std@@@std@@QEAA@XZ ; std::_Vector_iterator<std::_Vector_val<std::_Simple_types<std::shared_ptr<Cell> > > >::~_Vector_iterator<std::_Vector_val<std::_Simple_types<std::shared_ptr<Cell> > > >
PUBLIC	?__autoclassinit2@?$_Vector_iterator@V?$_Vector_val@U?$_Simple_types@V?$shared_ptr@VCell@@@std@@@std@@@std@@@std@@QEAAX_K@Z ; std::_Vector_iterator<std::_Vector_val<std::_Simple_types<std::shared_ptr<Cell> > > >::__autoclassinit2
PUBLIC	??$?8VCell@@V0@@std@@YA_NAEBV?$shared_ptr@VCell@@@0@0@Z ; std::operator==<Cell,Cell>
PUBLIC	??$_Reset@VCell@@@?$_Ptr_base@VCell@@@std@@QEAAXAEBV01@@Z ; std::_Ptr_base<Cell>::_Reset<Cell>
PUBLIC	??_C@_1JA@MHADJNIL@?$AAc?$AA?3?$AA?2?$AAp?$AAr?$AAo?$AAg?$AAr?$AAa?$AAm?$AA?5?$AAf?$AAi?$AAl?$AAe?$AAs?$AA?5?$AA?$CI?$AAx?$AA8?$AA6?$AA?$CJ?$AA?2?$AAm?$AAi?$AAc?$AAr?$AAo?$AAs?$AAo?$AAf?$AAt@ ; `string'
PUBLIC	??_C@_1DC@POOIKBAO@?$AAI?$AAT?$AAE?$AAR?$AAA?$AAT?$AAO?$AAR?$AA?5?$AAL?$AAI?$AAS?$AAT?$AA?5?$AAC?$AAO?$AAR?$AAR?$AAU?$AAP?$AAT?$AAE?$AAD?$AA?$CB?$AA?$AA@ ; `string'
PUBLIC	??_C@_17CNPHIMPH@?$AA?$CF?$AAl?$AAs?$AA?$AA@	; `string'
PUBLIC	??_C@_1CG@JNLFBNGN@?$AA?$CC?$AAi?$AAn?$AAv?$AAa?$AAl?$AAi?$AAd?$AA?5?$AAa?$AAr?$AAg?$AAu?$AAm?$AAe?$AAn?$AAt?$AA?$CC?$AA?$AA@ ; `string'
PUBLIC	??_C@_1IM@NCODKBJH@?$AAc?$AA?3?$AA?2?$AAp?$AAr?$AAo?$AAg?$AAr?$AAa?$AAm?$AA?5?$AAf?$AAi?$AAl?$AAe?$AAs?$AA?5?$AA?$CI?$AAx?$AA8?$AA6?$AA?$CJ?$AA?2?$AAm?$AAi?$AAc?$AAr?$AAo?$AAs?$AAo?$AAf?$AAt@ ; `string'
PUBLIC	??_C@_1DM@LHGCHCBA@?$AAv?$AAe?$AAc?$AAt?$AAo?$AAr?$AA?5?$AAs?$AAu?$AAb?$AAs?$AAc?$AAr?$AAi?$AAp?$AAt?$AA?5?$AAo?$AAu?$AAt?$AA?5?$AAo?$AAf?$AA?5?$AAr?$AAa?$AAn?$AAg?$AAe?$AA?$AA@ ; `string'
PUBLIC	??_C@_0CE@OFMIGAMM@Standard?5C?$CL?$CL?5Libraries?5Out?5of?5Ra@ ; `string'
PUBLIC	??_C@_1FG@IBPIFFN@?$AA?$CC?$AAS?$AAt?$AAa?$AAn?$AAd?$AAa?$AAr?$AAd?$AA?5?$AAC?$AA?$CL?$AA?$CL?$AA?5?$AAL?$AAi?$AAb?$AAr?$AAa?$AAr?$AAi?$AAe?$AAs?$AA?5?$AAO?$AAu?$AAt?$AA?5?$AAo?$AAf?$AA?5?$AAR@ ; `string'
PUBLIC	??_C@_1CCA@OOOAEGID@?$AAs?$AAt?$AAd?$AA?3?$AA?3?$AAv?$AAe?$AAc?$AAt?$AAo?$AAr?$AA?$DM?$AAc?$AAl?$AAa?$AAs?$AAs?$AA?5?$AAs?$AAt?$AAd?$AA?3?$AA?3?$AAv?$AAe?$AAc?$AAt?$AAo?$AAr?$AA?$DM?$AAc?$AAl@ ; `string'
PUBLIC	??_C@_1BO@MEPPHOO@?$AA?$CC?$AAo?$AAu?$AAt?$AA?5?$AAo?$AAf?$AA?5?$AAr?$AAa?$AAn?$AAg?$AAe?$AA?$CC?$AA?$AA@ ; `string'
PUBLIC	??_C@_1EE@EJDKCLKB@?$AAv?$AAe?$AAc?$AAt?$AAo?$AAr?$AA?5?$AAi?$AAt?$AAe?$AAr?$AAa?$AAt?$AAo?$AAr?$AA?5?$AAn?$AAo?$AAt?$AA?5?$AAi?$AAn?$AAc?$AAr?$AAe?$AAm?$AAe?$AAn?$AAt?$AAa?$AAb?$AAl@ ; `string'
PUBLIC	??_C@_1BAE@KKLFLIIH@?$AAs?$AAt?$AAd?$AA?3?$AA?3?$AA_?$AAV?$AAe?$AAc?$AAt?$AAo?$AAr?$AA_?$AAc?$AAo?$AAn?$AAs?$AAt?$AA_?$AAi?$AAt?$AAe?$AAr?$AAa?$AAt?$AAo?$AAr?$AA?$DM?$AAc?$AAl?$AAa?$AAs@ ; `string'
PUBLIC	??_C@_1EG@FOHJJHAC@?$AAv?$AAe?$AAc?$AAt?$AAo?$AAr?$AA?5?$AAi?$AAt?$AAe?$AAr?$AAa?$AAt?$AAo?$AAr?$AA?5?$AAn?$AAo?$AAt?$AA?5?$AAd?$AAe?$AAr?$AAe?$AAf?$AAe?$AAr?$AAe?$AAn?$AAc?$AAa?$AAb@ ; `string'
PUBLIC	??_C@_1BAC@OKHFOCDP@?$AAs?$AAt?$AAd?$AA?3?$AA?3?$AA_?$AAV?$AAe?$AAc?$AAt?$AAo?$AAr?$AA_?$AAc?$AAo?$AAn?$AAs?$AAt?$AA_?$AAi?$AAt?$AAe?$AAr?$AAa?$AAt?$AAo?$AAr?$AA?$DM?$AAc?$AAl?$AAa?$AAs@ ; `string'
PUBLIC	??_C@_1DM@HINDPMBP@?$AAv?$AAe?$AAc?$AAt?$AAo?$AAr?$AA?5?$AAi?$AAt?$AAe?$AAr?$AAa?$AAt?$AAo?$AAr?$AAs?$AA?5?$AAi?$AAn?$AAc?$AAo?$AAm?$AAp?$AAa?$AAt?$AAi?$AAb?$AAl?$AAe?$AA?$AA@ ; `string'
PUBLIC	??_C@_0CI@FNPHFCCM@Standard?5C?$CL?$CL?5Libraries?5Invalid?5A@ ; `string'
PUBLIC	??_C@_1FO@GJIHNDLM@?$AA?$CC?$AAS?$AAt?$AAa?$AAn?$AAd?$AAa?$AAr?$AAd?$AA?5?$AAC?$AA?$CL?$AA?$CL?$AA?5?$AAL?$AAi?$AAb?$AAr?$AAa?$AAr?$AAi?$AAe?$AAs?$AA?5?$AAI?$AAn?$AAv?$AAa?$AAl?$AAi?$AAd?$AA?5@ ; `string'
PUBLIC	??_C@_1PM@JCFBDDDH@?$AAs?$AAt?$AAd?$AA?3?$AA?3?$AA_?$AAV?$AAe?$AAc?$AAt?$AAo?$AAr?$AA_?$AAc?$AAo?$AAn?$AAs?$AAt?$AA_?$AAi?$AAt?$AAe?$AAr?$AAa?$AAt?$AAo?$AAr?$AA?$DM?$AAc?$AAl?$AAa?$AAs@ ; `string'
PUBLIC	??_C@_0HM@GHBBOBBO@c?3?2program?5files?5?$CIx86?$CJ?2microsoft@ ; `string'
PUBLIC	__real@0000000000000000
PUBLIC	__real@3d06849b86a12b9b
PUBLIC	__real@3f747ae147ae147b
PUBLIC	__real@3f80624dd2f1a9fc
PUBLIC	__real@3f847ae147ae147b
PUBLIC	__real@3f8999999999999a
PUBLIC	__real@3f9eb851eb851eb8
PUBLIC	__real@3fa47ae147ae1478
PUBLIC	__real@3fa47ae147ae147b
PUBLIC	__real@3fa999999999999a
PUBLIC	__real@3fc999999999999a
PUBLIC	__real@3fd0000000000000
PUBLIC	__real@3fe0000000000000
PUBLIC	__real@3fe1eb851eb851eb
PUBLIC	__real@3ff0000000000000
PUBLIC	__real@3ff3333333333333
PUBLIC	__real@3ff4000000000000
PUBLIC	__real@4000000000000000
PUBLIC	__real@4008000000000000
PUBLIC	__real@400921fb54442d18
PUBLIC	__real@4014000000000000
PUBLIC	__real@401921fb54442d18
PUBLIC	__real@4049000000000000
PUBLIC	__real@4059000000000000
PUBLIC	__real@4083880000000000
PUBLIC	__real@40a3880000000000
PUBLIC	__real@7fefffffffffffff
PUBLIC	__real@c049000000000000
PUBLIC	__xmm@80000000000000008000000000000000
EXTRN	__imp__invalid_parameter:PROC
EXTRN	__imp_??0_Lockit@std@@QEAA@H@Z:PROC
EXTRN	__imp_??1_Lockit@std@@QEAA@XZ:PROC
EXTRN	cos:PROC
EXTRN	sin:PROC
EXTRN	sqrt:PROC
EXTRN	tanh:PROC
EXTRN	__imp__CrtDbgReportW:PROC
EXTRN	__imp_?_Debug_message@std@@YAXPEB_W0I@Z:PROC
EXTRN	__imp_?_Rng_abort@std@@YAXPEBD@Z:PROC
EXTRN	?genrand_real@@YANXZ:PROC			; genrand_real
EXTRN	_RTC_InitBase:PROC
EXTRN	_RTC_Shutdown:PROC
EXTRN	__CxxFrameHandler3:PROC
EXTRN	__GSHandlerCheck:PROC
EXTRN	__GSHandlerCheck_EH:PROC
EXTRN	__security_check_cookie:PROC
EXTRN	__security_cookie:QWORD
EXTRN	_fltused:DWORD
_BSS	SEGMENT
	ALIGN	4

?ANX@@3HB DD	01H DUP (?)				; ANX
?ANY@@3HB DD	01H DUP (?)				; ANY
?ANZ@@3HB DD	01H DUP (?)				; ANZ
?mt@@3V?$mersenne_twister_engine@_K$0EA@$0BDI@$0JM@$0BP@$0?EKPNJAKFFGJJOGBH@$0BN@$0FFFFFFFFFFFFFFFF@$0BB@$0HBNGHPPPONKGAAAA@$0CF@$0?IBBCAAAAAAAAA@$0CL@$0FIFBPECNEMJFHPCN@@std@@A DB 01390H DUP (?) ; mt
?rng_real_dist@@3V?$uniform_real_distribution@N@std@@A DB 010H DUP (?) ; rng_real_dist
_BSS	ENDS
;	COMDAT pdata
pdata	SEGMENT
$pdata$?__empty_global_delete@@YAXPEAX@Z DD imagerel $LN3
	DD	imagerel $LN3+19
	DD	imagerel $unwind$?__empty_global_delete@@YAXPEAX@Z
pdata	ENDS
;	COMDAT pdata
pdata	SEGMENT
$pdata$?__empty_global_delete@@YAXPEAX_K@Z DD imagerel $LN3
	DD	imagerel $LN3+24
	DD	imagerel $unwind$?__empty_global_delete@@YAXPEAX_K@Z
pdata	ENDS
;	COMDAT pdata
pdata	SEGMENT
$pdata$?max@?$numeric_limits@N@std@@SANXZ DD imagerel $LN3
	DD	imagerel $LN3+23
	DD	imagerel $unwind$?max@?$numeric_limits@N@std@@SANXZ
pdata	ENDS
;	COMDAT pdata
pdata	SEGMENT
$pdata$??0_Iterator_base12@std@@QEAA@XZ DD imagerel $LN3
	DD	imagerel $LN3+46
	DD	imagerel $unwind$??0_Iterator_base12@std@@QEAA@XZ
pdata	ENDS
;	COMDAT pdata
pdata	SEGMENT
$pdata$??1_Iterator_base12@std@@QEAA@XZ DD imagerel $LN3
	DD	imagerel $LN3+96
	DD	imagerel $unwind$??1_Iterator_base12@std@@QEAA@XZ
pdata	ENDS
;	COMDAT pdata
pdata	SEGMENT
$pdata$?_Adopt@_Iterator_base12@std@@QEAAXPEBU_Container_base12@2@@Z DD imagerel $LN8
	DD	imagerel $LN8+230
	DD	imagerel $unwind$?_Adopt@_Iterator_base12@std@@QEAAXPEBU_Container_base12@2@@Z
pdata	ENDS
;	COMDAT pdata
pdata	SEGMENT
$pdata$?dtor$0@?0??_Adopt@_Iterator_base12@std@@QEAAXPEBU_Container_base12@2@@Z@4HA DD imagerel ?dtor$0@?0??_Adopt@_Iterator_base12@std@@QEAAXPEBU_Container_base12@2@@Z@4HA
	DD	imagerel ?dtor$0@?0??_Adopt@_Iterator_base12@std@@QEAAXPEBU_Container_base12@2@@Z@4HA+26
	DD	imagerel $unwind$?dtor$0@?0??_Adopt@_Iterator_base12@std@@QEAAXPEBU_Container_base12@2@@Z@4HA
pdata	ENDS
;	COMDAT pdata
pdata	SEGMENT
$pdata$?dtor$1@?0??_Adopt@_Iterator_base12@std@@QEAAXPEBU_Container_base12@2@@Z@4HA DD imagerel ?dtor$1@?0??_Adopt@_Iterator_base12@std@@QEAAXPEBU_Container_base12@2@@Z@4HA
	DD	imagerel ?dtor$1@?0??_Adopt@_Iterator_base12@std@@QEAAXPEBU_Container_base12@2@@Z@4HA+26
	DD	imagerel $unwind$?dtor$1@?0??_Adopt@_Iterator_base12@std@@QEAAXPEBU_Container_base12@2@@Z@4HA
pdata	ENDS
;	COMDAT pdata
pdata	SEGMENT
$pdata$?_Getcont@_Iterator_base12@std@@QEBAPEBU_Container_base12@2@XZ DD imagerel $LN5
	DD	imagerel $LN5+57
	DD	imagerel $unwind$?_Getcont@_Iterator_base12@std@@QEBAPEBU_Container_base12@2@XZ
pdata	ENDS
;	COMDAT pdata
pdata	SEGMENT
$pdata$?_Orphan_me@_Iterator_base12@std@@QEAAXXZ DD imagerel $LN7
	DD	imagerel $LN7+148
	DD	imagerel $unwind$?_Orphan_me@_Iterator_base12@std@@QEAAXXZ
pdata	ENDS
;	COMDAT pdata
pdata	SEGMENT
$pdata$?_Incref@_Ref_count_base@std@@QEAAXXZ DD imagerel $LN3
	DD	imagerel $LN3+30
	DD	imagerel $unwind$?_Incref@_Ref_count_base@std@@QEAAXXZ
pdata	ENDS
;	COMDAT pdata
pdata	SEGMENT
$pdata$?_Decref@_Ref_count_base@std@@QEAAXXZ DD imagerel $LN4
	DD	imagerel $LN4+68
	DD	imagerel $unwind$?_Decref@_Ref_count_base@std@@QEAAXXZ
pdata	ENDS
;	COMDAT pdata
pdata	SEGMENT
$pdata$?_Decwref@_Ref_count_base@std@@QEAAXXZ DD imagerel $LN4
	DD	imagerel $LN4+60
	DD	imagerel $unwind$?_Decwref@_Ref_count_base@std@@QEAAXXZ
pdata	ENDS
;	COMDAT pdata
pdata	SEGMENT
$pdata$??__EANX@@YAXXZ DD imagerel ??__EANX@@YAXXZ
	DD	imagerel ??__EANX@@YAXXZ+49
	DD	imagerel $unwind$??__EANX@@YAXXZ
pdata	ENDS
;	COMDAT pdata
pdata	SEGMENT
$pdata$??__EANY@@YAXXZ DD imagerel ??__EANY@@YAXXZ
	DD	imagerel ??__EANY@@YAXXZ+49
	DD	imagerel $unwind$??__EANY@@YAXXZ
pdata	ENDS
;	COMDAT pdata
pdata	SEGMENT
$pdata$??__EANZ@@YAXXZ DD imagerel ??__EANZ@@YAXXZ
	DD	imagerel ??__EANZ@@YAXXZ+41
	DD	imagerel $unwind$??__EANZ@@YAXXZ
pdata	ENDS
;	COMDAT pdata
pdata	SEGMENT
$pdata$??0?$mersenne_twister@_K$0EA@$0BDI@$0JM@$0BP@$0?EKPNJAKFFGJJOGBH@$0BN@$0BB@$0HBNGHPPPONKGAAAA@$0CF@$0?IBBCAAAAAAAAA@$0CL@@std@@QEAA@_K00@Z DD imagerel $LN3
	DD	imagerel $LN3+72
	DD	imagerel $unwind$??0?$mersenne_twister@_K$0EA@$0BDI@$0JM@$0BP@$0?EKPNJAKFFGJJOGBH@$0BN@$0BB@$0HBNGHPPPONKGAAAA@$0CF@$0?IBBCAAAAAAAAA@$0CL@@std@@QEAA@_K00@Z
pdata	ENDS
;	COMDAT pdata
pdata	SEGMENT
$pdata$?seed@?$mersenne_twister@_K$0EA@$0BDI@$0JM@$0BP@$0?EKPNJAKFFGJJOGBH@$0BN@$0BB@$0HBNGHPPPONKGAAAA@$0CF@$0?IBBCAAAAAAAAA@$0CL@@std@@QEAAX_K0@Z DD imagerel $LN6
	DD	imagerel $LN6+165
	DD	imagerel $unwind$?seed@?$mersenne_twister@_K$0EA@$0BDI@$0JM@$0BP@$0?EKPNJAKFFGJJOGBH@$0BN@$0BB@$0HBNGHPPPONKGAAAA@$0CF@$0?IBBCAAAAAAAAA@$0CL@@std@@QEAAX_K0@Z
pdata	ENDS
;	COMDAT pdata
pdata	SEGMENT
$pdata$??0?$mersenne_twister_engine@_K$0EA@$0BDI@$0JM@$0BP@$0?EKPNJAKFFGJJOGBH@$0BN@$0FFFFFFFFFFFFFFFF@$0BB@$0HBNGHPPPONKGAAAA@$0CF@$0?IBBCAAAAAAAAA@$0CL@$0FIFBPECNEMJFHPCN@@std@@QEAA@_K@Z DD imagerel $LN3
	DD	imagerel $LN3+63
	DD	imagerel $unwind$??0?$mersenne_twister_engine@_K$0EA@$0BDI@$0JM@$0BP@$0?EKPNJAKFFGJJOGBH@$0BN@$0FFFFFFFFFFFFFFFF@$0BB@$0HBNGHPPPONKGAAAA@$0CF@$0?IBBCAAAAAAAAA@$0CL@$0FIFBPECNEMJFHPCN@@std@@QEAA@_K@Z
pdata	ENDS
;	COMDAT pdata
pdata	SEGMENT
$pdata$??__Emt@@YAXXZ DD imagerel ??__Emt@@YAXXZ
	DD	imagerel ??__Emt@@YAXXZ+34
	DD	imagerel $unwind$??__Emt@@YAXXZ
pdata	ENDS
;	COMDAT pdata
pdata	SEGMENT
$pdata$??0?$uniform_real@N@std@@QEAA@NN@Z DD imagerel $LN3
	DD	imagerel $LN3+59
	DD	imagerel $unwind$??0?$uniform_real@N@std@@QEAA@NN@Z
pdata	ENDS
;	COMDAT pdata
pdata	SEGMENT
$pdata$??0param_type@?$uniform_real@N@std@@QEAA@NN@Z DD imagerel $LN3
	DD	imagerel $LN3+56
	DD	imagerel $unwind$??0param_type@?$uniform_real@N@std@@QEAA@NN@Z
pdata	ENDS
;	COMDAT pdata
pdata	SEGMENT
$pdata$?_Init@param_type@?$uniform_real@N@std@@QEAAXNN@Z DD imagerel $LN6
	DD	imagerel $LN6+123
	DD	imagerel $unwind$?_Init@param_type@?$uniform_real@N@std@@QEAAXNN@Z
pdata	ENDS
;	COMDAT pdata
pdata	SEGMENT
$pdata$??0?$uniform_real_distribution@N@std@@QEAA@NN@Z DD imagerel $LN3
	DD	imagerel $LN3+56
	DD	imagerel $unwind$??0?$uniform_real_distribution@N@std@@QEAA@NN@Z
pdata	ENDS
;	COMDAT pdata
pdata	SEGMENT
$pdata$??__Erng_real_dist@@YAXXZ DD imagerel ??__Erng_real_dist@@YAXXZ
	DD	imagerel ??__Erng_real_dist@@YAXXZ+41
	DD	imagerel $unwind$??__Erng_real_dist@@YAXXZ
pdata	ENDS
;	COMDAT pdata
pdata	SEGMENT
$pdata$?perio_diff_x@@YANNN@Z DD imagerel $LN7
	DD	imagerel $LN7+124
	DD	imagerel $unwind$?perio_diff_x@@YANNN@Z
pdata	ENDS
;	COMDAT pdata
pdata	SEGMENT
$pdata$?perio_diff_y@@YANNN@Z DD imagerel $LN7
	DD	imagerel $LN7+124
	DD	imagerel $unwind$?perio_diff_y@@YANNN@Z
pdata	ENDS
;	COMDAT pdata
pdata	SEGMENT
$pdata$?normSq@@YANNNN@Z DD imagerel $LN3
	DD	imagerel $LN3+70
	DD	imagerel $unwind$?normSq@@YANNNN@Z
pdata	ENDS
;	COMDAT pdata
pdata	SEGMENT
$pdata$?dist3Sq@@YANNNNNNN@Z DD imagerel $LN3
	DD	imagerel $LN3+170
	DD	imagerel $unwind$?dist3Sq@@YANNNNNNN@Z
pdata	ENDS
;	COMDAT pdata
pdata	SEGMENT
$pdata$?adhesion@@YANNNN@Z DD imagerel $LN5
	DD	imagerel $LN5+156
	DD	imagerel $unwind$?adhesion@@YANNNN@Z
pdata	ENDS
;	COMDAT pdata
pdata	SEGMENT
$pdata$??0?$_Ptr_base@VCell@@@std@@QEAA@XZ DD imagerel $LN3
	DD	imagerel $LN3+46
	DD	imagerel $unwind$??0?$_Ptr_base@VCell@@@std@@QEAA@XZ
pdata	ENDS
;	COMDAT pdata
pdata	SEGMENT
$pdata$?_Get@?$_Ptr_base@VCell@@@std@@QEBAPEAVCell@@XZ DD imagerel $LN3
	DD	imagerel $LN3+26
	DD	imagerel $unwind$?_Get@?$_Ptr_base@VCell@@@std@@QEBAPEAVCell@@XZ
pdata	ENDS
;	COMDAT pdata
pdata	SEGMENT
$pdata$?_Reset@?$_Ptr_base@VCell@@@std@@QEAAXPEAVCell@@PEAV_Ref_count_base@2@@Z DD imagerel $LN4
	DD	imagerel $LN4+64
	DD	imagerel $unwind$?_Reset@?$_Ptr_base@VCell@@@std@@QEAAXPEAVCell@@PEAV_Ref_count_base@2@@Z
pdata	ENDS
;	COMDAT pdata
pdata	SEGMENT
$pdata$?_Reset0@?$_Ptr_base@VCell@@@std@@QEAAXPEAVCell@@PEAV_Ref_count_base@2@@Z DD imagerel $LN4
	DD	imagerel $LN4+78
	DD	imagerel $unwind$?_Reset0@?$_Ptr_base@VCell@@@std@@QEAAXPEAVCell@@PEAV_Ref_count_base@2@@Z
pdata	ENDS
;	COMDAT pdata
pdata	SEGMENT
$pdata$??0?$shared_ptr@VCell@@@std@@QEAA@$$T@Z DD imagerel $LN3
	DD	imagerel $LN3+39
	DD	imagerel $unwind$??0?$shared_ptr@VCell@@@std@@QEAA@$$T@Z
pdata	ENDS
;	COMDAT pdata
pdata	SEGMENT
$pdata$??0?$shared_ptr@VCell@@@std@@QEAA@AEBV01@@Z DD imagerel $LN3
	DD	imagerel $LN3+62
	DD	imagerel $unwind$??0?$shared_ptr@VCell@@@std@@QEAA@AEBV01@@Z
pdata	ENDS
;	COMDAT pdata
pdata	SEGMENT
$pdata$?get@?$shared_ptr@VCell@@@std@@QEBAPEAVCell@@XZ DD imagerel $LN3
	DD	imagerel $LN3+30
	DD	imagerel $unwind$?get@?$shared_ptr@VCell@@@std@@QEBAPEAVCell@@XZ
pdata	ENDS
;	COMDAT pdata
pdata	SEGMENT
$pdata$??C?$shared_ptr@VCell@@@std@@QEBAPEAVCell@@XZ DD imagerel $LN3
	DD	imagerel $LN3+30
	DD	imagerel $unwind$??C?$shared_ptr@VCell@@@std@@QEBAPEAVCell@@XZ
pdata	ENDS
;	COMDAT pdata
pdata	SEGMENT
$pdata$?_Get_data@?$_Vector_alloc@U?$_Vec_base_types@V?$vector@V?$shared_ptr@VCell@@@std@@V?$allocator@V?$shared_ptr@VCell@@@std@@@2@@std@@V?$allocator@V?$vector@V?$shared_ptr@VCell@@@std@@V?$allocator@V?$shared_ptr@VCell@@@std@@@2@@std@@@2@@std@@@std@@QEAAAEAV?$_Vector_val@U?$_Simple_types@V?$vector@V?$shared_ptr@VCell@@@std@@V?$allocator@V?$shared_ptr@VCell@@@std@@@2@@std@@@std@@@2@XZ DD imagerel $LN3
	DD	imagerel $LN3+33
	DD	imagerel $unwind$?_Get_data@?$_Vector_alloc@U?$_Vec_base_types@V?$vector@V?$shared_ptr@VCell@@@std@@V?$allocator@V?$shared_ptr@VCell@@@std@@@2@@std@@V?$allocator@V?$vector@V?$shared_ptr@VCell@@@std@@V?$allocator@V?$shared_ptr@VCell@@@std@@@2@@std@@@2@@std@@@std@@QEAAAEAV?$_Vector_val@U?$_Simple_types@V?$vector@V?$shared_ptr@VCell@@@std@@V?$allocator@V?$shared_ptr@VCell@@@std@@@2@@std@@@std@@@2@XZ
pdata	ENDS
;	COMDAT pdata
pdata	SEGMENT
$pdata$?_Get_data@?$_Vector_alloc@U?$_Vec_base_types@V?$vector@V?$shared_ptr@VCell@@@std@@V?$allocator@V?$shared_ptr@VCell@@@std@@@2@@std@@V?$allocator@V?$vector@V?$shared_ptr@VCell@@@std@@V?$allocator@V?$shared_ptr@VCell@@@std@@@2@@std@@@2@@std@@@std@@QEBAAEBV?$_Vector_val@U?$_Simple_types@V?$vector@V?$shared_ptr@VCell@@@std@@V?$allocator@V?$shared_ptr@VCell@@@std@@@2@@std@@@std@@@2@XZ DD imagerel $LN3
	DD	imagerel $LN3+33
	DD	imagerel $unwind$?_Get_data@?$_Vector_alloc@U?$_Vec_base_types@V?$vector@V?$shared_ptr@VCell@@@std@@V?$allocator@V?$shared_ptr@VCell@@@std@@@2@@std@@V?$allocator@V?$vector@V?$shared_ptr@VCell@@@std@@V?$allocator@V?$shared_ptr@VCell@@@std@@@2@@std@@@2@@std@@@std@@QEBAAEBV?$_Vector_val@U?$_Simple_types@V?$vector@V?$shared_ptr@VCell@@@std@@V?$allocator@V?$shared_ptr@VCell@@@std@@@2@@std@@@std@@@2@XZ
pdata	ENDS
;	COMDAT pdata
pdata	SEGMENT
$pdata$?_Myfirst@?$_Vector_alloc@U?$_Vec_base_types@V?$vector@V?$shared_ptr@VCell@@@std@@V?$allocator@V?$shared_ptr@VCell@@@std@@@2@@std@@V?$allocator@V?$vector@V?$shared_ptr@VCell@@@std@@V?$allocator@V?$shared_ptr@VCell@@@std@@@2@@std@@@2@@std@@@std@@QEAAAEAPEAV?$vector@V?$shared_ptr@VCell@@@std@@V?$allocator@V?$shared_ptr@VCell@@@std@@@2@@2@XZ DD imagerel $LN3
	DD	imagerel $LN3+34
	DD	imagerel $unwind$?_Myfirst@?$_Vector_alloc@U?$_Vec_base_types@V?$vector@V?$shared_ptr@VCell@@@std@@V?$allocator@V?$shared_ptr@VCell@@@std@@@2@@std@@V?$allocator@V?$vector@V?$shared_ptr@VCell@@@std@@V?$allocator@V?$shared_ptr@VCell@@@std@@@2@@std@@@2@@std@@@std@@QEAAAEAPEAV?$vector@V?$shared_ptr@VCell@@@std@@V?$allocator@V?$shared_ptr@VCell@@@std@@@2@@2@XZ
pdata	ENDS
;	COMDAT pdata
pdata	SEGMENT
$pdata$?_Myfirst@?$_Vector_alloc@U?$_Vec_base_types@V?$vector@V?$shared_ptr@VCell@@@std@@V?$allocator@V?$shared_ptr@VCell@@@std@@@2@@std@@V?$allocator@V?$vector@V?$shared_ptr@VCell@@@std@@V?$allocator@V?$shared_ptr@VCell@@@std@@@2@@std@@@2@@std@@@std@@QEBAAEBQEAV?$vector@V?$shared_ptr@VCell@@@std@@V?$allocator@V?$shared_ptr@VCell@@@std@@@2@@2@XZ DD imagerel $LN3
	DD	imagerel $LN3+34
	DD	imagerel $unwind$?_Myfirst@?$_Vector_alloc@U?$_Vec_base_types@V?$vector@V?$shared_ptr@VCell@@@std@@V?$allocator@V?$shared_ptr@VCell@@@std@@@2@@std@@V?$allocator@V?$vector@V?$shared_ptr@VCell@@@std@@V?$allocator@V?$shared_ptr@VCell@@@std@@@2@@std@@@2@@std@@@std@@QEBAAEBQEAV?$vector@V?$shared_ptr@VCell@@@std@@V?$allocator@V?$shared_ptr@VCell@@@std@@@2@@2@XZ
pdata	ENDS
;	COMDAT pdata
pdata	SEGMENT
$pdata$?_Mylast@?$_Vector_alloc@U?$_Vec_base_types@V?$vector@V?$shared_ptr@VCell@@@std@@V?$allocator@V?$shared_ptr@VCell@@@std@@@2@@std@@V?$allocator@V?$vector@V?$shared_ptr@VCell@@@std@@V?$allocator@V?$shared_ptr@VCell@@@std@@@2@@std@@@2@@std@@@std@@QEBAAEBQEAV?$vector@V?$shared_ptr@VCell@@@std@@V?$allocator@V?$shared_ptr@VCell@@@std@@@2@@2@XZ DD imagerel $LN3
	DD	imagerel $LN3+34
	DD	imagerel $unwind$?_Mylast@?$_Vector_alloc@U?$_Vec_base_types@V?$vector@V?$shared_ptr@VCell@@@std@@V?$allocator@V?$shared_ptr@VCell@@@std@@@2@@std@@V?$allocator@V?$vector@V?$shared_ptr@VCell@@@std@@V?$allocator@V?$shared_ptr@VCell@@@std@@@2@@std@@@2@@std@@@std@@QEBAAEBQEAV?$vector@V?$shared_ptr@VCell@@@std@@V?$allocator@V?$shared_ptr@VCell@@@std@@@2@@2@XZ
pdata	ENDS
;	COMDAT pdata
pdata	SEGMENT
$pdata$?_Get_second@?$_Compressed_pair@U?$_Wrap_alloc@V?$allocator@V?$vector@V?$shared_ptr@VCell@@@std@@V?$allocator@V?$shared_ptr@VCell@@@std@@@2@@std@@@std@@@std@@V?$_Vector_val@U?$_Simple_types@V?$vector@V?$shared_ptr@VCell@@@std@@V?$allocator@V?$shared_ptr@VCell@@@std@@@2@@std@@@std@@@2@$00@std@@QEAAAEAV?$_Vector_val@U?$_Simple_types@V?$vector@V?$shared_ptr@VCell@@@std@@V?$allocator@V?$shared_ptr@VCell@@@std@@@2@@std@@@std@@@2@XZ DD imagerel $LN3
	DD	imagerel $LN3+23
	DD	imagerel $unwind$?_Get_second@?$_Compressed_pair@U?$_Wrap_alloc@V?$allocator@V?$vector@V?$shared_ptr@VCell@@@std@@V?$allocator@V?$shared_ptr@VCell@@@std@@@2@@std@@@std@@@std@@V?$_Vector_val@U?$_Simple_types@V?$vector@V?$shared_ptr@VCell@@@std@@V?$allocator@V?$shared_ptr@VCell@@@std@@@2@@std@@@std@@@2@$00@std@@QEAAAEAV?$_Vector_val@U?$_Simple_types@V?$vector@V?$shared_ptr@VCell@@@std@@V?$allocator@V?$shared_ptr@VCell@@@std@@@2@@std@@@std@@@2@XZ
pdata	ENDS
;	COMDAT pdata
pdata	SEGMENT
$pdata$?_Get_second@?$_Compressed_pair@U?$_Wrap_alloc@V?$allocator@V?$vector@V?$shared_ptr@VCell@@@std@@V?$allocator@V?$shared_ptr@VCell@@@std@@@2@@std@@@std@@@std@@V?$_Vector_val@U?$_Simple_types@V?$vector@V?$shared_ptr@VCell@@@std@@V?$allocator@V?$shared_ptr@VCell@@@std@@@2@@std@@@std@@@2@$00@std@@QEBAAEBV?$_Vector_val@U?$_Simple_types@V?$vector@V?$shared_ptr@VCell@@@std@@V?$allocator@V?$shared_ptr@VCell@@@std@@@2@@std@@@std@@@2@XZ DD imagerel $LN3
	DD	imagerel $LN3+23
	DD	imagerel $unwind$?_Get_second@?$_Compressed_pair@U?$_Wrap_alloc@V?$allocator@V?$vector@V?$shared_ptr@VCell@@@std@@V?$allocator@V?$shared_ptr@VCell@@@std@@@2@@std@@@std@@@std@@V?$_Vector_val@U?$_Simple_types@V?$vector@V?$shared_ptr@VCell@@@std@@V?$allocator@V?$shared_ptr@VCell@@@std@@@2@@std@@@std@@@2@$00@std@@QEBAAEBV?$_Vector_val@U?$_Simple_types@V?$vector@V?$shared_ptr@VCell@@@std@@V?$allocator@V?$shared_ptr@VCell@@@std@@@2@@std@@@std@@@2@XZ
pdata	ENDS
;	COMDAT pdata
pdata	SEGMENT
$pdata$?size@?$vector@V?$vector@V?$shared_ptr@VCell@@@std@@V?$allocator@V?$shared_ptr@VCell@@@std@@@2@@std@@V?$allocator@V?$vector@V?$shared_ptr@VCell@@@std@@V?$allocator@V?$shared_ptr@VCell@@@std@@@2@@std@@@2@@std@@QEBA_KXZ DD imagerel $LN3
	DD	imagerel $LN3+63
	DD	imagerel $unwind$?size@?$vector@V?$vector@V?$shared_ptr@VCell@@@std@@V?$allocator@V?$shared_ptr@VCell@@@std@@@2@@std@@V?$allocator@V?$vector@V?$shared_ptr@VCell@@@std@@V?$allocator@V?$shared_ptr@VCell@@@std@@@2@@std@@@2@@std@@QEBA_KXZ
pdata	ENDS
;	COMDAT pdata
pdata	SEGMENT
$pdata$??A?$vector@V?$vector@V?$shared_ptr@VCell@@@std@@V?$allocator@V?$shared_ptr@VCell@@@std@@@2@@std@@V?$allocator@V?$vector@V?$shared_ptr@VCell@@@std@@V?$allocator@V?$shared_ptr@VCell@@@std@@@2@@std@@@2@@std@@QEAAAEAV?$vector@V?$shared_ptr@VCell@@@std@@V?$allocator@V?$shared_ptr@VCell@@@std@@@2@@1@_K@Z DD imagerel $LN6
	DD	imagerel $LN6+210
	DD	imagerel $unwind$??A?$vector@V?$vector@V?$shared_ptr@VCell@@@std@@V?$allocator@V?$shared_ptr@VCell@@@std@@@2@@std@@V?$allocator@V?$vector@V?$shared_ptr@VCell@@@std@@V?$allocator@V?$shared_ptr@VCell@@@std@@@2@@std@@@2@@std@@QEAAAEAV?$vector@V?$shared_ptr@VCell@@@std@@V?$allocator@V?$shared_ptr@VCell@@@std@@@2@@1@_K@Z
pdata	ENDS
;	COMDAT pdata
pdata	SEGMENT
$pdata$?_Get_data@?$_Vector_alloc@U?$_Vec_base_types@V?$shared_ptr@VCell@@@std@@V?$allocator@V?$shared_ptr@VCell@@@std@@@2@@std@@@std@@QEAAAEAV?$_Vector_val@U?$_Simple_types@V?$shared_ptr@VCell@@@std@@@std@@@2@XZ DD imagerel $LN3
	DD	imagerel $LN3+33
	DD	imagerel $unwind$?_Get_data@?$_Vector_alloc@U?$_Vec_base_types@V?$shared_ptr@VCell@@@std@@V?$allocator@V?$shared_ptr@VCell@@@std@@@2@@std@@@std@@QEAAAEAV?$_Vector_val@U?$_Simple_types@V?$shared_ptr@VCell@@@std@@@std@@@2@XZ
pdata	ENDS
;	COMDAT pdata
pdata	SEGMENT
$pdata$?_Myfirst@?$_Vector_alloc@U?$_Vec_base_types@V?$shared_ptr@VCell@@@std@@V?$allocator@V?$shared_ptr@VCell@@@std@@@2@@std@@@std@@QEAAAEAPEAV?$shared_ptr@VCell@@@2@XZ DD imagerel $LN3
	DD	imagerel $LN3+34
	DD	imagerel $unwind$?_Myfirst@?$_Vector_alloc@U?$_Vec_base_types@V?$shared_ptr@VCell@@@std@@V?$allocator@V?$shared_ptr@VCell@@@std@@@2@@std@@@std@@QEAAAEAPEAV?$shared_ptr@VCell@@@2@XZ
pdata	ENDS
;	COMDAT pdata
pdata	SEGMENT
$pdata$?_Mylast@?$_Vector_alloc@U?$_Vec_base_types@V?$shared_ptr@VCell@@@std@@V?$allocator@V?$shared_ptr@VCell@@@std@@@2@@std@@@std@@QEAAAEAPEAV?$shared_ptr@VCell@@@2@XZ DD imagerel $LN3
	DD	imagerel $LN3+34
	DD	imagerel $unwind$?_Mylast@?$_Vector_alloc@U?$_Vec_base_types@V?$shared_ptr@VCell@@@std@@V?$allocator@V?$shared_ptr@VCell@@@std@@@2@@std@@@std@@QEAAAEAPEAV?$shared_ptr@VCell@@@2@XZ
pdata	ENDS
;	COMDAT pdata
pdata	SEGMENT
$pdata$?_Get_second@?$_Compressed_pair@U?$_Wrap_alloc@V?$allocator@V?$shared_ptr@VCell@@@std@@@std@@@std@@V?$_Vector_val@U?$_Simple_types@V?$shared_ptr@VCell@@@std@@@std@@@2@$00@std@@QEAAAEAV?$_Vector_val@U?$_Simple_types@V?$shared_ptr@VCell@@@std@@@std@@@2@XZ DD imagerel $LN3
	DD	imagerel $LN3+23
	DD	imagerel $unwind$?_Get_second@?$_Compressed_pair@U?$_Wrap_alloc@V?$allocator@V?$shared_ptr@VCell@@@std@@@std@@@std@@V?$_Vector_val@U?$_Simple_types@V?$shared_ptr@VCell@@@std@@@std@@@2@$00@std@@QEAAAEAV?$_Vector_val@U?$_Simple_types@V?$shared_ptr@VCell@@@std@@@std@@@2@XZ
pdata	ENDS
;	COMDAT pdata
pdata	SEGMENT
$pdata$?begin@?$vector@V?$shared_ptr@VCell@@@std@@V?$allocator@V?$shared_ptr@VCell@@@std@@@2@@std@@QEAA?AV?$_Vector_iterator@V?$_Vector_val@U?$_Simple_types@V?$shared_ptr@VCell@@@std@@@std@@@std@@@2@XZ DD imagerel $LN3
	DD	imagerel $LN3+82
	DD	imagerel $unwind$?begin@?$vector@V?$shared_ptr@VCell@@@std@@V?$allocator@V?$shared_ptr@VCell@@@std@@@2@@std@@QEAA?AV?$_Vector_iterator@V?$_Vector_val@U?$_Simple_types@V?$shared_ptr@VCell@@@std@@@std@@@std@@@2@XZ
pdata	ENDS
;	COMDAT pdata
pdata	SEGMENT
$pdata$?end@?$vector@V?$shared_ptr@VCell@@@std@@V?$allocator@V?$shared_ptr@VCell@@@std@@@2@@std@@QEAA?AV?$_Vector_iterator@V?$_Vector_val@U?$_Simple_types@V?$shared_ptr@VCell@@@std@@@std@@@std@@@2@XZ DD imagerel $LN3
	DD	imagerel $LN3+82
	DD	imagerel $unwind$?end@?$vector@V?$shared_ptr@VCell@@@std@@V?$allocator@V?$shared_ptr@VCell@@@std@@@2@@std@@QEAA?AV?$_Vector_iterator@V?$_Vector_val@U?$_Simple_types@V?$shared_ptr@VCell@@@std@@@std@@@std@@@2@XZ
pdata	ENDS
;	COMDAT pdata
pdata	SEGMENT
$pdata$?div_direction@Cell@@AEAAXAEBUCellData@@0PEAN11@Z DD imagerel $LN6
	DD	imagerel $LN6+490
	DD	imagerel $unwind$?div_direction@Cell@@AEAAXAEBUCellData@@0PEAN11@Z
pdata	ENDS
;	COMDAT pdata
pdata	SEGMENT
$pdata$?interac_wall@@YAXAEAV?$shared_ptr@VCell@@@std@@@Z DD imagerel $LN3
	DD	imagerel $LN3+297
	DD	imagerel $unwind$?interac_wall@@YAXAEAV?$shared_ptr@VCell@@@std@@@Z
pdata	ENDS
;	COMDAT pdata
pdata	SEGMENT
$pdata$??Rmemb_memb_coef@@QEAANAEBV?$shared_ptr@VCell@@@std@@0NNN@Z DD imagerel $LN7
	DD	imagerel $LN7+539
	DD	imagerel $unwind$??Rmemb_memb_coef@@QEAANAEBV?$shared_ptr@VCell@@@std@@0NNN@Z
pdata	ENDS
;	COMDAT pdata
pdata	SEGMENT
$pdata$??Rnull_coef@@QEAANAEBV?$shared_ptr@VCell@@@std@@0NNN@Z DD imagerel $LN3
	DD	imagerel $LN3+39
	DD	imagerel $unwind$??Rnull_coef@@QEAANAEBV?$shared_ptr@VCell@@@std@@0NNN@Z
pdata	ENDS
;	COMDAT pdata
pdata	SEGMENT
$pdata$??Rcommon_common_coef@@QEAANAEBV?$shared_ptr@VCell@@@std@@0NNN@Z DD imagerel $LN3
	DD	imagerel $LN3+184
	DD	imagerel $unwind$??Rcommon_common_coef@@QEAANAEBV?$shared_ptr@VCell@@@std@@0NNN@Z
pdata	ENDS
;	COMDAT pdata
pdata	SEGMENT
$pdata$??Rder_der_coef@@QEAANAEBV?$shared_ptr@VCell@@@std@@0NNN@Z DD imagerel $LN7
	DD	imagerel $LN7+441
	DD	imagerel $unwind$??Rder_der_coef@@QEAANAEBV?$shared_ptr@VCell@@@std@@0NNN@Z
pdata	ENDS
;	COMDAT pdata
pdata	SEGMENT
$pdata$??Rsupra_others_coef@@QEAANAEBV?$shared_ptr@VCell@@@std@@0NNN@Z DD imagerel $LN7
	DD	imagerel $LN7+341
	DD	imagerel $unwind$??Rsupra_others_coef@@QEAANAEBV?$shared_ptr@VCell@@@std@@0NNN@Z
pdata	ENDS
;	COMDAT pdata
pdata	SEGMENT
$pdata$??Rstem_stem_coef@@QEAANAEBV?$shared_ptr@VCell@@@std@@0NNN@Z DD imagerel $LN7
	DD	imagerel $LN7+310
	DD	imagerel $unwind$??Rstem_stem_coef@@QEAANAEBV?$shared_ptr@VCell@@@std@@0NNN@Z
pdata	ENDS
;	COMDAT pdata
pdata	SEGMENT
$pdata$??Rpair_coef@@QEAANAEBV?$shared_ptr@VCell@@@std@@0NNN@Z DD imagerel $LN3
	DD	imagerel $LN3+122
	DD	imagerel $unwind$??Rpair_coef@@QEAANAEBV?$shared_ptr@VCell@@@std@@0NNN@Z
pdata	ENDS
;	COMDAT pdata
pdata	SEGMENT
$pdata$?k_lipid_release@@YANNN@Z DD imagerel $LN3
	DD	imagerel $LN3+134
	DD	imagerel $unwind$?k_lipid_release@@YANNN@Z
pdata	ENDS
;	COMDAT pdata
pdata	SEGMENT
$pdata$?k_lipid@@YANNN@Z DD imagerel $LN3
	DD	imagerel $LN3+134
	DD	imagerel $unwind$?k_lipid@@YANNN@Z
pdata	ENDS
;	COMDAT pdata
pdata	SEGMENT
$pdata$?find_dermis@@YA?AV?$shared_ptr@VCell@@@std@@AEBV12@@Z DD imagerel $LN13
	DD	imagerel $LN13+595
	DD	imagerel $unwind$?find_dermis@@YA?AV?$shared_ptr@VCell@@@std@@AEBV12@@Z
pdata	ENDS
;	COMDAT pdata
pdata	SEGMENT
$pdata$?dtor$0@?0??find_dermis@@YA?AV?$shared_ptr@VCell@@@std@@AEBV12@@Z@4HA DD imagerel ?dtor$0@?0??find_dermis@@YA?AV?$shared_ptr@VCell@@@std@@AEBV12@@Z@4HA
	DD	imagerel ?dtor$0@?0??find_dermis@@YA?AV?$shared_ptr@VCell@@@std@@AEBV12@@Z@4HA+25
	DD	imagerel $unwind$?dtor$0@?0??find_dermis@@YA?AV?$shared_ptr@VCell@@@std@@AEBV12@@Z@4HA
pdata	ENDS
;	COMDAT pdata
pdata	SEGMENT
$pdata$?dtor$1@?0??find_dermis@@YA?AV?$shared_ptr@VCell@@@std@@AEBV12@@Z@4HA DD imagerel ?dtor$1@?0??find_dermis@@YA?AV?$shared_ptr@VCell@@@std@@AEBV12@@Z@4HA
	DD	imagerel ?dtor$1@?0??find_dermis@@YA?AV?$shared_ptr@VCell@@@std@@AEBV12@@Z@4HA+25
	DD	imagerel $unwind$?dtor$1@?0??find_dermis@@YA?AV?$shared_ptr@VCell@@@std@@AEBV12@@Z@4HA
pdata	ENDS
;	COMDAT pdata
pdata	SEGMENT
$pdata$?calc_normal@@YAXAEBUCellData@@0PEAN11@Z DD imagerel $LN3
	DD	imagerel $LN3+209
	DD	imagerel $unwind$?calc_normal@@YAXAEBUCellData@@0PEAN11@Z
pdata	ENDS
;	COMDAT pdata
pdata	SEGMENT
$pdata$??0?$_Iterator012@Urandom_access_iterator_tag@std@@V?$shared_ptr@VCell@@@2@_JPEBV32@AEBV32@U_Iterator_base12@2@@std@@QEAA@XZ DD imagerel $LN4
	DD	imagerel $LN4+34
	DD	imagerel $unwind$??0?$_Iterator012@Urandom_access_iterator_tag@std@@V?$shared_ptr@VCell@@@2@_JPEBV32@AEBV32@U_Iterator_base12@2@@std@@QEAA@XZ
pdata	ENDS
;	COMDAT pdata
pdata	SEGMENT
$pdata$??1?$_Iterator012@Urandom_access_iterator_tag@std@@V?$shared_ptr@VCell@@@2@_JPEBV32@AEBV32@U_Iterator_base12@2@@std@@QEAA@XZ DD imagerel $LN3
	DD	imagerel $LN3+30
	DD	imagerel $unwind$??1?$_Iterator012@Urandom_access_iterator_tag@std@@V?$shared_ptr@VCell@@@2@_JPEBV32@AEBV32@U_Iterator_base12@2@@std@@QEAA@XZ
pdata	ENDS
;	COMDAT pdata
pdata	SEGMENT
$pdata$??0?$_Vector_const_iterator@V?$_Vector_val@U?$_Simple_types@V?$shared_ptr@VCell@@@std@@@std@@@std@@@std@@QEAA@PEAV?$shared_ptr@VCell@@@1@PEBU_Container_base12@1@@Z DD imagerel $LN4
	DD	imagerel $LN4+79
	DD	imagerel $unwind$??0?$_Vector_const_iterator@V?$_Vector_val@U?$_Simple_types@V?$shared_ptr@VCell@@@std@@@std@@@std@@@std@@QEAA@PEAV?$shared_ptr@VCell@@@1@PEBU_Container_base12@1@@Z
pdata	ENDS
;	COMDAT pdata
pdata	SEGMENT
$pdata$?dtor$0@?0???0?$_Vector_const_iterator@V?$_Vector_val@U?$_Simple_types@V?$shared_ptr@VCell@@@std@@@std@@@std@@@std@@QEAA@PEAV?$shared_ptr@VCell@@@1@PEBU_Container_base12@1@@Z@4HA DD imagerel ?dtor$0@?0???0?$_Vector_const_iterator@V?$_Vector_val@U?$_Simple_types@V?$shared_ptr@VCell@@@std@@@std@@@std@@@std@@QEAA@PEAV?$shared_ptr@VCell@@@1@PEBU_Container_base12@1@@Z@4HA
	DD	imagerel ?dtor$0@?0???0?$_Vector_const_iterator@V?$_Vector_val@U?$_Simple_types@V?$shared_ptr@VCell@@@std@@@std@@@std@@@std@@QEAA@PEAV?$shared_ptr@VCell@@@1@PEBU_Container_base12@1@@Z@4HA+25
	DD	imagerel $unwind$?dtor$0@?0???0?$_Vector_const_iterator@V?$_Vector_val@U?$_Simple_types@V?$shared_ptr@VCell@@@std@@@std@@@std@@@std@@QEAA@PEAV?$shared_ptr@VCell@@@1@PEBU_Container_base12@1@@Z@4HA
pdata	ENDS
;	COMDAT pdata
pdata	SEGMENT
$pdata$??D?$_Vector_const_iterator@V?$_Vector_val@U?$_Simple_types@V?$shared_ptr@VCell@@@std@@@std@@@std@@@std@@QEBAAEBV?$shared_ptr@VCell@@@1@XZ DD imagerel $LN7
	DD	imagerel $LN7+249
	DD	imagerel $unwind$??D?$_Vector_const_iterator@V?$_Vector_val@U?$_Simple_types@V?$shared_ptr@VCell@@@std@@@std@@@std@@@std@@QEBAAEBV?$shared_ptr@VCell@@@1@XZ
pdata	ENDS
;	COMDAT pdata
pdata	SEGMENT
$pdata$??E?$_Vector_const_iterator@V?$_Vector_val@U?$_Simple_types@V?$shared_ptr@VCell@@@std@@@std@@@std@@@std@@QEAAAEAV01@XZ DD imagerel $LN7
	DD	imagerel $LN7+242
	DD	imagerel $unwind$??E?$_Vector_const_iterator@V?$_Vector_val@U?$_Simple_types@V?$shared_ptr@VCell@@@std@@@std@@@std@@@std@@QEAAAEAV01@XZ
pdata	ENDS
;	COMDAT pdata
pdata	SEGMENT
$pdata$??8?$_Vector_const_iterator@V?$_Vector_val@U?$_Simple_types@V?$shared_ptr@VCell@@@std@@@std@@@std@@@std@@QEBA_NAEBV01@@Z DD imagerel $LN6
	DD	imagerel $LN6+108
	DD	imagerel $unwind$??8?$_Vector_const_iterator@V?$_Vector_val@U?$_Simple_types@V?$shared_ptr@VCell@@@std@@@std@@@std@@@std@@QEBA_NAEBV01@@Z
pdata	ENDS
;	COMDAT pdata
pdata	SEGMENT
$pdata$??9?$_Vector_const_iterator@V?$_Vector_val@U?$_Simple_types@V?$shared_ptr@VCell@@@std@@@std@@@std@@@std@@QEBA_NAEBV01@@Z DD imagerel $LN5
	DD	imagerel $LN5+66
	DD	imagerel $unwind$??9?$_Vector_const_iterator@V?$_Vector_val@U?$_Simple_types@V?$shared_ptr@VCell@@@std@@@std@@@std@@@std@@QEBA_NAEBV01@@Z
pdata	ENDS
;	COMDAT pdata
pdata	SEGMENT
$pdata$?_Compat@?$_Vector_const_iterator@V?$_Vector_val@U?$_Simple_types@V?$shared_ptr@VCell@@@std@@@std@@@std@@@std@@QEBAXAEBV12@@Z DD imagerel $LN7
	DD	imagerel $LN7+223
	DD	imagerel $unwind$?_Compat@?$_Vector_const_iterator@V?$_Vector_val@U?$_Simple_types@V?$shared_ptr@VCell@@@std@@@std@@@std@@@std@@QEBAXAEBV12@@Z
pdata	ENDS
;	COMDAT pdata
pdata	SEGMENT
$pdata$??1?$_Vector_const_iterator@V?$_Vector_val@U?$_Simple_types@V?$shared_ptr@VCell@@@std@@@std@@@std@@@std@@QEAA@XZ DD imagerel $LN3
	DD	imagerel $LN3+30
	DD	imagerel $unwind$??1?$_Vector_const_iterator@V?$_Vector_val@U?$_Simple_types@V?$shared_ptr@VCell@@@std@@@std@@@std@@@std@@QEAA@XZ
pdata	ENDS
;	COMDAT pdata
pdata	SEGMENT
$pdata$??0?$_Vector_iterator@V?$_Vector_val@U?$_Simple_types@V?$shared_ptr@VCell@@@std@@@std@@@std@@@std@@QEAA@PEAV?$shared_ptr@VCell@@@1@PEBU_Container_base12@1@@Z DD imagerel $LN4
	DD	imagerel $LN4+52
	DD	imagerel $unwind$??0?$_Vector_iterator@V?$_Vector_val@U?$_Simple_types@V?$shared_ptr@VCell@@@std@@@std@@@std@@@std@@QEAA@PEAV?$shared_ptr@VCell@@@1@PEBU_Container_base12@1@@Z
pdata	ENDS
;	COMDAT pdata
pdata	SEGMENT
$pdata$??D?$_Vector_iterator@V?$_Vector_val@U?$_Simple_types@V?$shared_ptr@VCell@@@std@@@std@@@std@@@std@@QEBAAEAV?$shared_ptr@VCell@@@1@XZ DD imagerel $LN3
	DD	imagerel $LN3+30
	DD	imagerel $unwind$??D?$_Vector_iterator@V?$_Vector_val@U?$_Simple_types@V?$shared_ptr@VCell@@@std@@@std@@@std@@@std@@QEBAAEAV?$shared_ptr@VCell@@@1@XZ
pdata	ENDS
;	COMDAT pdata
pdata	SEGMENT
$pdata$??E?$_Vector_iterator@V?$_Vector_val@U?$_Simple_types@V?$shared_ptr@VCell@@@std@@@std@@@std@@@std@@QEAAAEAV01@XZ DD imagerel $LN3
	DD	imagerel $LN3+34
	DD	imagerel $unwind$??E?$_Vector_iterator@V?$_Vector_val@U?$_Simple_types@V?$shared_ptr@VCell@@@std@@@std@@@std@@@std@@QEAAAEAV01@XZ
pdata	ENDS
;	COMDAT pdata
pdata	SEGMENT
$pdata$??1?$_Vector_iterator@V?$_Vector_val@U?$_Simple_types@V?$shared_ptr@VCell@@@std@@@std@@@std@@@std@@QEAA@XZ DD imagerel $LN3
	DD	imagerel $LN3+30
	DD	imagerel $unwind$??1?$_Vector_iterator@V?$_Vector_val@U?$_Simple_types@V?$shared_ptr@VCell@@@std@@@std@@@std@@@std@@QEAA@XZ
pdata	ENDS
;	COMDAT pdata
pdata	SEGMENT
$pdata$?__autoclassinit2@?$_Vector_iterator@V?$_Vector_val@U?$_Simple_types@V?$shared_ptr@VCell@@@std@@@std@@@std@@@std@@QEAAX_K@Z DD imagerel $LN3
	DD	imagerel $LN3+38
	DD	imagerel $unwind$?__autoclassinit2@?$_Vector_iterator@V?$_Vector_val@U?$_Simple_types@V?$shared_ptr@VCell@@@std@@@std@@@std@@@std@@QEAAX_K@Z
pdata	ENDS
;	COMDAT pdata
pdata	SEGMENT
$pdata$??$?8VCell@@V0@@std@@YA_NAEBV?$shared_ptr@VCell@@@0@0@Z DD imagerel $LN5
	DD	imagerel $LN5+77
	DD	imagerel $unwind$??$?8VCell@@V0@@std@@YA_NAEBV?$shared_ptr@VCell@@@0@0@Z
pdata	ENDS
;	COMDAT pdata
pdata	SEGMENT
$pdata$??$_Reset@VCell@@@?$_Ptr_base@VCell@@@std@@QEAAXAEBV01@@Z DD imagerel $LN3
	DD	imagerel $LN3+50
	DD	imagerel $unwind$??$_Reset@VCell@@@?$_Ptr_base@VCell@@@std@@QEAAXAEBV01@@Z
pdata	ENDS
CRT$XCU	SEGMENT
?ANX$initializer$@@3P6AXXZEA DQ FLAT:??__EANX@@YAXXZ	; ANX$initializer$
CRT$XCU	ENDS
;	COMDAT __xmm@80000000000000008000000000000000
CONST	SEGMENT
__xmm@80000000000000008000000000000000 DB 00H, 00H, 00H, 00H, 00H, 00H, 00H
	DB	080H, 00H, 00H, 00H, 00H, 00H, 00H, 00H, 080H
CONST	ENDS
;	COMDAT __real@c049000000000000
CONST	SEGMENT
__real@c049000000000000 DQ 0c049000000000000r	; -50
CONST	ENDS
;	COMDAT __real@7fefffffffffffff
CONST	SEGMENT
__real@7fefffffffffffff DQ 07fefffffffffffffr	; 1.79769e+308
CONST	ENDS
;	COMDAT __real@40a3880000000000
CONST	SEGMENT
__real@40a3880000000000 DQ 040a3880000000000r	; 2500
CONST	ENDS
;	COMDAT __real@4083880000000000
CONST	SEGMENT
__real@4083880000000000 DQ 04083880000000000r	; 625
CONST	ENDS
;	COMDAT __real@4059000000000000
CONST	SEGMENT
__real@4059000000000000 DQ 04059000000000000r	; 100
CONST	ENDS
;	COMDAT __real@4049000000000000
CONST	SEGMENT
__real@4049000000000000 DQ 04049000000000000r	; 50
CONST	ENDS
;	COMDAT __real@401921fb54442d18
CONST	SEGMENT
__real@401921fb54442d18 DQ 0401921fb54442d18r	; 6.28319
CONST	ENDS
;	COMDAT __real@4014000000000000
CONST	SEGMENT
__real@4014000000000000 DQ 04014000000000000r	; 5
CONST	ENDS
;	COMDAT __real@400921fb54442d18
CONST	SEGMENT
__real@400921fb54442d18 DQ 0400921fb54442d18r	; 3.14159
CONST	ENDS
;	COMDAT __real@4008000000000000
CONST	SEGMENT
__real@4008000000000000 DQ 04008000000000000r	; 3
CONST	ENDS
;	COMDAT __real@4000000000000000
CONST	SEGMENT
__real@4000000000000000 DQ 04000000000000000r	; 2
CONST	ENDS
;	COMDAT __real@3ff4000000000000
CONST	SEGMENT
__real@3ff4000000000000 DQ 03ff4000000000000r	; 1.25
CONST	ENDS
;	COMDAT __real@3ff3333333333333
CONST	SEGMENT
__real@3ff3333333333333 DQ 03ff3333333333333r	; 1.2
CONST	ENDS
;	COMDAT __real@3ff0000000000000
CONST	SEGMENT
__real@3ff0000000000000 DQ 03ff0000000000000r	; 1
CONST	ENDS
;	COMDAT __real@3fe1eb851eb851eb
CONST	SEGMENT
__real@3fe1eb851eb851eb DQ 03fe1eb851eb851ebr	; 0.56
CONST	ENDS
;	COMDAT __real@3fe0000000000000
CONST	SEGMENT
__real@3fe0000000000000 DQ 03fe0000000000000r	; 0.5
CONST	ENDS
;	COMDAT __real@3fd0000000000000
CONST	SEGMENT
__real@3fd0000000000000 DQ 03fd0000000000000r	; 0.25
CONST	ENDS
;	COMDAT __real@3fc999999999999a
CONST	SEGMENT
__real@3fc999999999999a DQ 03fc999999999999ar	; 0.2
CONST	ENDS
;	COMDAT __real@3fa999999999999a
CONST	SEGMENT
__real@3fa999999999999a DQ 03fa999999999999ar	; 0.05
CONST	ENDS
;	COMDAT __real@3fa47ae147ae147b
CONST	SEGMENT
__real@3fa47ae147ae147b DQ 03fa47ae147ae147br	; 0.04
CONST	ENDS
;	COMDAT __real@3fa47ae147ae1478
CONST	SEGMENT
__real@3fa47ae147ae1478 DQ 03fa47ae147ae1478r	; 0.04
CONST	ENDS
;	COMDAT __real@3f9eb851eb851eb8
CONST	SEGMENT
__real@3f9eb851eb851eb8 DQ 03f9eb851eb851eb8r	; 0.03
CONST	ENDS
;	COMDAT __real@3f8999999999999a
CONST	SEGMENT
__real@3f8999999999999a DQ 03f8999999999999ar	; 0.0125
CONST	ENDS
;	COMDAT __real@3f847ae147ae147b
CONST	SEGMENT
__real@3f847ae147ae147b DQ 03f847ae147ae147br	; 0.01
CONST	ENDS
;	COMDAT __real@3f80624dd2f1a9fc
CONST	SEGMENT
__real@3f80624dd2f1a9fc DQ 03f80624dd2f1a9fcr	; 0.008
CONST	ENDS
;	COMDAT __real@3f747ae147ae147b
CONST	SEGMENT
__real@3f747ae147ae147b DQ 03f747ae147ae147br	; 0.005
CONST	ENDS
;	COMDAT __real@3d06849b86a12b9b
CONST	SEGMENT
__real@3d06849b86a12b9b DQ 03d06849b86a12b9br	; 1e-14
CONST	ENDS
;	COMDAT __real@0000000000000000
CONST	SEGMENT
__real@0000000000000000 DQ 00000000000000000r	; 0
CONST	ENDS
;	COMDAT rtc$TMZ
rtc$TMZ	SEGMENT
_RTC_Shutdown.rtc$TMZ DQ FLAT:_RTC_Shutdown
rtc$TMZ	ENDS
;	COMDAT rtc$IMZ
rtc$IMZ	SEGMENT
_RTC_InitBase.rtc$IMZ DQ FLAT:_RTC_InitBase
rtc$IMZ	ENDS
;	COMDAT ??_C@_0HM@GHBBOBBO@c?3?2program?5files?5?$CIx86?$CJ?2microsoft@
CONST	SEGMENT
??_C@_0HM@GHBBOBBO@c?3?2program?5files?5?$CIx86?$CJ?2microsoft@ DB 'c:\pr'
	DB	'ogram files (x86)\microsoft visual studio 14.0\vc\include\ran'
	DB	'dom(3470): invalid min and max arguments for uniform_real', 00H ; `string'
CONST	ENDS
;	COMDAT ??_C@_1PM@JCFBDDDH@?$AAs?$AAt?$AAd?$AA?3?$AA?3?$AA_?$AAV?$AAe?$AAc?$AAt?$AAo?$AAr?$AA_?$AAc?$AAo?$AAn?$AAs?$AAt?$AA_?$AAi?$AAt?$AAe?$AAr?$AAa?$AAt?$AAo?$AAr?$AA?$DM?$AAc?$AAl?$AAa?$AAs@
CONST	SEGMENT
??_C@_1PM@JCFBDDDH@?$AAs?$AAt?$AAd?$AA?3?$AA?3?$AA_?$AAV?$AAe?$AAc?$AAt?$AAo?$AAr?$AA_?$AAc?$AAo?$AAn?$AAs?$AAt?$AA_?$AAi?$AAt?$AAe?$AAr?$AAa?$AAt?$AAo?$AAr?$AA?$DM?$AAc?$AAl?$AAa?$AAs@ DB 's'
	DB	00H, 't', 00H, 'd', 00H, ':', 00H, ':', 00H, '_', 00H, 'V', 00H
	DB	'e', 00H, 'c', 00H, 't', 00H, 'o', 00H, 'r', 00H, '_', 00H, 'c'
	DB	00H, 'o', 00H, 'n', 00H, 's', 00H, 't', 00H, '_', 00H, 'i', 00H
	DB	't', 00H, 'e', 00H, 'r', 00H, 'a', 00H, 't', 00H, 'o', 00H, 'r'
	DB	00H, '<', 00H, 'c', 00H, 'l', 00H, 'a', 00H, 's', 00H, 's', 00H
	DB	' ', 00H, 's', 00H, 't', 00H, 'd', 00H, ':', 00H, ':', 00H, '_'
	DB	00H, 'V', 00H, 'e', 00H, 'c', 00H, 't', 00H, 'o', 00H, 'r', 00H
	DB	'_', 00H, 'v', 00H, 'a', 00H, 'l', 00H, '<', 00H, 's', 00H, 't'
	DB	00H, 'r', 00H, 'u', 00H, 'c', 00H, 't', 00H, ' ', 00H, 's', 00H
	DB	't', 00H, 'd', 00H, ':', 00H, ':', 00H, '_', 00H, 'S', 00H, 'i'
	DB	00H, 'm', 00H, 'p', 00H, 'l', 00H, 'e', 00H, '_', 00H, 't', 00H
	DB	'y', 00H, 'p', 00H, 'e', 00H, 's', 00H, '<', 00H, 'c', 00H, 'l'
	DB	00H, 'a', 00H, 's', 00H, 's', 00H, ' ', 00H, 's', 00H, 't', 00H
	DB	'd', 00H, ':', 00H, ':', 00H, 's', 00H, 'h', 00H, 'a', 00H, 'r'
	DB	00H, 'e', 00H, 'd', 00H, '_', 00H, 'p', 00H, 't', 00H, 'r', 00H
	DB	'<', 00H, 'c', 00H, 'l', 00H, 'a', 00H, 's', 00H, 's', 00H, ' '
	DB	00H, 'C', 00H, 'e', 00H, 'l', 00H, 'l', 00H, '>', 00H, ' ', 00H
	DB	'>', 00H, ' ', 00H, '>', 00H, ' ', 00H, '>', 00H, ':', 00H, ':'
	DB	00H, '_', 00H, 'C', 00H, 'o', 00H, 'm', 00H, 'p', 00H, 'a', 00H
	DB	't', 00H, 00H, 00H				; `string'
CONST	ENDS
;	COMDAT ??_C@_1FO@GJIHNDLM@?$AA?$CC?$AAS?$AAt?$AAa?$AAn?$AAd?$AAa?$AAr?$AAd?$AA?5?$AAC?$AA?$CL?$AA?$CL?$AA?5?$AAL?$AAi?$AAb?$AAr?$AAa?$AAr?$AAi?$AAe?$AAs?$AA?5?$AAI?$AAn?$AAv?$AAa?$AAl?$AAi?$AAd?$AA?5@
CONST	SEGMENT
??_C@_1FO@GJIHNDLM@?$AA?$CC?$AAS?$AAt?$AAa?$AAn?$AAd?$AAa?$AAr?$AAd?$AA?5?$AAC?$AA?$CL?$AA?$CL?$AA?5?$AAL?$AAi?$AAb?$AAr?$AAa?$AAr?$AAi?$AAe?$AAs?$AA?5?$AAI?$AAn?$AAv?$AAa?$AAl?$AAi?$AAd?$AA?5@ DB '"'
	DB	00H, 'S', 00H, 't', 00H, 'a', 00H, 'n', 00H, 'd', 00H, 'a', 00H
	DB	'r', 00H, 'd', 00H, ' ', 00H, 'C', 00H, '+', 00H, '+', 00H, ' '
	DB	00H, 'L', 00H, 'i', 00H, 'b', 00H, 'r', 00H, 'a', 00H, 'r', 00H
	DB	'i', 00H, 'e', 00H, 's', 00H, ' ', 00H, 'I', 00H, 'n', 00H, 'v'
	DB	00H, 'a', 00H, 'l', 00H, 'i', 00H, 'd', 00H, ' ', 00H, 'A', 00H
	DB	'r', 00H, 'g', 00H, 'u', 00H, 'm', 00H, 'e', 00H, 'n', 00H, 't'
	DB	00H, '"', 00H, ' ', 00H, '&', 00H, '&', 00H, ' ', 00H, '0', 00H
	DB	00H, 00H					; `string'
CONST	ENDS
;	COMDAT ??_C@_0CI@FNPHFCCM@Standard?5C?$CL?$CL?5Libraries?5Invalid?5A@
CONST	SEGMENT
??_C@_0CI@FNPHFCCM@Standard?5C?$CL?$CL?5Libraries?5Invalid?5A@ DB 'Standa'
	DB	'rd C++ Libraries Invalid Argument', 00H	; `string'
CONST	ENDS
;	COMDAT ??_C@_1DM@HINDPMBP@?$AAv?$AAe?$AAc?$AAt?$AAo?$AAr?$AA?5?$AAi?$AAt?$AAe?$AAr?$AAa?$AAt?$AAo?$AAr?$AAs?$AA?5?$AAi?$AAn?$AAc?$AAo?$AAm?$AAp?$AAa?$AAt?$AAi?$AAb?$AAl?$AAe?$AA?$AA@
CONST	SEGMENT
??_C@_1DM@HINDPMBP@?$AAv?$AAe?$AAc?$AAt?$AAo?$AAr?$AA?5?$AAi?$AAt?$AAe?$AAr?$AAa?$AAt?$AAo?$AAr?$AAs?$AA?5?$AAi?$AAn?$AAc?$AAo?$AAm?$AAp?$AAa?$AAt?$AAi?$AAb?$AAl?$AAe?$AA?$AA@ DB 'v'
	DB	00H, 'e', 00H, 'c', 00H, 't', 00H, 'o', 00H, 'r', 00H, ' ', 00H
	DB	'i', 00H, 't', 00H, 'e', 00H, 'r', 00H, 'a', 00H, 't', 00H, 'o'
	DB	00H, 'r', 00H, 's', 00H, ' ', 00H, 'i', 00H, 'n', 00H, 'c', 00H
	DB	'o', 00H, 'm', 00H, 'p', 00H, 'a', 00H, 't', 00H, 'i', 00H, 'b'
	DB	00H, 'l', 00H, 'e', 00H, 00H, 00H		; `string'
CONST	ENDS
;	COMDAT ??_C@_1BAC@OKHFOCDP@?$AAs?$AAt?$AAd?$AA?3?$AA?3?$AA_?$AAV?$AAe?$AAc?$AAt?$AAo?$AAr?$AA_?$AAc?$AAo?$AAn?$AAs?$AAt?$AA_?$AAi?$AAt?$AAe?$AAr?$AAa?$AAt?$AAo?$AAr?$AA?$DM?$AAc?$AAl?$AAa?$AAs@
CONST	SEGMENT
??_C@_1BAC@OKHFOCDP@?$AAs?$AAt?$AAd?$AA?3?$AA?3?$AA_?$AAV?$AAe?$AAc?$AAt?$AAo?$AAr?$AA_?$AAc?$AAo?$AAn?$AAs?$AAt?$AA_?$AAi?$AAt?$AAe?$AAr?$AAa?$AAt?$AAo?$AAr?$AA?$DM?$AAc?$AAl?$AAa?$AAs@ DB 's'
	DB	00H, 't', 00H, 'd', 00H, ':', 00H, ':', 00H, '_', 00H, 'V', 00H
	DB	'e', 00H, 'c', 00H, 't', 00H, 'o', 00H, 'r', 00H, '_', 00H, 'c'
	DB	00H, 'o', 00H, 'n', 00H, 's', 00H, 't', 00H, '_', 00H, 'i', 00H
	DB	't', 00H, 'e', 00H, 'r', 00H, 'a', 00H, 't', 00H, 'o', 00H, 'r'
	DB	00H, '<', 00H, 'c', 00H, 'l', 00H, 'a', 00H, 's', 00H, 's', 00H
	DB	' ', 00H, 's', 00H, 't', 00H, 'd', 00H, ':', 00H, ':', 00H, '_'
	DB	00H, 'V', 00H, 'e', 00H, 'c', 00H, 't', 00H, 'o', 00H, 'r', 00H
	DB	'_', 00H, 'v', 00H, 'a', 00H, 'l', 00H, '<', 00H, 's', 00H, 't'
	DB	00H, 'r', 00H, 'u', 00H, 'c', 00H, 't', 00H, ' ', 00H, 's', 00H
	DB	't', 00H, 'd', 00H, ':', 00H, ':', 00H, '_', 00H, 'S', 00H, 'i'
	DB	00H, 'm', 00H, 'p', 00H, 'l', 00H, 'e', 00H, '_', 00H, 't', 00H
	DB	'y', 00H, 'p', 00H, 'e', 00H, 's', 00H, '<', 00H, 'c', 00H, 'l'
	DB	00H, 'a', 00H, 's', 00H, 's', 00H, ' ', 00H, 's', 00H, 't', 00H
	DB	'd', 00H, ':', 00H, ':', 00H, 's', 00H, 'h', 00H, 'a', 00H, 'r'
	DB	00H, 'e', 00H, 'd', 00H, '_', 00H, 'p', 00H, 't', 00H, 'r', 00H
	DB	'<', 00H, 'c', 00H, 'l', 00H, 'a', 00H, 's', 00H, 's', 00H, ' '
	DB	00H, 'C', 00H, 'e', 00H, 'l', 00H, 'l', 00H, '>', 00H, ' ', 00H
	DB	'>', 00H, ' ', 00H, '>', 00H, ' ', 00H, '>', 00H, ':', 00H, ':'
	DB	00H, 'o', 00H, 'p', 00H, 'e', 00H, 'r', 00H, 'a', 00H, 't', 00H
	DB	'o', 00H, 'r', 00H, ' ', 00H, '*', 00H, 00H, 00H ; `string'
CONST	ENDS
;	COMDAT ??_C@_1EG@FOHJJHAC@?$AAv?$AAe?$AAc?$AAt?$AAo?$AAr?$AA?5?$AAi?$AAt?$AAe?$AAr?$AAa?$AAt?$AAo?$AAr?$AA?5?$AAn?$AAo?$AAt?$AA?5?$AAd?$AAe?$AAr?$AAe?$AAf?$AAe?$AAr?$AAe?$AAn?$AAc?$AAa?$AAb@
CONST	SEGMENT
??_C@_1EG@FOHJJHAC@?$AAv?$AAe?$AAc?$AAt?$AAo?$AAr?$AA?5?$AAi?$AAt?$AAe?$AAr?$AAa?$AAt?$AAo?$AAr?$AA?5?$AAn?$AAo?$AAt?$AA?5?$AAd?$AAe?$AAr?$AAe?$AAf?$AAe?$AAr?$AAe?$AAn?$AAc?$AAa?$AAb@ DB 'v'
	DB	00H, 'e', 00H, 'c', 00H, 't', 00H, 'o', 00H, 'r', 00H, ' ', 00H
	DB	'i', 00H, 't', 00H, 'e', 00H, 'r', 00H, 'a', 00H, 't', 00H, 'o'
	DB	00H, 'r', 00H, ' ', 00H, 'n', 00H, 'o', 00H, 't', 00H, ' ', 00H
	DB	'd', 00H, 'e', 00H, 'r', 00H, 'e', 00H, 'f', 00H, 'e', 00H, 'r'
	DB	00H, 'e', 00H, 'n', 00H, 'c', 00H, 'a', 00H, 'b', 00H, 'l', 00H
	DB	'e', 00H, 00H, 00H				; `string'
CONST	ENDS
;	COMDAT ??_C@_1BAE@KKLFLIIH@?$AAs?$AAt?$AAd?$AA?3?$AA?3?$AA_?$AAV?$AAe?$AAc?$AAt?$AAo?$AAr?$AA_?$AAc?$AAo?$AAn?$AAs?$AAt?$AA_?$AAi?$AAt?$AAe?$AAr?$AAa?$AAt?$AAo?$AAr?$AA?$DM?$AAc?$AAl?$AAa?$AAs@
CONST	SEGMENT
??_C@_1BAE@KKLFLIIH@?$AAs?$AAt?$AAd?$AA?3?$AA?3?$AA_?$AAV?$AAe?$AAc?$AAt?$AAo?$AAr?$AA_?$AAc?$AAo?$AAn?$AAs?$AAt?$AA_?$AAi?$AAt?$AAe?$AAr?$AAa?$AAt?$AAo?$AAr?$AA?$DM?$AAc?$AAl?$AAa?$AAs@ DB 's'
	DB	00H, 't', 00H, 'd', 00H, ':', 00H, ':', 00H, '_', 00H, 'V', 00H
	DB	'e', 00H, 'c', 00H, 't', 00H, 'o', 00H, 'r', 00H, '_', 00H, 'c'
	DB	00H, 'o', 00H, 'n', 00H, 's', 00H, 't', 00H, '_', 00H, 'i', 00H
	DB	't', 00H, 'e', 00H, 'r', 00H, 'a', 00H, 't', 00H, 'o', 00H, 'r'
	DB	00H, '<', 00H, 'c', 00H, 'l', 00H, 'a', 00H, 's', 00H, 's', 00H
	DB	' ', 00H, 's', 00H, 't', 00H, 'd', 00H, ':', 00H, ':', 00H, '_'
	DB	00H, 'V', 00H, 'e', 00H, 'c', 00H, 't', 00H, 'o', 00H, 'r', 00H
	DB	'_', 00H, 'v', 00H, 'a', 00H, 'l', 00H, '<', 00H, 's', 00H, 't'
	DB	00H, 'r', 00H, 'u', 00H, 'c', 00H, 't', 00H, ' ', 00H, 's', 00H
	DB	't', 00H, 'd', 00H, ':', 00H, ':', 00H, '_', 00H, 'S', 00H, 'i'
	DB	00H, 'm', 00H, 'p', 00H, 'l', 00H, 'e', 00H, '_', 00H, 't', 00H
	DB	'y', 00H, 'p', 00H, 'e', 00H, 's', 00H, '<', 00H, 'c', 00H, 'l'
	DB	00H, 'a', 00H, 's', 00H, 's', 00H, ' ', 00H, 's', 00H, 't', 00H
	DB	'd', 00H, ':', 00H, ':', 00H, 's', 00H, 'h', 00H, 'a', 00H, 'r'
	DB	00H, 'e', 00H, 'd', 00H, '_', 00H, 'p', 00H, 't', 00H, 'r', 00H
	DB	'<', 00H, 'c', 00H, 'l', 00H, 'a', 00H, 's', 00H, 's', 00H, ' '
	DB	00H, 'C', 00H, 'e', 00H, 'l', 00H, 'l', 00H, '>', 00H, ' ', 00H
	DB	'>', 00H, ' ', 00H, '>', 00H, ' ', 00H, '>', 00H, ':', 00H, ':'
	DB	00H, 'o', 00H, 'p', 00H, 'e', 00H, 'r', 00H, 'a', 00H, 't', 00H
	DB	'o', 00H, 'r', 00H, ' ', 00H, '+', 00H, '+', 00H, 00H, 00H ; `string'
CONST	ENDS
;	COMDAT ??_C@_1EE@EJDKCLKB@?$AAv?$AAe?$AAc?$AAt?$AAo?$AAr?$AA?5?$AAi?$AAt?$AAe?$AAr?$AAa?$AAt?$AAo?$AAr?$AA?5?$AAn?$AAo?$AAt?$AA?5?$AAi?$AAn?$AAc?$AAr?$AAe?$AAm?$AAe?$AAn?$AAt?$AAa?$AAb?$AAl@
CONST	SEGMENT
??_C@_1EE@EJDKCLKB@?$AAv?$AAe?$AAc?$AAt?$AAo?$AAr?$AA?5?$AAi?$AAt?$AAe?$AAr?$AAa?$AAt?$AAo?$AAr?$AA?5?$AAn?$AAo?$AAt?$AA?5?$AAi?$AAn?$AAc?$AAr?$AAe?$AAm?$AAe?$AAn?$AAt?$AAa?$AAb?$AAl@ DB 'v'
	DB	00H, 'e', 00H, 'c', 00H, 't', 00H, 'o', 00H, 'r', 00H, ' ', 00H
	DB	'i', 00H, 't', 00H, 'e', 00H, 'r', 00H, 'a', 00H, 't', 00H, 'o'
	DB	00H, 'r', 00H, ' ', 00H, 'n', 00H, 'o', 00H, 't', 00H, ' ', 00H
	DB	'i', 00H, 'n', 00H, 'c', 00H, 'r', 00H, 'e', 00H, 'm', 00H, 'e'
	DB	00H, 'n', 00H, 't', 00H, 'a', 00H, 'b', 00H, 'l', 00H, 'e', 00H
	DB	00H, 00H					; `string'
CONST	ENDS
;	COMDAT ??_C@_1BO@MEPPHOO@?$AA?$CC?$AAo?$AAu?$AAt?$AA?5?$AAo?$AAf?$AA?5?$AAr?$AAa?$AAn?$AAg?$AAe?$AA?$CC?$AA?$AA@
CONST	SEGMENT
??_C@_1BO@MEPPHOO@?$AA?$CC?$AAo?$AAu?$AAt?$AA?5?$AAo?$AAf?$AA?5?$AAr?$AAa?$AAn?$AAg?$AAe?$AA?$CC?$AA?$AA@ DB '"'
	DB	00H, 'o', 00H, 'u', 00H, 't', 00H, ' ', 00H, 'o', 00H, 'f', 00H
	DB	' ', 00H, 'r', 00H, 'a', 00H, 'n', 00H, 'g', 00H, 'e', 00H, '"'
	DB	00H, 00H, 00H				; `string'
CONST	ENDS
;	COMDAT ??_C@_1CCA@OOOAEGID@?$AAs?$AAt?$AAd?$AA?3?$AA?3?$AAv?$AAe?$AAc?$AAt?$AAo?$AAr?$AA?$DM?$AAc?$AAl?$AAa?$AAs?$AAs?$AA?5?$AAs?$AAt?$AAd?$AA?3?$AA?3?$AAv?$AAe?$AAc?$AAt?$AAo?$AAr?$AA?$DM?$AAc?$AAl@
CONST	SEGMENT
??_C@_1CCA@OOOAEGID@?$AAs?$AAt?$AAd?$AA?3?$AA?3?$AAv?$AAe?$AAc?$AAt?$AAo?$AAr?$AA?$DM?$AAc?$AAl?$AAa?$AAs?$AAs?$AA?5?$AAs?$AAt?$AAd?$AA?3?$AA?3?$AAv?$AAe?$AAc?$AAt?$AAo?$AAr?$AA?$DM?$AAc?$AAl@ DB 's'
	DB	00H, 't', 00H, 'd', 00H, ':', 00H, ':', 00H, 'v', 00H, 'e', 00H
	DB	'c', 00H, 't', 00H, 'o', 00H, 'r', 00H, '<', 00H, 'c', 00H, 'l'
	DB	00H, 'a', 00H, 's', 00H, 's', 00H, ' ', 00H, 's', 00H, 't', 00H
	DB	'd', 00H, ':', 00H, ':', 00H, 'v', 00H, 'e', 00H, 'c', 00H, 't'
	DB	00H, 'o', 00H, 'r', 00H, '<', 00H, 'c', 00H, 'l', 00H, 'a', 00H
	DB	's', 00H, 's', 00H, ' ', 00H, 's', 00H, 't', 00H, 'd', 00H, ':'
	DB	00H, ':', 00H, 's', 00H, 'h', 00H, 'a', 00H, 'r', 00H, 'e', 00H
	DB	'd', 00H, '_', 00H, 'p', 00H, 't', 00H, 'r', 00H, '<', 00H, 'c'
	DB	00H, 'l', 00H, 'a', 00H, 's', 00H, 's', 00H, ' ', 00H, 'C', 00H
	DB	'e', 00H, 'l', 00H, 'l', 00H, '>', 00H, ',', 00H, 'c', 00H, 'l'
	DB	00H, 'a', 00H, 's', 00H, 's', 00H, ' ', 00H, 's', 00H, 't', 00H
	DB	'd', 00H, ':', 00H, ':', 00H, 'a', 00H, 'l', 00H, 'l', 00H, 'o'
	DB	00H, 'c', 00H, 'a', 00H, 't', 00H, 'o', 00H, 'r', 00H, '<', 00H
	DB	'c', 00H, 'l', 00H, 'a', 00H, 's', 00H, 's', 00H, ' ', 00H, 's'
	DB	00H, 't', 00H, 'd', 00H, ':', 00H, ':', 00H, 's', 00H, 'h', 00H
	DB	'a', 00H, 'r', 00H, 'e', 00H, 'd', 00H, '_', 00H, 'p', 00H, 't'
	DB	00H, 'r', 00H, '<', 00H, 'c', 00H, 'l', 00H, 'a', 00H, 's', 00H
	DB	's', 00H, ' ', 00H, 'C', 00H, 'e', 00H, 'l', 00H, 'l', 00H, '>'
	DB	00H, ' ', 00H, '>', 00H, ' ', 00H, '>', 00H, ',', 00H, 'c', 00H
	DB	'l', 00H, 'a', 00H, 's', 00H, 's', 00H, ' ', 00H, 's', 00H, 't'
	DB	00H, 'd', 00H, ':', 00H, ':', 00H, 'a', 00H, 'l', 00H, 'l', 00H
	DB	'o', 00H, 'c', 00H, 'a', 00H, 't', 00H, 'o', 00H, 'r', 00H, '<'
	DB	00H, 'c', 00H, 'l', 00H, 'a', 00H, 's', 00H, 's', 00H, ' ', 00H
	DB	's', 00H, 't', 00H, 'd', 00H, ':', 00H, ':', 00H, 'v', 00H, 'e'
	DB	00H, 'c', 00H, 't', 00H, 'o', 00H, 'r', 00H, '<', 00H, 'c', 00H
	DB	'l', 00H, 'a', 00H, 's', 00H, 's', 00H, ' ', 00H, 's', 00H, 't'
	DB	00H, 'd', 00H, ':', 00H, ':', 00H, 's', 00H, 'h', 00H, 'a', 00H
	DB	'r', 00H, 'e', 00H, 'd', 00H, '_', 00H, 'p', 00H, 't', 00H, 'r'
	DB	00H, '<', 00H, 'c', 00H, 'l', 00H, 'a', 00H, 's', 00H, 's', 00H
	DB	' ', 00H, 'C', 00H, 'e', 00H, 'l', 00H, 'l', 00H, '>', 00H, ','
	DB	00H, 'c', 00H, 'l', 00H, 'a', 00H, 's', 00H, 's', 00H, ' ', 00H
	DB	's', 00H, 't', 00H, 'd', 00H, ':', 00H, ':', 00H, 'a', 00H, 'l'
	DB	00H, 'l', 00H, 'o', 00H, 'c', 00H, 'a', 00H, 't', 00H, 'o', 00H
	DB	'r', 00H, '<', 00H, 'c', 00H, 'l', 00H, 'a', 00H, 's', 00H, 's'
	DB	00H, ' ', 00H, 's', 00H, 't', 00H, 'd', 00H, ':', 00H, ':', 00H
	DB	's', 00H, 'h', 00H, 'a', 00H, 'r', 00H, 'e', 00H, 'd', 00H, '_'
	DB	00H, 'p', 00H, 't', 00H, 'r', 00H, '<', 00H, 'c', 00H, 'l', 00H
	DB	'a', 00H, 's', 00H, 's', 00H, ' ', 00H, 'C', 00H, 'e', 00H, 'l'
	DB	00H, 'l', 00H, '>', 00H, ' ', 00H, '>', 00H, ' ', 00H, '>', 00H
	DB	' ', 00H, '>', 00H, ' ', 00H, '>', 00H, ':', 00H, ':', 00H, 'o'
	DB	00H, 'p', 00H, 'e', 00H, 'r', 00H, 'a', 00H, 't', 00H, 'o', 00H
	DB	'r', 00H, ' ', 00H, '[', 00H, ']', 00H, 00H, 00H ; `string'
CONST	ENDS
;	COMDAT ??_C@_1FG@IBPIFFN@?$AA?$CC?$AAS?$AAt?$AAa?$AAn?$AAd?$AAa?$AAr?$AAd?$AA?5?$AAC?$AA?$CL?$AA?$CL?$AA?5?$AAL?$AAi?$AAb?$AAr?$AAa?$AAr?$AAi?$AAe?$AAs?$AA?5?$AAO?$AAu?$AAt?$AA?5?$AAo?$AAf?$AA?5?$AAR@
CONST	SEGMENT
??_C@_1FG@IBPIFFN@?$AA?$CC?$AAS?$AAt?$AAa?$AAn?$AAd?$AAa?$AAr?$AAd?$AA?5?$AAC?$AA?$CL?$AA?$CL?$AA?5?$AAL?$AAi?$AAb?$AAr?$AAa?$AAr?$AAi?$AAe?$AAs?$AA?5?$AAO?$AAu?$AAt?$AA?5?$AAo?$AAf?$AA?5?$AAR@ DB '"'
	DB	00H, 'S', 00H, 't', 00H, 'a', 00H, 'n', 00H, 'd', 00H, 'a', 00H
	DB	'r', 00H, 'd', 00H, ' ', 00H, 'C', 00H, '+', 00H, '+', 00H, ' '
	DB	00H, 'L', 00H, 'i', 00H, 'b', 00H, 'r', 00H, 'a', 00H, 'r', 00H
	DB	'i', 00H, 'e', 00H, 's', 00H, ' ', 00H, 'O', 00H, 'u', 00H, 't'
	DB	00H, ' ', 00H, 'o', 00H, 'f', 00H, ' ', 00H, 'R', 00H, 'a', 00H
	DB	'n', 00H, 'g', 00H, 'e', 00H, '"', 00H, ' ', 00H, '&', 00H, '&'
	DB	00H, ' ', 00H, '0', 00H, 00H, 00H		; `string'
CONST	ENDS
;	COMDAT ??_C@_0CE@OFMIGAMM@Standard?5C?$CL?$CL?5Libraries?5Out?5of?5Ra@
CONST	SEGMENT
??_C@_0CE@OFMIGAMM@Standard?5C?$CL?$CL?5Libraries?5Out?5of?5Ra@ DB 'Stand'
	DB	'ard C++ Libraries Out of Range', 00H	; `string'
CONST	ENDS
;	COMDAT ??_C@_1DM@LHGCHCBA@?$AAv?$AAe?$AAc?$AAt?$AAo?$AAr?$AA?5?$AAs?$AAu?$AAb?$AAs?$AAc?$AAr?$AAi?$AAp?$AAt?$AA?5?$AAo?$AAu?$AAt?$AA?5?$AAo?$AAf?$AA?5?$AAr?$AAa?$AAn?$AAg?$AAe?$AA?$AA@
CONST	SEGMENT
??_C@_1DM@LHGCHCBA@?$AAv?$AAe?$AAc?$AAt?$AAo?$AAr?$AA?5?$AAs?$AAu?$AAb?$AAs?$AAc?$AAr?$AAi?$AAp?$AAt?$AA?5?$AAo?$AAu?$AAt?$AA?5?$AAo?$AAf?$AA?5?$AAr?$AAa?$AAn?$AAg?$AAe?$AA?$AA@ DB 'v'
	DB	00H, 'e', 00H, 'c', 00H, 't', 00H, 'o', 00H, 'r', 00H, ' ', 00H
	DB	's', 00H, 'u', 00H, 'b', 00H, 's', 00H, 'c', 00H, 'r', 00H, 'i'
	DB	00H, 'p', 00H, 't', 00H, ' ', 00H, 'o', 00H, 'u', 00H, 't', 00H
	DB	' ', 00H, 'o', 00H, 'f', 00H, ' ', 00H, 'r', 00H, 'a', 00H, 'n'
	DB	00H, 'g', 00H, 'e', 00H, 00H, 00H		; `string'
CONST	ENDS
;	COMDAT ??_C@_1IM@NCODKBJH@?$AAc?$AA?3?$AA?2?$AAp?$AAr?$AAo?$AAg?$AAr?$AAa?$AAm?$AA?5?$AAf?$AAi?$AAl?$AAe?$AAs?$AA?5?$AA?$CI?$AAx?$AA8?$AA6?$AA?$CJ?$AA?2?$AAm?$AAi?$AAc?$AAr?$AAo?$AAs?$AAo?$AAf?$AAt@
CONST	SEGMENT
??_C@_1IM@NCODKBJH@?$AAc?$AA?3?$AA?2?$AAp?$AAr?$AAo?$AAg?$AAr?$AAa?$AAm?$AA?5?$AAf?$AAi?$AAl?$AAe?$AAs?$AA?5?$AA?$CI?$AAx?$AA8?$AA6?$AA?$CJ?$AA?2?$AAm?$AAi?$AAc?$AAr?$AAo?$AAs?$AAo?$AAf?$AAt@ DB 'c'
	DB	00H, ':', 00H, '\', 00H, 'p', 00H, 'r', 00H, 'o', 00H, 'g', 00H
	DB	'r', 00H, 'a', 00H, 'm', 00H, ' ', 00H, 'f', 00H, 'i', 00H, 'l'
	DB	00H, 'e', 00H, 's', 00H, ' ', 00H, '(', 00H, 'x', 00H, '8', 00H
	DB	'6', 00H, ')', 00H, '\', 00H, 'm', 00H, 'i', 00H, 'c', 00H, 'r'
	DB	00H, 'o', 00H, 's', 00H, 'o', 00H, 'f', 00H, 't', 00H, ' ', 00H
	DB	'v', 00H, 'i', 00H, 's', 00H, 'u', 00H, 'a', 00H, 'l', 00H, ' '
	DB	00H, 's', 00H, 't', 00H, 'u', 00H, 'd', 00H, 'i', 00H, 'o', 00H
	DB	' ', 00H, '1', 00H, '4', 00H, '.', 00H, '0', 00H, '\', 00H, 'v'
	DB	00H, 'c', 00H, '\', 00H, 'i', 00H, 'n', 00H, 'c', 00H, 'l', 00H
	DB	'u', 00H, 'd', 00H, 'e', 00H, '\', 00H, 'v', 00H, 'e', 00H, 'c'
	DB	00H, 't', 00H, 'o', 00H, 'r', 00H, 00H, 00H	; `string'
CONST	ENDS
;	COMDAT ??_C@_1CG@JNLFBNGN@?$AA?$CC?$AAi?$AAn?$AAv?$AAa?$AAl?$AAi?$AAd?$AA?5?$AAa?$AAr?$AAg?$AAu?$AAm?$AAe?$AAn?$AAt?$AA?$CC?$AA?$AA@
CONST	SEGMENT
??_C@_1CG@JNLFBNGN@?$AA?$CC?$AAi?$AAn?$AAv?$AAa?$AAl?$AAi?$AAd?$AA?5?$AAa?$AAr?$AAg?$AAu?$AAm?$AAe?$AAn?$AAt?$AA?$CC?$AA?$AA@ DB '"'
	DB	00H, 'i', 00H, 'n', 00H, 'v', 00H, 'a', 00H, 'l', 00H, 'i', 00H
	DB	'd', 00H, ' ', 00H, 'a', 00H, 'r', 00H, 'g', 00H, 'u', 00H, 'm'
	DB	00H, 'e', 00H, 'n', 00H, 't', 00H, '"', 00H, 00H, 00H ; `string'
CONST	ENDS
;	COMDAT ??_C@_17CNPHIMPH@?$AA?$CF?$AAl?$AAs?$AA?$AA@
CONST	SEGMENT
??_C@_17CNPHIMPH@?$AA?$CF?$AAl?$AAs?$AA?$AA@ DB '%', 00H, 'l', 00H, 's', 00H
	DB	00H, 00H					; `string'
CONST	ENDS
;	COMDAT ??_C@_1DC@POOIKBAO@?$AAI?$AAT?$AAE?$AAR?$AAA?$AAT?$AAO?$AAR?$AA?5?$AAL?$AAI?$AAS?$AAT?$AA?5?$AAC?$AAO?$AAR?$AAR?$AAU?$AAP?$AAT?$AAE?$AAD?$AA?$CB?$AA?$AA@
CONST	SEGMENT
??_C@_1DC@POOIKBAO@?$AAI?$AAT?$AAE?$AAR?$AAA?$AAT?$AAO?$AAR?$AA?5?$AAL?$AAI?$AAS?$AAT?$AA?5?$AAC?$AAO?$AAR?$AAR?$AAU?$AAP?$AAT?$AAE?$AAD?$AA?$CB?$AA?$AA@ DB 'I'
	DB	00H, 'T', 00H, 'E', 00H, 'R', 00H, 'A', 00H, 'T', 00H, 'O', 00H
	DB	'R', 00H, ' ', 00H, 'L', 00H, 'I', 00H, 'S', 00H, 'T', 00H, ' '
	DB	00H, 'C', 00H, 'O', 00H, 'R', 00H, 'R', 00H, 'U', 00H, 'P', 00H
	DB	'T', 00H, 'E', 00H, 'D', 00H, '!', 00H, 00H, 00H ; `string'
CONST	ENDS
;	COMDAT ??_C@_1JA@MHADJNIL@?$AAc?$AA?3?$AA?2?$AAp?$AAr?$AAo?$AAg?$AAr?$AAa?$AAm?$AA?5?$AAf?$AAi?$AAl?$AAe?$AAs?$AA?5?$AA?$CI?$AAx?$AA8?$AA6?$AA?$CJ?$AA?2?$AAm?$AAi?$AAc?$AAr?$AAo?$AAs?$AAo?$AAf?$AAt@
CONST	SEGMENT
??_C@_1JA@MHADJNIL@?$AAc?$AA?3?$AA?2?$AAp?$AAr?$AAo?$AAg?$AAr?$AAa?$AAm?$AA?5?$AAf?$AAi?$AAl?$AAe?$AAs?$AA?5?$AA?$CI?$AAx?$AA8?$AA6?$AA?$CJ?$AA?2?$AAm?$AAi?$AAc?$AAr?$AAo?$AAs?$AAo?$AAf?$AAt@ DB 'c'
	DB	00H, ':', 00H, '\', 00H, 'p', 00H, 'r', 00H, 'o', 00H, 'g', 00H
	DB	'r', 00H, 'a', 00H, 'm', 00H, ' ', 00H, 'f', 00H, 'i', 00H, 'l'
	DB	00H, 'e', 00H, 's', 00H, ' ', 00H, '(', 00H, 'x', 00H, '8', 00H
	DB	'6', 00H, ')', 00H, '\', 00H, 'm', 00H, 'i', 00H, 'c', 00H, 'r'
	DB	00H, 'o', 00H, 's', 00H, 'o', 00H, 'f', 00H, 't', 00H, ' ', 00H
	DB	'v', 00H, 'i', 00H, 's', 00H, 'u', 00H, 'a', 00H, 'l', 00H, ' '
	DB	00H, 's', 00H, 't', 00H, 'u', 00H, 'd', 00H, 'i', 00H, 'o', 00H
	DB	' ', 00H, '1', 00H, '4', 00H, '.', 00H, '0', 00H, '\', 00H, 'v'
	DB	00H, 'c', 00H, '\', 00H, 'i', 00H, 'n', 00H, 'c', 00H, 'l', 00H
	DB	'u', 00H, 'd', 00H, 'e', 00H, '\', 00H, 'x', 00H, 'u', 00H, 't'
	DB	00H, 'i', 00H, 'l', 00H, 'i', 00H, 't', 00H, 'y', 00H, 00H, 00H ; `string'
CONST	ENDS
;	COMDAT xdata
xdata	SEGMENT
$unwind$??$_Reset@VCell@@@?$_Ptr_base@VCell@@@std@@QEAAXAEBV01@@Z DD 025031401H
	DD	0b20f2314H
	DD	0500bH
xdata	ENDS
;	COMDAT xdata
xdata	SEGMENT
$unwind$??$?8VCell@@V0@@std@@YA_NAEBV?$shared_ptr@VCell@@@0@0@Z DD 025031401H
	DD	0d20f2314H
	DD	0500bH
xdata	ENDS
;	COMDAT xdata
xdata	SEGMENT
$unwind$?__autoclassinit2@?$_Vector_iterator@V?$_Vector_val@U?$_Simple_types@V?$shared_ptr@VCell@@@std@@@std@@@std@@@std@@QEAAX_K@Z DD 05041301H
	DD	082100313H
	DD	0500b700cH
xdata	ENDS
;	COMDAT xdata
xdata	SEGMENT
$unwind$??1?$_Vector_iterator@V?$_Vector_val@U?$_Simple_types@V?$shared_ptr@VCell@@@std@@@std@@@std@@@std@@QEAA@XZ DD 025030f01H
	DD	0b20a230fH
	DD	05006H
xdata	ENDS
;	COMDAT xdata
xdata	SEGMENT
$unwind$??E?$_Vector_iterator@V?$_Vector_val@U?$_Simple_types@V?$shared_ptr@VCell@@@std@@@std@@@std@@@std@@QEAAAEAV01@XZ DD 025030f01H
	DD	0b20a230fH
	DD	05006H
xdata	ENDS
;	COMDAT xdata
xdata	SEGMENT
$unwind$??D?$_Vector_iterator@V?$_Vector_val@U?$_Simple_types@V?$shared_ptr@VCell@@@std@@@std@@@std@@@std@@QEBAAEAV?$shared_ptr@VCell@@@1@XZ DD 025030f01H
	DD	0b20a230fH
	DD	05006H
xdata	ENDS
;	COMDAT xdata
xdata	SEGMENT
$unwind$??0?$_Vector_iterator@V?$_Vector_val@U?$_Simple_types@V?$shared_ptr@VCell@@@std@@@std@@@std@@@std@@QEAA@PEAV?$shared_ptr@VCell@@@1@PEBU_Container_base12@1@@Z DD 025031901H
	DD	0b2142319H
	DD	05010H
xdata	ENDS
;	COMDAT xdata
xdata	SEGMENT
$unwind$??1?$_Vector_const_iterator@V?$_Vector_val@U?$_Simple_types@V?$shared_ptr@VCell@@@std@@@std@@@std@@@std@@QEAA@XZ DD 025030f01H
	DD	0b20a230fH
	DD	05006H
xdata	ENDS
;	COMDAT xdata
xdata	SEGMENT
$unwind$?_Compat@?$_Vector_const_iterator@V?$_Vector_val@U?$_Simple_types@V?$shared_ptr@VCell@@@std@@@std@@@std@@@std@@QEBAXAEBV12@@Z DD 035031701H
	DD	0f2123317H
	DD	0500bH
xdata	ENDS
;	COMDAT xdata
xdata	SEGMENT
$unwind$??9?$_Vector_const_iterator@V?$_Vector_val@U?$_Simple_types@V?$shared_ptr@VCell@@@std@@@std@@@std@@@std@@QEBA_NAEBV01@@Z DD 025031401H
	DD	0d20f2314H
	DD	0500bH
xdata	ENDS
;	COMDAT xdata
xdata	SEGMENT
$unwind$??8?$_Vector_const_iterator@V?$_Vector_val@U?$_Simple_types@V?$shared_ptr@VCell@@@std@@@std@@@std@@@std@@QEBA_NAEBV01@@Z DD 025031401H
	DD	0d20f2314H
	DD	0500bH
xdata	ENDS
;	COMDAT xdata
xdata	SEGMENT
$unwind$??E?$_Vector_const_iterator@V?$_Vector_val@U?$_Simple_types@V?$shared_ptr@VCell@@@std@@@std@@@std@@@std@@QEAAAEAV01@XZ DD 035030f01H
	DD	0d20a330fH
	DD	05006H
xdata	ENDS
;	COMDAT xdata
xdata	SEGMENT
$unwind$??D?$_Vector_const_iterator@V?$_Vector_val@U?$_Simple_types@V?$shared_ptr@VCell@@@std@@@std@@@std@@@std@@QEBAAEBV?$shared_ptr@VCell@@@1@XZ DD 035030f01H
	DD	0d20a330fH
	DD	05006H
xdata	ENDS
;	COMDAT xdata
xdata	SEGMENT
$unwind$?dtor$0@?0???0?$_Vector_const_iterator@V?$_Vector_val@U?$_Simple_types@V?$shared_ptr@VCell@@@std@@@std@@@std@@@std@@QEAA@PEAV?$shared_ptr@VCell@@@1@PEBU_Container_base12@1@@Z@4HA DD 020601H
	DD	050023206H
xdata	ENDS
;	COMDAT xdata
xdata	SEGMENT
$ip2state$??0?$_Vector_const_iterator@V?$_Vector_val@U?$_Simple_types@V?$shared_ptr@VCell@@@std@@@std@@@std@@@std@@QEAA@PEAV?$shared_ptr@VCell@@@1@PEBU_Container_base12@1@@Z DD imagerel ??0?$_Vector_const_iterator@V?$_Vector_val@U?$_Simple_types@V?$shared_ptr@VCell@@@std@@@std@@@std@@@std@@QEAA@PEAV?$shared_ptr@VCell@@@1@PEBU_Container_base12@1@@Z
	DD	0ffffffffH
	DD	imagerel ??0?$_Vector_const_iterator@V?$_Vector_val@U?$_Simple_types@V?$shared_ptr@VCell@@@std@@@std@@@std@@@std@@QEAA@PEAV?$shared_ptr@VCell@@@1@PEBU_Container_base12@1@@Z+43
	DD	00H
	DD	imagerel ??0?$_Vector_const_iterator@V?$_Vector_val@U?$_Simple_types@V?$shared_ptr@VCell@@@std@@@std@@@std@@@std@@QEAA@PEAV?$shared_ptr@VCell@@@1@PEBU_Container_base12@1@@Z+69
	DD	0ffffffffH
xdata	ENDS
;	COMDAT xdata
xdata	SEGMENT
$stateUnwindMap$??0?$_Vector_const_iterator@V?$_Vector_val@U?$_Simple_types@V?$shared_ptr@VCell@@@std@@@std@@@std@@@std@@QEAA@PEAV?$shared_ptr@VCell@@@1@PEBU_Container_base12@1@@Z DD 0ffffffffH
	DD	imagerel ?dtor$0@?0???0?$_Vector_const_iterator@V?$_Vector_val@U?$_Simple_types@V?$shared_ptr@VCell@@@std@@@std@@@std@@@std@@QEAA@PEAV?$shared_ptr@VCell@@@1@PEBU_Container_base12@1@@Z@4HA
xdata	ENDS
;	COMDAT CONST
CONST	SEGMENT
$cppxdata$??0?$_Vector_const_iterator@V?$_Vector_val@U?$_Simple_types@V?$shared_ptr@VCell@@@std@@@std@@@std@@@std@@QEAA@PEAV?$shared_ptr@VCell@@@1@PEBU_Container_base12@1@@Z DD 019930522H
	DD	01H
	DD	imagerel $stateUnwindMap$??0?$_Vector_const_iterator@V?$_Vector_val@U?$_Simple_types@V?$shared_ptr@VCell@@@std@@@std@@@std@@@std@@QEAA@PEAV?$shared_ptr@VCell@@@1@PEBU_Container_base12@1@@Z
	DD	00H
	DD	00H
	DD	03H
	DD	imagerel $ip2state$??0?$_Vector_const_iterator@V?$_Vector_val@U?$_Simple_types@V?$shared_ptr@VCell@@@std@@@std@@@std@@@std@@QEAA@PEAV?$shared_ptr@VCell@@@1@PEBU_Container_base12@1@@Z
	DD	060H
	DD	00H
	DD	01H
CONST	ENDS
;	COMDAT xdata
xdata	SEGMENT
$unwind$??0?$_Vector_const_iterator@V?$_Vector_val@U?$_Simple_types@V?$shared_ptr@VCell@@@std@@@std@@@std@@@std@@QEAA@PEAV?$shared_ptr@VCell@@@1@PEBU_Container_base12@1@@Z DD 025032111H
	DD	0d2142319H
	DD	05010H
	DD	imagerel __CxxFrameHandler3
	DD	imagerel $cppxdata$??0?$_Vector_const_iterator@V?$_Vector_val@U?$_Simple_types@V?$shared_ptr@VCell@@@std@@@std@@@std@@@std@@QEAA@PEAV?$shared_ptr@VCell@@@1@PEBU_Container_base12@1@@Z
xdata	ENDS
;	COMDAT xdata
xdata	SEGMENT
$unwind$??1?$_Iterator012@Urandom_access_iterator_tag@std@@V?$shared_ptr@VCell@@@2@_JPEBV32@AEBV32@U_Iterator_base12@2@@std@@QEAA@XZ DD 025030f01H
	DD	0b20a230fH
	DD	05006H
xdata	ENDS
;	COMDAT xdata
xdata	SEGMENT
$unwind$??0?$_Iterator012@Urandom_access_iterator_tag@std@@V?$shared_ptr@VCell@@@2@_JPEBV32@AEBV32@U_Iterator_base12@2@@std@@QEAA@XZ DD 025030f01H
	DD	0b20a230fH
	DD	05006H
xdata	ENDS
;	COMDAT xdata
xdata	SEGMENT
$unwind$?calc_normal@@YAXAEBUCellData@@0PEAN11@Z DD 025032101H
	DD	0f21c2321H
	DD	05015H
xdata	ENDS
;	COMDAT xdata
xdata	SEGMENT
$unwind$?dtor$1@?0??find_dermis@@YA?AV?$shared_ptr@VCell@@@std@@AEBV12@@Z@4HA DD 020601H
	DD	050023206H
xdata	ENDS
;	COMDAT xdata
xdata	SEGMENT
$unwind$?dtor$0@?0??find_dermis@@YA?AV?$shared_ptr@VCell@@@std@@AEBV12@@Z@4HA DD 020601H
	DD	050023206H
xdata	ENDS
;	COMDAT xdata
xdata	SEGMENT
$ip2state$?find_dermis@@YA?AV?$shared_ptr@VCell@@@std@@AEBV12@@Z DD imagerel ?find_dermis@@YA?AV?$shared_ptr@VCell@@@std@@AEBV12@@Z
	DD	0ffffffffH
	DD	imagerel ?find_dermis@@YA?AV?$shared_ptr@VCell@@@std@@AEBV12@@Z+153
	DD	00H
	DD	imagerel ?find_dermis@@YA?AV?$shared_ptr@VCell@@@std@@AEBV12@@Z+181
	DD	01H
	DD	imagerel ?find_dermis@@YA?AV?$shared_ptr@VCell@@@std@@AEBV12@@Z+467
	DD	00H
	DD	imagerel ?find_dermis@@YA?AV?$shared_ptr@VCell@@@std@@AEBV12@@Z+477
	DD	0ffffffffH
xdata	ENDS
;	COMDAT xdata
xdata	SEGMENT
$stateUnwindMap$?find_dermis@@YA?AV?$shared_ptr@VCell@@@std@@AEBV12@@Z DD 0ffffffffH
	DD	imagerel ?dtor$0@?0??find_dermis@@YA?AV?$shared_ptr@VCell@@@std@@AEBV12@@Z@4HA
	DD	00H
	DD	imagerel ?dtor$1@?0??find_dermis@@YA?AV?$shared_ptr@VCell@@@std@@AEBV12@@Z@4HA
xdata	ENDS
;	COMDAT CONST
CONST	SEGMENT
$cppxdata$?find_dermis@@YA?AV?$shared_ptr@VCell@@@std@@AEBV12@@Z DD 019930522H
	DD	02H
	DD	imagerel $stateUnwindMap$?find_dermis@@YA?AV?$shared_ptr@VCell@@@std@@AEBV12@@Z
	DD	00H
	DD	00H
	DD	05H
	DD	imagerel $ip2state$?find_dermis@@YA?AV?$shared_ptr@VCell@@@std@@AEBV12@@Z
	DD	0d8H
	DD	00H
	DD	01H
CONST	ENDS
;	COMDAT xdata
xdata	SEGMENT
$unwind$?find_dermis@@YA?AV?$shared_ptr@VCell@@@std@@AEBV12@@Z DD 035043319H
	DD	01123317H
	DD	0500b0022H
	DD	imagerel __GSHandlerCheck_EH
	DD	imagerel $cppxdata$?find_dermis@@YA?AV?$shared_ptr@VCell@@@std@@AEBV12@@Z
	DD	010aH
xdata	ENDS
;	COMDAT xdata
xdata	SEGMENT
$unwind$?k_lipid@@YANNN@Z DD 025031601H
	DD	0d2112316H
	DD	0500dH
xdata	ENDS
;	COMDAT xdata
xdata	SEGMENT
$unwind$?k_lipid_release@@YANNN@Z DD 025031601H
	DD	0d2112316H
	DD	0500dH
xdata	ENDS
;	COMDAT xdata
xdata	SEGMENT
$unwind$??Rpair_coef@@QEAANAEBV?$shared_ptr@VCell@@@std@@0NNN@Z DD 025031f01H
	DD	0d21a231fH
	DD	05016H
xdata	ENDS
;	COMDAT xdata
xdata	SEGMENT
$unwind$??Rstem_stem_coef@@QEAANAEBV?$shared_ptr@VCell@@@std@@0NNN@Z DD 025042201H
	DD	011d2322H
	DD	050160012H
xdata	ENDS
;	COMDAT xdata
xdata	SEGMENT
$unwind$??Rsupra_others_coef@@QEAANAEBV?$shared_ptr@VCell@@@std@@0NNN@Z DD 025042201H
	DD	011d2322H
	DD	050160012H
xdata	ENDS
;	COMDAT xdata
xdata	SEGMENT
$unwind$??Rder_der_coef@@QEAANAEBV?$shared_ptr@VCell@@@std@@0NNN@Z DD 025042201H
	DD	011d2322H
	DD	05016001aH
xdata	ENDS
;	COMDAT xdata
xdata	SEGMENT
$unwind$??Rcommon_common_coef@@QEAANAEBV?$shared_ptr@VCell@@@std@@0NNN@Z DD 025032201H
	DD	0f21d2322H
	DD	05016H
xdata	ENDS
;	COMDAT xdata
xdata	SEGMENT
$unwind$??Rnull_coef@@QEAANAEBV?$shared_ptr@VCell@@@std@@0NNN@Z DD 05031d01H
	DD	0721a031dH
	DD	05016H
xdata	ENDS
;	COMDAT xdata
xdata	SEGMENT
$unwind$??Rmemb_memb_coef@@QEAANAEBV?$shared_ptr@VCell@@@std@@0NNN@Z DD 025042201H
	DD	011d2322H
	DD	050160018H
xdata	ENDS
;	COMDAT xdata
xdata	SEGMENT
$unwind$?interac_wall@@YAXAEAV?$shared_ptr@VCell@@@std@@@Z DD 025041201H
	DD	010d2312H
	DD	050060014H
xdata	ENDS
;	COMDAT xdata
xdata	SEGMENT
$unwind$?div_direction@Cell@@AEAAXAEBUCellData@@0PEAN11@Z DD 035043219H
	DD	011c3321H
	DD	050150020H
	DD	imagerel __GSHandlerCheck
	DD	0f8H
xdata	ENDS
;	COMDAT xdata
xdata	SEGMENT
$ip2state$?end@?$vector@V?$shared_ptr@VCell@@@std@@V?$allocator@V?$shared_ptr@VCell@@@std@@@2@@std@@QEAA?AV?$_Vector_iterator@V?$_Vector_val@U?$_Simple_types@V?$shared_ptr@VCell@@@std@@@std@@@std@@@2@XZ DD imagerel ?end@?$vector@V?$shared_ptr@VCell@@@std@@V?$allocator@V?$shared_ptr@VCell@@@std@@@2@@std@@QEAA?AV?$_Vector_iterator@V?$_Vector_val@U?$_Simple_types@V?$shared_ptr@VCell@@@std@@@std@@@std@@@2@XZ
	DD	0ffffffffH
xdata	ENDS
;	COMDAT CONST
CONST	SEGMENT
$cppxdata$?end@?$vector@V?$shared_ptr@VCell@@@std@@V?$allocator@V?$shared_ptr@VCell@@@std@@@2@@std@@QEAA?AV?$_Vector_iterator@V?$_Vector_val@U?$_Simple_types@V?$shared_ptr@VCell@@@std@@@std@@@std@@@2@XZ DD 019930522H
	DD	00H
	DD	00H
	DD	00H
	DD	00H
	DD	01H
	DD	imagerel $ip2state$?end@?$vector@V?$shared_ptr@VCell@@@std@@V?$allocator@V?$shared_ptr@VCell@@@std@@@2@@std@@QEAA?AV?$_Vector_iterator@V?$_Vector_val@U?$_Simple_types@V?$shared_ptr@VCell@@@std@@@std@@@std@@@2@XZ
	DD	060H
	DD	00H
	DD	05H
CONST	ENDS
;	COMDAT xdata
xdata	SEGMENT
$unwind$?end@?$vector@V?$shared_ptr@VCell@@@std@@V?$allocator@V?$shared_ptr@VCell@@@std@@@2@@std@@QEAA?AV?$_Vector_iterator@V?$_Vector_val@U?$_Simple_types@V?$shared_ptr@VCell@@@std@@@std@@@std@@@2@XZ DD 025031c19H
	DD	0d20f2314H
	DD	0500bH
	DD	imagerel __CxxFrameHandler3
	DD	imagerel $cppxdata$?end@?$vector@V?$shared_ptr@VCell@@@std@@V?$allocator@V?$shared_ptr@VCell@@@std@@@2@@std@@QEAA?AV?$_Vector_iterator@V?$_Vector_val@U?$_Simple_types@V?$shared_ptr@VCell@@@std@@@std@@@std@@@2@XZ
xdata	ENDS
;	COMDAT xdata
xdata	SEGMENT
$ip2state$?begin@?$vector@V?$shared_ptr@VCell@@@std@@V?$allocator@V?$shared_ptr@VCell@@@std@@@2@@std@@QEAA?AV?$_Vector_iterator@V?$_Vector_val@U?$_Simple_types@V?$shared_ptr@VCell@@@std@@@std@@@std@@@2@XZ DD imagerel ?begin@?$vector@V?$shared_ptr@VCell@@@std@@V?$allocator@V?$shared_ptr@VCell@@@std@@@2@@std@@QEAA?AV?$_Vector_iterator@V?$_Vector_val@U?$_Simple_types@V?$shared_ptr@VCell@@@std@@@std@@@std@@@2@XZ
	DD	0ffffffffH
xdata	ENDS
;	COMDAT CONST
CONST	SEGMENT
$cppxdata$?begin@?$vector@V?$shared_ptr@VCell@@@std@@V?$allocator@V?$shared_ptr@VCell@@@std@@@2@@std@@QEAA?AV?$_Vector_iterator@V?$_Vector_val@U?$_Simple_types@V?$shared_ptr@VCell@@@std@@@std@@@std@@@2@XZ DD 019930522H
	DD	00H
	DD	00H
	DD	00H
	DD	00H
	DD	01H
	DD	imagerel $ip2state$?begin@?$vector@V?$shared_ptr@VCell@@@std@@V?$allocator@V?$shared_ptr@VCell@@@std@@@2@@std@@QEAA?AV?$_Vector_iterator@V?$_Vector_val@U?$_Simple_types@V?$shared_ptr@VCell@@@std@@@std@@@std@@@2@XZ
	DD	060H
	DD	00H
	DD	05H
CONST	ENDS
;	COMDAT xdata
xdata	SEGMENT
$unwind$?begin@?$vector@V?$shared_ptr@VCell@@@std@@V?$allocator@V?$shared_ptr@VCell@@@std@@@2@@std@@QEAA?AV?$_Vector_iterator@V?$_Vector_val@U?$_Simple_types@V?$shared_ptr@VCell@@@std@@@std@@@std@@@2@XZ DD 025031c19H
	DD	0d20f2314H
	DD	0500bH
	DD	imagerel __CxxFrameHandler3
	DD	imagerel $cppxdata$?begin@?$vector@V?$shared_ptr@VCell@@@std@@V?$allocator@V?$shared_ptr@VCell@@@std@@@2@@std@@QEAA?AV?$_Vector_iterator@V?$_Vector_val@U?$_Simple_types@V?$shared_ptr@VCell@@@std@@@std@@@std@@@2@XZ
xdata	ENDS
;	COMDAT xdata
xdata	SEGMENT
$unwind$?_Get_second@?$_Compressed_pair@U?$_Wrap_alloc@V?$allocator@V?$shared_ptr@VCell@@@std@@@std@@@std@@V?$_Vector_val@U?$_Simple_types@V?$shared_ptr@VCell@@@std@@@std@@@2@$00@std@@QEAAAEAV?$_Vector_val@U?$_Simple_types@V?$shared_ptr@VCell@@@std@@@std@@@2@XZ DD 05030d01H
	DD	0720a030dH
	DD	05006H
xdata	ENDS
;	COMDAT xdata
xdata	SEGMENT
$unwind$?_Mylast@?$_Vector_alloc@U?$_Vec_base_types@V?$shared_ptr@VCell@@@std@@V?$allocator@V?$shared_ptr@VCell@@@std@@@2@@std@@@std@@QEAAAEAPEAV?$shared_ptr@VCell@@@2@XZ DD 025030f01H
	DD	0b20a230fH
	DD	05006H
xdata	ENDS
;	COMDAT xdata
xdata	SEGMENT
$unwind$?_Myfirst@?$_Vector_alloc@U?$_Vec_base_types@V?$shared_ptr@VCell@@@std@@V?$allocator@V?$shared_ptr@VCell@@@std@@@2@@std@@@std@@QEAAAEAPEAV?$shared_ptr@VCell@@@2@XZ DD 025030f01H
	DD	0b20a230fH
	DD	05006H
xdata	ENDS
;	COMDAT xdata
xdata	SEGMENT
$unwind$?_Get_data@?$_Vector_alloc@U?$_Vec_base_types@V?$shared_ptr@VCell@@@std@@V?$allocator@V?$shared_ptr@VCell@@@std@@@2@@std@@@std@@QEAAAEAV?$_Vector_val@U?$_Simple_types@V?$shared_ptr@VCell@@@std@@@std@@@2@XZ DD 025030f01H
	DD	0b20a230fH
	DD	05006H
xdata	ENDS
;	COMDAT xdata
xdata	SEGMENT
$unwind$??A?$vector@V?$vector@V?$shared_ptr@VCell@@@std@@V?$allocator@V?$shared_ptr@VCell@@@std@@@2@@std@@V?$allocator@V?$vector@V?$shared_ptr@VCell@@@std@@V?$allocator@V?$shared_ptr@VCell@@@std@@@2@@std@@@2@@std@@QEAAAEAV?$vector@V?$shared_ptr@VCell@@@std@@V?$allocator@V?$shared_ptr@VCell@@@std@@@2@@1@_K@Z DD 035031401H
	DD	0d20f3314H
	DD	0500bH
xdata	ENDS
;	COMDAT xdata
xdata	SEGMENT
$unwind$?size@?$vector@V?$vector@V?$shared_ptr@VCell@@@std@@V?$allocator@V?$shared_ptr@VCell@@@std@@@2@@std@@V?$allocator@V?$vector@V?$shared_ptr@VCell@@@std@@V?$allocator@V?$shared_ptr@VCell@@@std@@@2@@std@@@2@@std@@QEBA_KXZ DD 025030f01H
	DD	0d20a230fH
	DD	05006H
xdata	ENDS
;	COMDAT xdata
xdata	SEGMENT
$unwind$?_Get_second@?$_Compressed_pair@U?$_Wrap_alloc@V?$allocator@V?$vector@V?$shared_ptr@VCell@@@std@@V?$allocator@V?$shared_ptr@VCell@@@std@@@2@@std@@@std@@@std@@V?$_Vector_val@U?$_Simple_types@V?$vector@V?$shared_ptr@VCell@@@std@@V?$allocator@V?$shared_ptr@VCell@@@std@@@2@@std@@@std@@@2@$00@std@@QEBAAEBV?$_Vector_val@U?$_Simple_types@V?$vector@V?$shared_ptr@VCell@@@std@@V?$allocator@V?$shared_ptr@VCell@@@std@@@2@@std@@@std@@@2@XZ DD 05030d01H
	DD	0720a030dH
	DD	05006H
xdata	ENDS
;	COMDAT xdata
xdata	SEGMENT
$unwind$?_Get_second@?$_Compressed_pair@U?$_Wrap_alloc@V?$allocator@V?$vector@V?$shared_ptr@VCell@@@std@@V?$allocator@V?$shared_ptr@VCell@@@std@@@2@@std@@@std@@@std@@V?$_Vector_val@U?$_Simple_types@V?$vector@V?$shared_ptr@VCell@@@std@@V?$allocator@V?$shared_ptr@VCell@@@std@@@2@@std@@@std@@@2@$00@std@@QEAAAEAV?$_Vector_val@U?$_Simple_types@V?$vector@V?$shared_ptr@VCell@@@std@@V?$allocator@V?$shared_ptr@VCell@@@std@@@2@@std@@@std@@@2@XZ DD 05030d01H
	DD	0720a030dH
	DD	05006H
xdata	ENDS
;	COMDAT xdata
xdata	SEGMENT
$unwind$?_Mylast@?$_Vector_alloc@U?$_Vec_base_types@V?$vector@V?$shared_ptr@VCell@@@std@@V?$allocator@V?$shared_ptr@VCell@@@std@@@2@@std@@V?$allocator@V?$vector@V?$shared_ptr@VCell@@@std@@V?$allocator@V?$shared_ptr@VCell@@@std@@@2@@std@@@2@@std@@@std@@QEBAAEBQEAV?$vector@V?$shared_ptr@VCell@@@std@@V?$allocator@V?$shared_ptr@VCell@@@std@@@2@@2@XZ DD 025030f01H
	DD	0b20a230fH
	DD	05006H
xdata	ENDS
;	COMDAT xdata
xdata	SEGMENT
$unwind$?_Myfirst@?$_Vector_alloc@U?$_Vec_base_types@V?$vector@V?$shared_ptr@VCell@@@std@@V?$allocator@V?$shared_ptr@VCell@@@std@@@2@@std@@V?$allocator@V?$vector@V?$shared_ptr@VCell@@@std@@V?$allocator@V?$shared_ptr@VCell@@@std@@@2@@std@@@2@@std@@@std@@QEBAAEBQEAV?$vector@V?$shared_ptr@VCell@@@std@@V?$allocator@V?$shared_ptr@VCell@@@std@@@2@@2@XZ DD 025030f01H
	DD	0b20a230fH
	DD	05006H
xdata	ENDS
;	COMDAT xdata
xdata	SEGMENT
$unwind$?_Myfirst@?$_Vector_alloc@U?$_Vec_base_types@V?$vector@V?$shared_ptr@VCell@@@std@@V?$allocator@V?$shared_ptr@VCell@@@std@@@2@@std@@V?$allocator@V?$vector@V?$shared_ptr@VCell@@@std@@V?$allocator@V?$shared_ptr@VCell@@@std@@@2@@std@@@2@@std@@@std@@QEAAAEAPEAV?$vector@V?$shared_ptr@VCell@@@std@@V?$allocator@V?$shared_ptr@VCell@@@std@@@2@@2@XZ DD 025030f01H
	DD	0b20a230fH
	DD	05006H
xdata	ENDS
;	COMDAT xdata
xdata	SEGMENT
$unwind$?_Get_data@?$_Vector_alloc@U?$_Vec_base_types@V?$vector@V?$shared_ptr@VCell@@@std@@V?$allocator@V?$shared_ptr@VCell@@@std@@@2@@std@@V?$allocator@V?$vector@V?$shared_ptr@VCell@@@std@@V?$allocator@V?$shared_ptr@VCell@@@std@@@2@@std@@@2@@std@@@std@@QEBAAEBV?$_Vector_val@U?$_Simple_types@V?$vector@V?$shared_ptr@VCell@@@std@@V?$allocator@V?$shared_ptr@VCell@@@std@@@2@@std@@@std@@@2@XZ DD 025030f01H
	DD	0b20a230fH
	DD	05006H
xdata	ENDS
;	COMDAT xdata
xdata	SEGMENT
$unwind$?_Get_data@?$_Vector_alloc@U?$_Vec_base_types@V?$vector@V?$shared_ptr@VCell@@@std@@V?$allocator@V?$shared_ptr@VCell@@@std@@@2@@std@@V?$allocator@V?$vector@V?$shared_ptr@VCell@@@std@@V?$allocator@V?$shared_ptr@VCell@@@std@@@2@@std@@@2@@std@@@std@@QEAAAEAV?$_Vector_val@U?$_Simple_types@V?$vector@V?$shared_ptr@VCell@@@std@@V?$allocator@V?$shared_ptr@VCell@@@std@@@2@@std@@@std@@@2@XZ DD 025030f01H
	DD	0b20a230fH
	DD	05006H
xdata	ENDS
;	COMDAT xdata
xdata	SEGMENT
$unwind$??C?$shared_ptr@VCell@@@std@@QEBAPEAVCell@@XZ DD 025030f01H
	DD	0b20a230fH
	DD	05006H
xdata	ENDS
;	COMDAT xdata
xdata	SEGMENT
$unwind$?get@?$shared_ptr@VCell@@@std@@QEBAPEAVCell@@XZ DD 025030f01H
	DD	0b20a230fH
	DD	05006H
xdata	ENDS
;	COMDAT xdata
xdata	SEGMENT
$ip2state$??0?$shared_ptr@VCell@@@std@@QEAA@AEBV01@@Z DD imagerel ??0?$shared_ptr@VCell@@@std@@QEAA@AEBV01@@Z
	DD	0ffffffffH
xdata	ENDS
;	COMDAT CONST
CONST	SEGMENT
$cppxdata$??0?$shared_ptr@VCell@@@std@@QEAA@AEBV01@@Z DD 019930522H
	DD	00H
	DD	00H
	DD	00H
	DD	00H
	DD	01H
	DD	imagerel $ip2state$??0?$shared_ptr@VCell@@@std@@QEAA@AEBV01@@Z
	DD	060H
	DD	00H
	DD	05H
CONST	ENDS
;	COMDAT xdata
xdata	SEGMENT
$unwind$??0?$shared_ptr@VCell@@@std@@QEAA@AEBV01@@Z DD 025031c19H
	DD	0d20f2314H
	DD	0500bH
	DD	imagerel __CxxFrameHandler3
	DD	imagerel $cppxdata$??0?$shared_ptr@VCell@@@std@@QEAA@AEBV01@@Z
xdata	ENDS
;	COMDAT xdata
xdata	SEGMENT
$unwind$??0?$shared_ptr@VCell@@@std@@QEAA@$$T@Z DD 025031401H
	DD	0b20f2314H
	DD	0500bH
xdata	ENDS
;	COMDAT xdata
xdata	SEGMENT
$unwind$?_Reset0@?$_Ptr_base@VCell@@@std@@QEAAXPEAVCell@@PEAV_Ref_count_base@2@@Z DD 025031901H
	DD	0b2142319H
	DD	05010H
xdata	ENDS
;	COMDAT xdata
xdata	SEGMENT
$unwind$?_Reset@?$_Ptr_base@VCell@@@std@@QEAAXPEAVCell@@PEAV_Ref_count_base@2@@Z DD 025031901H
	DD	0b2142319H
	DD	05010H
xdata	ENDS
;	COMDAT xdata
xdata	SEGMENT
$unwind$?_Get@?$_Ptr_base@VCell@@@std@@QEBAPEAVCell@@XZ DD 05030d01H
	DD	0720a030dH
	DD	05006H
xdata	ENDS
;	COMDAT xdata
xdata	SEGMENT
$unwind$??0?$_Ptr_base@VCell@@@std@@QEAA@XZ DD 05030d01H
	DD	0720a030dH
	DD	05006H
xdata	ENDS
;	COMDAT xdata
xdata	SEGMENT
$unwind$?adhesion@@YANNNN@Z DD 05031a01H
	DD	09217031aH
	DD	05013H
xdata	ENDS
;	COMDAT xdata
xdata	SEGMENT
$unwind$?dist3Sq@@YANNNNNNN@Z DD 025032501H
	DD	0f2202325H
	DD	05019H
xdata	ENDS
;	COMDAT xdata
xdata	SEGMENT
$unwind$?normSq@@YANNNN@Z DD 05031a01H
	DD	07217031aH
	DD	05013H
xdata	ENDS
;	COMDAT xdata
xdata	SEGMENT
$unwind$?perio_diff_y@@YANNN@Z DD 05031401H
	DD	092110314H
	DD	0500dH
xdata	ENDS
;	COMDAT xdata
xdata	SEGMENT
$unwind$?perio_diff_x@@YANNN@Z DD 05031401H
	DD	092110314H
	DD	0500dH
xdata	ENDS
;	COMDAT xdata
xdata	SEGMENT
$unwind$??__Erng_real_dist@@YAXXZ DD 025030b01H
	DD	0b206230bH
	DD	05002H
xdata	ENDS
;	COMDAT xdata
xdata	SEGMENT
$unwind$??0?$uniform_real_distribution@N@std@@QEAA@NN@Z DD 025031b01H
	DD	0b216231bH
	DD	05012H
xdata	ENDS
;	COMDAT xdata
xdata	SEGMENT
$unwind$?_Init@param_type@?$uniform_real@N@std@@QEAAXNN@Z DD 025031b01H
	DD	0b216231bH
	DD	05012H
xdata	ENDS
;	COMDAT xdata
xdata	SEGMENT
$unwind$??0param_type@?$uniform_real@N@std@@QEAA@NN@Z DD 025031b01H
	DD	0b216231bH
	DD	05012H
xdata	ENDS
;	COMDAT xdata
xdata	SEGMENT
$unwind$??0?$uniform_real@N@std@@QEAA@NN@Z DD 025031b01H
	DD	0b216231bH
	DD	05012H
xdata	ENDS
;	COMDAT xdata
xdata	SEGMENT
$unwind$??__Emt@@YAXXZ DD 025030b01H
	DD	0b206230bH
	DD	05002H
xdata	ENDS
;	COMDAT xdata
xdata	SEGMENT
$unwind$??0?$mersenne_twister_engine@_K$0EA@$0BDI@$0JM@$0BP@$0?EKPNJAKFFGJJOGBH@$0BN@$0FFFFFFFFFFFFFFFF@$0BB@$0HBNGHPPPONKGAAAA@$0CF@$0?IBBCAAAAAAAAA@$0CL@$0FIFBPECNEMJFHPCN@@std@@QEAA@_K@Z DD 025031401H
	DD	0b20f2314H
	DD	0500bH
xdata	ENDS
;	COMDAT xdata
xdata	SEGMENT
$unwind$?seed@?$mersenne_twister@_K$0EA@$0BDI@$0JM@$0BP@$0?EKPNJAKFFGJJOGBH@$0BN@$0BB@$0HBNGHPPPONKGAAAA@$0CF@$0?IBBCAAAAAAAAA@$0CL@@std@@QEAAX_K0@Z DD 05031701H
	DD	0b2140317H
	DD	05010H
xdata	ENDS
;	COMDAT xdata
xdata	SEGMENT
$unwind$??0?$mersenne_twister@_K$0EA@$0BDI@$0JM@$0BP@$0?EKPNJAKFFGJJOGBH@$0BN@$0BB@$0HBNGHPPPONKGAAAA@$0CF@$0?IBBCAAAAAAAAA@$0CL@@std@@QEAA@_K00@Z DD 025031e01H
	DD	0b219231eH
	DD	05015H
xdata	ENDS
;	COMDAT xdata
xdata	SEGMENT
$unwind$??__EANZ@@YAXXZ DD 05030901H
	DD	072060309H
	DD	05002H
xdata	ENDS
;	COMDAT xdata
xdata	SEGMENT
$unwind$??__EANY@@YAXXZ DD 05030901H
	DD	072060309H
	DD	05002H
xdata	ENDS
;	COMDAT xdata
xdata	SEGMENT
$unwind$??__EANX@@YAXXZ DD 05030901H
	DD	072060309H
	DD	05002H
xdata	ENDS
;	COMDAT xdata
xdata	SEGMENT
$unwind$?_Decwref@_Ref_count_base@std@@QEAAXXZ DD 025030f01H
	DD	0b20a230fH
	DD	05006H
xdata	ENDS
;	COMDAT xdata
xdata	SEGMENT
$unwind$?_Decref@_Ref_count_base@std@@QEAAXXZ DD 025030f01H
	DD	0b20a230fH
	DD	05006H
xdata	ENDS
;	COMDAT xdata
xdata	SEGMENT
$unwind$?_Incref@_Ref_count_base@std@@QEAAXXZ DD 05030d01H
	DD	0720a030dH
	DD	05006H
xdata	ENDS
;	COMDAT xdata
xdata	SEGMENT
$unwind$?_Orphan_me@_Iterator_base12@std@@QEAAXXZ DD 025030f01H
	DD	0d20a230fH
	DD	05006H
xdata	ENDS
;	COMDAT xdata
xdata	SEGMENT
$unwind$?_Getcont@_Iterator_base12@std@@QEBAPEBU_Container_base12@2@XZ DD 05030d01H
	DD	0920a030dH
	DD	05006H
xdata	ENDS
;	COMDAT xdata
xdata	SEGMENT
$unwind$?dtor$1@?0??_Adopt@_Iterator_base12@std@@QEAAXPEBU_Container_base12@2@@Z@4HA DD 020601H
	DD	050023206H
xdata	ENDS
;	COMDAT xdata
xdata	SEGMENT
$unwind$?dtor$0@?0??_Adopt@_Iterator_base12@std@@QEAAXPEBU_Container_base12@2@@Z@4HA DD 020601H
	DD	050023206H
xdata	ENDS
;	COMDAT xdata
xdata	SEGMENT
$ip2state$?_Adopt@_Iterator_base12@std@@QEAAXPEBU_Container_base12@2@@Z DD imagerel ?_Adopt@_Iterator_base12@std@@QEAAXPEBU_Container_base12@2@@Z
	DD	0ffffffffH
	DD	imagerel ?_Adopt@_Iterator_base12@std@@QEAAXPEBU_Container_base12@2@@Z+71
	DD	00H
	DD	imagerel ?_Adopt@_Iterator_base12@std@@QEAAXPEBU_Container_base12@2@@Z+84
	DD	0ffffffffH
	DD	imagerel ?_Adopt@_Iterator_base12@std@@QEAAXPEBU_Container_base12@2@@Z+142
	DD	01H
	DD	imagerel ?_Adopt@_Iterator_base12@std@@QEAAXPEBU_Container_base12@2@@Z+202
	DD	0ffffffffH
xdata	ENDS
;	COMDAT xdata
xdata	SEGMENT
$stateUnwindMap$?_Adopt@_Iterator_base12@std@@QEAAXPEBU_Container_base12@2@@Z DD 0ffffffffH
	DD	imagerel ?dtor$0@?0??_Adopt@_Iterator_base12@std@@QEAAXPEBU_Container_base12@2@@Z@4HA
	DD	0ffffffffH
	DD	imagerel ?dtor$1@?0??_Adopt@_Iterator_base12@std@@QEAAXPEBU_Container_base12@2@@Z@4HA
xdata	ENDS
;	COMDAT CONST
CONST	SEGMENT
$cppxdata$?_Adopt@_Iterator_base12@std@@QEAAXPEBU_Container_base12@2@@Z DD 019930522H
	DD	02H
	DD	imagerel $stateUnwindMap$?_Adopt@_Iterator_base12@std@@QEAAXPEBU_Container_base12@2@@Z
	DD	00H
	DD	00H
	DD	05H
	DD	imagerel $ip2state$?_Adopt@_Iterator_base12@std@@QEAAXPEBU_Container_base12@2@@Z
	DD	078H
	DD	00H
	DD	01H
CONST	ENDS
;	COMDAT xdata
xdata	SEGMENT
$unwind$?_Adopt@_Iterator_base12@std@@QEAAXPEBU_Container_base12@2@@Z DD 025042d19H
	DD	01122317H
	DD	0500b0012H
	DD	imagerel __GSHandlerCheck_EH
	DD	imagerel $cppxdata$?_Adopt@_Iterator_base12@std@@QEAAXPEBU_Container_base12@2@@Z
	DD	082H
xdata	ENDS
;	COMDAT xdata
xdata	SEGMENT
$ip2state$??1_Iterator_base12@std@@QEAA@XZ DD imagerel ??1_Iterator_base12@std@@QEAA@XZ
	DD	0ffffffffH
xdata	ENDS
;	COMDAT CONST
CONST	SEGMENT
$cppxdata$??1_Iterator_base12@std@@QEAA@XZ DD 019930522H
	DD	00H
	DD	00H
	DD	00H
	DD	00H
	DD	01H
	DD	imagerel $ip2state$??1_Iterator_base12@std@@QEAA@XZ
	DD	068H
	DD	00H
	DD	05H
CONST	ENDS
;	COMDAT xdata
xdata	SEGMENT
$unwind$??1_Iterator_base12@std@@QEAA@XZ DD 025032819H
	DD	0f20d2312H
	DD	05006H
	DD	imagerel __GSHandlerCheck_EH
	DD	imagerel $cppxdata$??1_Iterator_base12@std@@QEAA@XZ
	DD	073H
xdata	ENDS
;	COMDAT xdata
xdata	SEGMENT
$unwind$??0_Iterator_base12@std@@QEAA@XZ DD 05030d01H
	DD	0720a030dH
	DD	05006H
xdata	ENDS
;	COMDAT xdata
xdata	SEGMENT
$unwind$?max@?$numeric_limits@N@std@@SANXZ DD 05030901H
	DD	072060309H
	DD	05002H
xdata	ENDS
;	COMDAT xdata
xdata	SEGMENT
$unwind$?__empty_global_delete@@YAXPEAX_K@Z DD 05031201H
	DD	0720f0312H
	DD	0500bH
xdata	ENDS
;	COMDAT xdata
xdata	SEGMENT
$unwind$?__empty_global_delete@@YAXPEAX@Z DD 05030d01H
	DD	0720a030dH
	DD	05006H
xdata	ENDS
CRT$XCU	SEGMENT
?ANY$initializer$@@3P6AXXZEA DQ FLAT:??__EANY@@YAXXZ	; ANY$initializer$
CRT$XCU	ENDS
CRT$XCU	SEGMENT
?ANZ$initializer$@@3P6AXXZEA DQ FLAT:??__EANZ@@YAXXZ	; ANZ$initializer$
CRT$XCU	ENDS
CRT$XCU	SEGMENT
?mt$initializer$@@3P6AXXZEA DQ FLAT:??__Emt@@YAXXZ	; mt$initializer$
CRT$XCU	ENDS
CRT$XCU	SEGMENT
?rng_real_dist$initializer$@@3P6AXXZEA DQ FLAT:??__Erng_real_dist@@YAXXZ ; rng_real_dist$initializer$
CRT$XCU	ENDS
; Function compile flags: /Odtp /RTCu /ZI
; File c:\program files (x86)\microsoft visual studio 14.0\vc\include\memory
;	COMDAT ??$_Reset@VCell@@@?$_Ptr_base@VCell@@@std@@QEAAXAEBV01@@Z
_TEXT	SEGMENT
this$ = 80
_Other$ = 88
??$_Reset@VCell@@@?$_Ptr_base@VCell@@@std@@QEAAXAEBV01@@Z PROC ; std::_Ptr_base<Cell>::_Reset<Cell>, COMDAT

; 348  : 		{	// release resource and take ownership of _Other._Ptr

$LN3:
	mov	QWORD PTR [rsp+16], rdx
	mov	QWORD PTR [rsp+8], rcx
	push	rbp
	sub	rsp, 96					; 00000060H
	lea	rbp, QWORD PTR [rsp+32]

; 349  : 		_Reset(_Other._Ptr, _Other._Rep);

	mov	rax, QWORD PTR _Other$[rbp]
	mov	r8, QWORD PTR [rax+8]
	mov	rax, QWORD PTR _Other$[rbp]
	mov	rdx, QWORD PTR [rax]
	mov	rcx, QWORD PTR this$[rbp]
	call	?_Reset@?$_Ptr_base@VCell@@@std@@QEAAXPEAVCell@@PEAV_Ref_count_base@2@@Z ; std::_Ptr_base<Cell>::_Reset

; 350  : 		}

	lea	rsp, QWORD PTR [rbp+64]
	pop	rbp
	ret	0
??$_Reset@VCell@@@?$_Ptr_base@VCell@@@std@@QEAAXAEBV01@@Z ENDP ; std::_Ptr_base<Cell>::_Reset<Cell>
_TEXT	ENDS
; Function compile flags: /Odtp /RTCu /ZI
; File c:\program files (x86)\microsoft visual studio 14.0\vc\include\memory
;	COMDAT ??$?8VCell@@V0@@std@@YA_NAEBV?$shared_ptr@VCell@@@0@0@Z
_TEXT	SEGMENT
tv65 = 64
tv69 = 72
_Left$ = 96
_Right$ = 104
??$?8VCell@@V0@@std@@YA_NAEBV?$shared_ptr@VCell@@@0@0@Z PROC ; std::operator==<Cell,Cell>, COMDAT

; 704  : 	{	// test if shared_ptr == shared_ptr

$LN5:
	mov	QWORD PTR [rsp+16], rdx
	mov	QWORD PTR [rsp+8], rcx
	push	rbp
	sub	rsp, 112				; 00000070H
	lea	rbp, QWORD PTR [rsp+32]

; 705  : 	return (_Left.get() == _Right.get());

	mov	rcx, QWORD PTR _Left$[rbp]
	call	?get@?$shared_ptr@VCell@@@std@@QEBAPEAVCell@@XZ ; std::shared_ptr<Cell>::get
	mov	QWORD PTR tv65[rbp], rax
	mov	rcx, QWORD PTR _Right$[rbp]
	call	?get@?$shared_ptr@VCell@@@std@@QEBAPEAVCell@@XZ ; std::shared_ptr<Cell>::get
	mov	rcx, QWORD PTR tv65[rbp]
	cmp	rcx, rax
	jne	SHORT $LN3@operator
	mov	DWORD PTR tv69[rbp], 1
	jmp	SHORT $LN4@operator
$LN3@operator:
	mov	DWORD PTR tv69[rbp], 0
$LN4@operator:
	movzx	eax, BYTE PTR tv69[rbp]

; 706  : 	}

	lea	rsp, QWORD PTR [rbp+80]
	pop	rbp
	ret	0
??$?8VCell@@V0@@std@@YA_NAEBV?$shared_ptr@VCell@@@0@0@Z ENDP ; std::operator==<Cell,Cell>
_TEXT	ENDS
; Function compile flags: /Odtp /RTCu /ZI
;	COMDAT ?__autoclassinit2@?$_Vector_iterator@V?$_Vector_val@U?$_Simple_types@V?$shared_ptr@VCell@@@std@@@std@@@std@@@std@@QEAAX_K@Z
_TEXT	SEGMENT
this$ = 96
classSize$ = 104
?__autoclassinit2@?$_Vector_iterator@V?$_Vector_val@U?$_Simple_types@V?$shared_ptr@VCell@@@std@@@std@@@std@@@std@@QEAAX_K@Z PROC ; std::_Vector_iterator<std::_Vector_val<std::_Simple_types<std::shared_ptr<Cell> > > >::__autoclassinit2, COMDAT
$LN3:
	mov	QWORD PTR [rsp+16], rdx
	mov	QWORD PTR [rsp+8], rcx
	push	rbp
	push	rdi
	sub	rsp, 72					; 00000048H
	mov	rbp, rsp
	mov	rdi, QWORD PTR this$[rbp]
	xor	eax, eax
	mov	rcx, QWORD PTR classSize$[rbp]
	rep stosb
	lea	rsp, QWORD PTR [rbp+72]
	pop	rdi
	pop	rbp
	ret	0
?__autoclassinit2@?$_Vector_iterator@V?$_Vector_val@U?$_Simple_types@V?$shared_ptr@VCell@@@std@@@std@@@std@@@std@@QEAAX_K@Z ENDP ; std::_Vector_iterator<std::_Vector_val<std::_Simple_types<std::shared_ptr<Cell> > > >::__autoclassinit2
_TEXT	ENDS
; Function compile flags: /Odtp /RTCu /ZI
;	COMDAT ??1?$_Vector_iterator@V?$_Vector_val@U?$_Simple_types@V?$shared_ptr@VCell@@@std@@@std@@@std@@@std@@QEAA@XZ
_TEXT	SEGMENT
this$ = 80
??1?$_Vector_iterator@V?$_Vector_val@U?$_Simple_types@V?$shared_ptr@VCell@@@std@@@std@@@std@@@std@@QEAA@XZ PROC ; std::_Vector_iterator<std::_Vector_val<std::_Simple_types<std::shared_ptr<Cell> > > >::~_Vector_iterator<std::_Vector_val<std::_Simple_types<std::shared_ptr<Cell> > > >, COMDAT
$LN3:
	mov	QWORD PTR [rsp+8], rcx
	push	rbp
	sub	rsp, 96					; 00000060H
	lea	rbp, QWORD PTR [rsp+32]
	mov	rcx, QWORD PTR this$[rbp]
	call	??1?$_Vector_const_iterator@V?$_Vector_val@U?$_Simple_types@V?$shared_ptr@VCell@@@std@@@std@@@std@@@std@@QEAA@XZ
	lea	rsp, QWORD PTR [rbp+64]
	pop	rbp
	ret	0
??1?$_Vector_iterator@V?$_Vector_val@U?$_Simple_types@V?$shared_ptr@VCell@@@std@@@std@@@std@@@std@@QEAA@XZ ENDP ; std::_Vector_iterator<std::_Vector_val<std::_Simple_types<std::shared_ptr<Cell> > > >::~_Vector_iterator<std::_Vector_val<std::_Simple_types<std::shared_ptr<Cell> > > >
_TEXT	ENDS
; Function compile flags: /Odtp /RTCu /ZI
; File c:\program files (x86)\microsoft visual studio 14.0\vc\include\vector
;	COMDAT ??E?$_Vector_iterator@V?$_Vector_val@U?$_Simple_types@V?$shared_ptr@VCell@@@std@@@std@@@std@@@std@@QEAAAEAV01@XZ
_TEXT	SEGMENT
this$ = 80
??E?$_Vector_iterator@V?$_Vector_val@U?$_Simple_types@V?$shared_ptr@VCell@@@std@@@std@@@std@@@std@@QEAAAEAV01@XZ PROC ; std::_Vector_iterator<std::_Vector_val<std::_Simple_types<std::shared_ptr<Cell> > > >::operator++, COMDAT

; 334  : 		{	// preincrement

$LN3:
	mov	QWORD PTR [rsp+8], rcx
	push	rbp
	sub	rsp, 96					; 00000060H
	lea	rbp, QWORD PTR [rsp+32]

; 335  : 		++*(_Mybase *)this;

	mov	rcx, QWORD PTR this$[rbp]
	call	??E?$_Vector_const_iterator@V?$_Vector_val@U?$_Simple_types@V?$shared_ptr@VCell@@@std@@@std@@@std@@@std@@QEAAAEAV01@XZ ; std::_Vector_const_iterator<std::_Vector_val<std::_Simple_types<std::shared_ptr<Cell> > > >::operator++

; 336  : 		return (*this);

	mov	rax, QWORD PTR this$[rbp]

; 337  : 		}

	lea	rsp, QWORD PTR [rbp+64]
	pop	rbp
	ret	0
??E?$_Vector_iterator@V?$_Vector_val@U?$_Simple_types@V?$shared_ptr@VCell@@@std@@@std@@@std@@@std@@QEAAAEAV01@XZ ENDP ; std::_Vector_iterator<std::_Vector_val<std::_Simple_types<std::shared_ptr<Cell> > > >::operator++
_TEXT	ENDS
; Function compile flags: /Odtp /RTCu /ZI
; File c:\program files (x86)\microsoft visual studio 14.0\vc\include\vector
;	COMDAT ??D?$_Vector_iterator@V?$_Vector_val@U?$_Simple_types@V?$shared_ptr@VCell@@@std@@@std@@@std@@@std@@QEBAAEAV?$shared_ptr@VCell@@@1@XZ
_TEXT	SEGMENT
this$ = 80
??D?$_Vector_iterator@V?$_Vector_val@U?$_Simple_types@V?$shared_ptr@VCell@@@std@@@std@@@std@@@std@@QEBAAEAV?$shared_ptr@VCell@@@1@XZ PROC ; std::_Vector_iterator<std::_Vector_val<std::_Simple_types<std::shared_ptr<Cell> > > >::operator*, COMDAT

; 324  : 		{	// return designated object

$LN3:
	mov	QWORD PTR [rsp+8], rcx
	push	rbp
	sub	rsp, 96					; 00000060H
	lea	rbp, QWORD PTR [rsp+32]

; 325  : 		return ((reference)**(_Mybase *)this);

	mov	rcx, QWORD PTR this$[rbp]
	call	??D?$_Vector_const_iterator@V?$_Vector_val@U?$_Simple_types@V?$shared_ptr@VCell@@@std@@@std@@@std@@@std@@QEBAAEBV?$shared_ptr@VCell@@@1@XZ ; std::_Vector_const_iterator<std::_Vector_val<std::_Simple_types<std::shared_ptr<Cell> > > >::operator*

; 326  : 		}

	lea	rsp, QWORD PTR [rbp+64]
	pop	rbp
	ret	0
??D?$_Vector_iterator@V?$_Vector_val@U?$_Simple_types@V?$shared_ptr@VCell@@@std@@@std@@@std@@@std@@QEBAAEAV?$shared_ptr@VCell@@@1@XZ ENDP ; std::_Vector_iterator<std::_Vector_val<std::_Simple_types<std::shared_ptr<Cell> > > >::operator*
_TEXT	ENDS
; Function compile flags: /Odtp /RTCu /ZI
; File c:\program files (x86)\microsoft visual studio 14.0\vc\include\vector
;	COMDAT ??0?$_Vector_iterator@V?$_Vector_val@U?$_Simple_types@V?$shared_ptr@VCell@@@std@@@std@@@std@@@std@@QEAA@PEAV?$shared_ptr@VCell@@@1@PEBU_Container_base12@1@@Z
_TEXT	SEGMENT
this$ = 80
_Parg$ = 88
_Pvector$ = 96
??0?$_Vector_iterator@V?$_Vector_val@U?$_Simple_types@V?$shared_ptr@VCell@@@std@@@std@@@std@@@std@@QEAA@PEAV?$shared_ptr@VCell@@@1@PEBU_Container_base12@1@@Z PROC ; std::_Vector_iterator<std::_Vector_val<std::_Simple_types<std::shared_ptr<Cell> > > >::_Vector_iterator<std::_Vector_val<std::_Simple_types<std::shared_ptr<Cell> > > >, COMDAT

; 307  : 		{	// construct with pointer _Parg

$LN4:
	mov	QWORD PTR [rsp+24], r8
	mov	QWORD PTR [rsp+16], rdx
	mov	QWORD PTR [rsp+8], rcx
	push	rbp
	sub	rsp, 96					; 00000060H
	lea	rbp, QWORD PTR [rsp+32]

; 306  : 		: _Mybase(_Parg, _Pvector)

	mov	r8, QWORD PTR _Pvector$[rbp]
	mov	rdx, QWORD PTR _Parg$[rbp]
	mov	rcx, QWORD PTR this$[rbp]
	call	??0?$_Vector_const_iterator@V?$_Vector_val@U?$_Simple_types@V?$shared_ptr@VCell@@@std@@@std@@@std@@@std@@QEAA@PEAV?$shared_ptr@VCell@@@1@PEBU_Container_base12@1@@Z ; std::_Vector_const_iterator<std::_Vector_val<std::_Simple_types<std::shared_ptr<Cell> > > >::_Vector_const_iterator<std::_Vector_val<std::_Simple_types<std::shared_ptr<Cell> > > >

; 308  : 		}

	mov	rax, QWORD PTR this$[rbp]
	lea	rsp, QWORD PTR [rbp+64]
	pop	rbp
	ret	0
??0?$_Vector_iterator@V?$_Vector_val@U?$_Simple_types@V?$shared_ptr@VCell@@@std@@@std@@@std@@@std@@QEAA@PEAV?$shared_ptr@VCell@@@1@PEBU_Container_base12@1@@Z ENDP ; std::_Vector_iterator<std::_Vector_val<std::_Simple_types<std::shared_ptr<Cell> > > >::_Vector_iterator<std::_Vector_val<std::_Simple_types<std::shared_ptr<Cell> > > >
_TEXT	ENDS
; Function compile flags: /Odtp /RTCu /ZI
;	COMDAT ??1?$_Vector_const_iterator@V?$_Vector_val@U?$_Simple_types@V?$shared_ptr@VCell@@@std@@@std@@@std@@@std@@QEAA@XZ
_TEXT	SEGMENT
this$ = 80
??1?$_Vector_const_iterator@V?$_Vector_val@U?$_Simple_types@V?$shared_ptr@VCell@@@std@@@std@@@std@@@std@@QEAA@XZ PROC ; std::_Vector_const_iterator<std::_Vector_val<std::_Simple_types<std::shared_ptr<Cell> > > >::~_Vector_const_iterator<std::_Vector_val<std::_Simple_types<std::shared_ptr<Cell> > > >, COMDAT
$LN3:
	mov	QWORD PTR [rsp+8], rcx
	push	rbp
	sub	rsp, 96					; 00000060H
	lea	rbp, QWORD PTR [rsp+32]
	mov	rcx, QWORD PTR this$[rbp]
	call	??1?$_Iterator012@Urandom_access_iterator_tag@std@@V?$shared_ptr@VCell@@@2@_JPEBV32@AEBV32@U_Iterator_base12@2@@std@@QEAA@XZ
	lea	rsp, QWORD PTR [rbp+64]
	pop	rbp
	ret	0
??1?$_Vector_const_iterator@V?$_Vector_val@U?$_Simple_types@V?$shared_ptr@VCell@@@std@@@std@@@std@@@std@@QEAA@XZ ENDP ; std::_Vector_const_iterator<std::_Vector_val<std::_Simple_types<std::shared_ptr<Cell> > > >::~_Vector_const_iterator<std::_Vector_val<std::_Simple_types<std::shared_ptr<Cell> > > >
_TEXT	ENDS
; Function compile flags: /Odtp /RTCu /ZI
; File c:\program files (x86)\microsoft visual studio 14.0\vc\include\vector
;	COMDAT ?_Compat@?$_Vector_const_iterator@V?$_Vector_val@U?$_Simple_types@V?$shared_ptr@VCell@@@std@@@std@@@std@@@std@@QEBAXAEBV12@@Z
_TEXT	SEGMENT
tv76 = 64
this$ = 96
_Right$ = 104
?_Compat@?$_Vector_const_iterator@V?$_Vector_val@U?$_Simple_types@V?$shared_ptr@VCell@@@std@@@std@@@std@@@std@@QEBAXAEBV12@@Z PROC ; std::_Vector_const_iterator<std::_Vector_val<std::_Simple_types<std::shared_ptr<Cell> > > >::_Compat, COMDAT

; 237  : 		{	// test for compatible iterator pair

$LN7:
	mov	QWORD PTR [rsp+16], rdx
	mov	QWORD PTR [rsp+8], rcx
	push	rbp
	sub	rsp, 128				; 00000080H
	lea	rbp, QWORD PTR [rsp+48]

; 238  : 		if (this->_Getcont() == 0
; 239  : 			|| this->_Getcont() != _Right._Getcont())

	mov	rcx, QWORD PTR this$[rbp]
	call	?_Getcont@_Iterator_base12@std@@QEBAPEBU_Container_base12@2@XZ ; std::_Iterator_base12::_Getcont
	test	rax, rax
	je	SHORT $LN3@Compat
	mov	rcx, QWORD PTR this$[rbp]
	call	?_Getcont@_Iterator_base12@std@@QEBAPEBU_Container_base12@2@XZ ; std::_Iterator_base12::_Getcont
	mov	QWORD PTR tv76[rbp], rax
	mov	rcx, QWORD PTR _Right$[rbp]
	call	?_Getcont@_Iterator_base12@std@@QEBAPEBU_Container_base12@2@XZ ; std::_Iterator_base12::_Getcont
	mov	rcx, QWORD PTR tv76[rbp]
	cmp	rcx, rax
	je	$LN2@Compat
$LN3@Compat:

; 240  : 			{	// report error
; 241  : 			_DEBUG_ERROR("vector iterators incompatible");

	mov	r8d, 241				; 000000f1H
	lea	rdx, OFFSET FLAT:??_C@_1IM@NCODKBJH@?$AAc?$AA?3?$AA?2?$AAp?$AAr?$AAo?$AAg?$AAr?$AAa?$AAm?$AA?5?$AAf?$AAi?$AAl?$AAe?$AAs?$AA?5?$AA?$CI?$AAx?$AA8?$AA6?$AA?$CJ?$AA?2?$AAm?$AAi?$AAc?$AAr?$AAo?$AAs?$AAo?$AAf?$AAt@
	lea	rcx, OFFSET FLAT:??_C@_1DM@HINDPMBP@?$AAv?$AAe?$AAc?$AAt?$AAo?$AAr?$AA?5?$AAi?$AAt?$AAe?$AAr?$AAa?$AAt?$AAo?$AAr?$AAs?$AA?5?$AAi?$AAn?$AAc?$AAo?$AAm?$AAp?$AAa?$AAt?$AAi?$AAb?$AAl?$AAe?$AA?$AA@
	call	QWORD PTR __imp_?_Debug_message@std@@YAXPEB_W0I@Z

; 242  : 			_SCL_SECURE_INVALID_ARGUMENT;

	lea	rax, OFFSET FLAT:??_C@_0CI@FNPHFCCM@Standard?5C?$CL?$CL?5Libraries?5Invalid?5A@
	test	rax, rax
	je	SHORT $LN5@Compat
	xor	eax, eax
	test	eax, eax
	jne	SHORT $LN6@Compat
$LN5@Compat:
	lea	rax, OFFSET FLAT:??_C@_1FO@GJIHNDLM@?$AA?$CC?$AAS?$AAt?$AAa?$AAn?$AAd?$AAa?$AAr?$AAd?$AA?5?$AAC?$AA?$CL?$AA?$CL?$AA?5?$AAL?$AAi?$AAb?$AAr?$AAa?$AAr?$AAi?$AAe?$AAs?$AA?5?$AAI?$AAn?$AAv?$AAa?$AAl?$AAi?$AAd?$AA?5@
	mov	QWORD PTR [rsp+40], rax
	lea	rax, OFFSET FLAT:??_C@_17CNPHIMPH@?$AA?$CF?$AAl?$AAs?$AA?$AA@
	mov	QWORD PTR [rsp+32], rax
	xor	r9d, r9d
	mov	r8d, 242				; 000000f2H
	lea	rdx, OFFSET FLAT:??_C@_1IM@NCODKBJH@?$AAc?$AA?3?$AA?2?$AAp?$AAr?$AAo?$AAg?$AAr?$AAa?$AAm?$AA?5?$AAf?$AAi?$AAl?$AAe?$AAs?$AA?5?$AA?$CI?$AAx?$AA8?$AA6?$AA?$CJ?$AA?2?$AAm?$AAi?$AAc?$AAr?$AAo?$AAs?$AAo?$AAf?$AAt@
	mov	ecx, 2
	call	QWORD PTR __imp__CrtDbgReportW
	cmp	eax, 1
	jne	SHORT $LN6@Compat
	int	3
	xor	eax, eax
$LN6@Compat:
	mov	QWORD PTR [rsp+32], 0
	mov	r9d, 242				; 000000f2H
	lea	r8, OFFSET FLAT:??_C@_1IM@NCODKBJH@?$AAc?$AA?3?$AA?2?$AAp?$AAr?$AAo?$AAg?$AAr?$AAa?$AAm?$AA?5?$AAf?$AAi?$AAl?$AAe?$AAs?$AA?5?$AA?$CI?$AAx?$AA8?$AA6?$AA?$CJ?$AA?2?$AAm?$AAi?$AAc?$AAr?$AAo?$AAs?$AAo?$AAf?$AAt@
	lea	rdx, OFFSET FLAT:??_C@_1PM@JCFBDDDH@?$AAs?$AAt?$AAd?$AA?3?$AA?3?$AA_?$AAV?$AAe?$AAc?$AAt?$AAo?$AAr?$AA_?$AAc?$AAo?$AAn?$AAs?$AAt?$AA_?$AAi?$AAt?$AAe?$AAr?$AAa?$AAt?$AAo?$AAr?$AA?$DM?$AAc?$AAl?$AAa?$AAs@
	lea	rcx, OFFSET FLAT:??_C@_1CG@JNLFBNGN@?$AA?$CC?$AAi?$AAn?$AAv?$AAa?$AAl?$AAi?$AAd?$AA?5?$AAa?$AAr?$AAg?$AAu?$AAm?$AAe?$AAn?$AAt?$AA?$CC?$AA?$AA@
	call	QWORD PTR __imp__invalid_parameter
$LN2@Compat:

; 243  : 			}
; 244  : 		}

	lea	rsp, QWORD PTR [rbp+80]
	pop	rbp
	ret	0
?_Compat@?$_Vector_const_iterator@V?$_Vector_val@U?$_Simple_types@V?$shared_ptr@VCell@@@std@@@std@@@std@@@std@@QEBAXAEBV12@@Z ENDP ; std::_Vector_const_iterator<std::_Vector_val<std::_Simple_types<std::shared_ptr<Cell> > > >::_Compat
_TEXT	ENDS
; Function compile flags: /Odtp /RTCu /ZI
; File c:\program files (x86)\microsoft visual studio 14.0\vc\include\vector
;	COMDAT ??9?$_Vector_const_iterator@V?$_Vector_val@U?$_Simple_types@V?$shared_ptr@VCell@@@std@@@std@@@std@@@std@@QEBA_NAEBV01@@Z
_TEXT	SEGMENT
tv69 = 64
this$ = 96
_Right$ = 104
??9?$_Vector_const_iterator@V?$_Vector_val@U?$_Simple_types@V?$shared_ptr@VCell@@@std@@@std@@@std@@@std@@QEBA_NAEBV01@@Z PROC ; std::_Vector_const_iterator<std::_Vector_val<std::_Simple_types<std::shared_ptr<Cell> > > >::operator!=, COMDAT

; 210  : 		{	// test for iterator inequality

$LN5:
	mov	QWORD PTR [rsp+16], rdx
	mov	QWORD PTR [rsp+8], rcx
	push	rbp
	sub	rsp, 112				; 00000070H
	lea	rbp, QWORD PTR [rsp+32]

; 211  : 		return (!(*this == _Right));

	mov	rdx, QWORD PTR _Right$[rbp]
	mov	rcx, QWORD PTR this$[rbp]
	call	??8?$_Vector_const_iterator@V?$_Vector_val@U?$_Simple_types@V?$shared_ptr@VCell@@@std@@@std@@@std@@@std@@QEBA_NAEBV01@@Z ; std::_Vector_const_iterator<std::_Vector_val<std::_Simple_types<std::shared_ptr<Cell> > > >::operator==
	movzx	eax, al
	test	eax, eax
	jne	SHORT $LN3@operator
	mov	DWORD PTR tv69[rbp], 1
	jmp	SHORT $LN4@operator
$LN3@operator:
	mov	DWORD PTR tv69[rbp], 0
$LN4@operator:
	movzx	eax, BYTE PTR tv69[rbp]

; 212  : 		}

	lea	rsp, QWORD PTR [rbp+80]
	pop	rbp
	ret	0
??9?$_Vector_const_iterator@V?$_Vector_val@U?$_Simple_types@V?$shared_ptr@VCell@@@std@@@std@@@std@@@std@@QEBA_NAEBV01@@Z ENDP ; std::_Vector_const_iterator<std::_Vector_val<std::_Simple_types<std::shared_ptr<Cell> > > >::operator!=
_TEXT	ENDS
; Function compile flags: /Odtp /RTCu /ZI
; File c:\program files (x86)\microsoft visual studio 14.0\vc\include\vector
;	COMDAT ??8?$_Vector_const_iterator@V?$_Vector_val@U?$_Simple_types@V?$shared_ptr@VCell@@@std@@@std@@@std@@@std@@QEBA_NAEBV01@@Z
_TEXT	SEGMENT
tv82 = 64
tv69 = 64
this$ = 96
_Right$ = 104
??8?$_Vector_const_iterator@V?$_Vector_val@U?$_Simple_types@V?$shared_ptr@VCell@@@std@@@std@@@std@@@std@@QEBA_NAEBV01@@Z PROC ; std::_Vector_const_iterator<std::_Vector_val<std::_Simple_types<std::shared_ptr<Cell> > > >::operator==, COMDAT

; 203  : 		{	// test for iterator equality

$LN6:
	mov	QWORD PTR [rsp+16], rdx
	mov	QWORD PTR [rsp+8], rcx
	push	rbp
	sub	rsp, 112				; 00000070H
	lea	rbp, QWORD PTR [rsp+32]

; 204  : 		if (this->_Getcont() != _Right._Getcont())

	mov	rcx, QWORD PTR this$[rbp]
	call	?_Getcont@_Iterator_base12@std@@QEBAPEBU_Container_base12@2@XZ ; std::_Iterator_base12::_Getcont
	mov	QWORD PTR tv69[rbp], rax
	mov	rcx, QWORD PTR _Right$[rbp]
	call	?_Getcont@_Iterator_base12@std@@QEBAPEBU_Container_base12@2@XZ ; std::_Iterator_base12::_Getcont
	mov	rcx, QWORD PTR tv69[rbp]
	cmp	rcx, rax
	je	SHORT $LN2@operator

; 205  : 			_Compat(_Right);

	mov	rdx, QWORD PTR _Right$[rbp]
	mov	rcx, QWORD PTR this$[rbp]
	call	?_Compat@?$_Vector_const_iterator@V?$_Vector_val@U?$_Simple_types@V?$shared_ptr@VCell@@@std@@@std@@@std@@@std@@QEBAXAEBV12@@Z ; std::_Vector_const_iterator<std::_Vector_val<std::_Simple_types<std::shared_ptr<Cell> > > >::_Compat
$LN2@operator:

; 206  : 		return (this->_Ptr == _Right._Ptr);

	mov	rax, QWORD PTR this$[rbp]
	mov	rcx, QWORD PTR _Right$[rbp]
	mov	rcx, QWORD PTR [rcx+16]
	cmp	QWORD PTR [rax+16], rcx
	jne	SHORT $LN4@operator
	mov	DWORD PTR tv82[rbp], 1
	jmp	SHORT $LN5@operator
$LN4@operator:
	mov	DWORD PTR tv82[rbp], 0
$LN5@operator:
	movzx	eax, BYTE PTR tv82[rbp]

; 207  : 		}

	lea	rsp, QWORD PTR [rbp+80]
	pop	rbp
	ret	0
??8?$_Vector_const_iterator@V?$_Vector_val@U?$_Simple_types@V?$shared_ptr@VCell@@@std@@@std@@@std@@@std@@QEBA_NAEBV01@@Z ENDP ; std::_Vector_const_iterator<std::_Vector_val<std::_Simple_types<std::shared_ptr<Cell> > > >::operator==
_TEXT	ENDS
; Function compile flags: /Odtp /RTCu /ZI
; File c:\program files (x86)\microsoft visual studio 14.0\vc\include\vector
;	COMDAT ??E?$_Vector_const_iterator@V?$_Vector_val@U?$_Simple_types@V?$shared_ptr@VCell@@@std@@@std@@@std@@@std@@QEAAAEAV01@XZ
_TEXT	SEGMENT
this$ = 80
??E?$_Vector_const_iterator@V?$_Vector_val@U?$_Simple_types@V?$shared_ptr@VCell@@@std@@@std@@@std@@@std@@QEAAAEAV01@XZ PROC ; std::_Vector_const_iterator<std::_Vector_val<std::_Simple_types<std::shared_ptr<Cell> > > >::operator++, COMDAT

; 95   : 		{	// preincrement

$LN7:
	mov	QWORD PTR [rsp+8], rcx
	push	rbp
	sub	rsp, 112				; 00000070H
	lea	rbp, QWORD PTR [rsp+48]

; 96   :  #if _ITERATOR_DEBUG_LEVEL == 2
; 97   : 		if (this->_Getcont() == 0
; 98   : 			|| this->_Ptr == 0
; 99   : 			|| ((_Myvec *)this->_Getcont())->_Mylast <= this->_Ptr)

	mov	rcx, QWORD PTR this$[rbp]
	call	?_Getcont@_Iterator_base12@std@@QEBAPEBU_Container_base12@2@XZ ; std::_Iterator_base12::_Getcont
	test	rax, rax
	je	SHORT $LN3@operator
	mov	rax, QWORD PTR this$[rbp]
	cmp	QWORD PTR [rax+16], 0
	je	SHORT $LN3@operator
	mov	rcx, QWORD PTR this$[rbp]
	call	?_Getcont@_Iterator_base12@std@@QEBAPEBU_Container_base12@2@XZ ; std::_Iterator_base12::_Getcont
	mov	rcx, QWORD PTR this$[rbp]
	mov	rcx, QWORD PTR [rcx+16]
	cmp	QWORD PTR [rax+16], rcx
	ja	$LN2@operator
$LN3@operator:

; 100  : 			{	// report error
; 101  : 			_DEBUG_ERROR("vector iterator not incrementable");

	mov	r8d, 101				; 00000065H
	lea	rdx, OFFSET FLAT:??_C@_1IM@NCODKBJH@?$AAc?$AA?3?$AA?2?$AAp?$AAr?$AAo?$AAg?$AAr?$AAa?$AAm?$AA?5?$AAf?$AAi?$AAl?$AAe?$AAs?$AA?5?$AA?$CI?$AAx?$AA8?$AA6?$AA?$CJ?$AA?2?$AAm?$AAi?$AAc?$AAr?$AAo?$AAs?$AAo?$AAf?$AAt@
	lea	rcx, OFFSET FLAT:??_C@_1EE@EJDKCLKB@?$AAv?$AAe?$AAc?$AAt?$AAo?$AAr?$AA?5?$AAi?$AAt?$AAe?$AAr?$AAa?$AAt?$AAo?$AAr?$AA?5?$AAn?$AAo?$AAt?$AA?5?$AAi?$AAn?$AAc?$AAr?$AAe?$AAm?$AAe?$AAn?$AAt?$AAa?$AAb?$AAl@
	call	QWORD PTR __imp_?_Debug_message@std@@YAXPEB_W0I@Z

; 102  : 			_SCL_SECURE_OUT_OF_RANGE;

	lea	rax, OFFSET FLAT:??_C@_0CE@OFMIGAMM@Standard?5C?$CL?$CL?5Libraries?5Out?5of?5Ra@
	test	rax, rax
	je	SHORT $LN5@operator
	xor	eax, eax
	test	eax, eax
	jne	SHORT $LN6@operator
$LN5@operator:
	lea	rax, OFFSET FLAT:??_C@_1FG@IBPIFFN@?$AA?$CC?$AAS?$AAt?$AAa?$AAn?$AAd?$AAa?$AAr?$AAd?$AA?5?$AAC?$AA?$CL?$AA?$CL?$AA?5?$AAL?$AAi?$AAb?$AAr?$AAa?$AAr?$AAi?$AAe?$AAs?$AA?5?$AAO?$AAu?$AAt?$AA?5?$AAo?$AAf?$AA?5?$AAR@
	mov	QWORD PTR [rsp+40], rax
	lea	rax, OFFSET FLAT:??_C@_17CNPHIMPH@?$AA?$CF?$AAl?$AAs?$AA?$AA@
	mov	QWORD PTR [rsp+32], rax
	xor	r9d, r9d
	mov	r8d, 102				; 00000066H
	lea	rdx, OFFSET FLAT:??_C@_1IM@NCODKBJH@?$AAc?$AA?3?$AA?2?$AAp?$AAr?$AAo?$AAg?$AAr?$AAa?$AAm?$AA?5?$AAf?$AAi?$AAl?$AAe?$AAs?$AA?5?$AA?$CI?$AAx?$AA8?$AA6?$AA?$CJ?$AA?2?$AAm?$AAi?$AAc?$AAr?$AAo?$AAs?$AAo?$AAf?$AAt@
	mov	ecx, 2
	call	QWORD PTR __imp__CrtDbgReportW
	cmp	eax, 1
	jne	SHORT $LN6@operator
	int	3
	xor	eax, eax
$LN6@operator:
	mov	QWORD PTR [rsp+32], 0
	mov	r9d, 102				; 00000066H
	lea	r8, OFFSET FLAT:??_C@_1IM@NCODKBJH@?$AAc?$AA?3?$AA?2?$AAp?$AAr?$AAo?$AAg?$AAr?$AAa?$AAm?$AA?5?$AAf?$AAi?$AAl?$AAe?$AAs?$AA?5?$AA?$CI?$AAx?$AA8?$AA6?$AA?$CJ?$AA?2?$AAm?$AAi?$AAc?$AAr?$AAo?$AAs?$AAo?$AAf?$AAt@
	lea	rdx, OFFSET FLAT:??_C@_1BAE@KKLFLIIH@?$AAs?$AAt?$AAd?$AA?3?$AA?3?$AA_?$AAV?$AAe?$AAc?$AAt?$AAo?$AAr?$AA_?$AAc?$AAo?$AAn?$AAs?$AAt?$AA_?$AAi?$AAt?$AAe?$AAr?$AAa?$AAt?$AAo?$AAr?$AA?$DM?$AAc?$AAl?$AAa?$AAs@
	lea	rcx, OFFSET FLAT:??_C@_1BO@MEPPHOO@?$AA?$CC?$AAo?$AAu?$AAt?$AA?5?$AAo?$AAf?$AA?5?$AAr?$AAa?$AAn?$AAg?$AAe?$AA?$CC?$AA?$AA@
	call	QWORD PTR __imp__invalid_parameter
$LN2@operator:

; 103  : 			}
; 104  : 
; 105  :  #elif _ITERATOR_DEBUG_LEVEL == 1
; 106  : 		_SCL_SECURE_VALIDATE(this->_Getcont() != 0);
; 107  : 		_SCL_SECURE_VALIDATE_RANGE(
; 108  : 			this->_Ptr != _Tptr()
; 109  : 			&& this->_Ptr < ((_Myvec *)this->_Getcont())->_Mylast);
; 110  :  #endif /* _ITERATOR_DEBUG_LEVEL */
; 111  : 
; 112  : 		++this->_Ptr;

	mov	rax, QWORD PTR this$[rbp]
	mov	rax, QWORD PTR [rax+16]
	add	rax, 16
	mov	rcx, QWORD PTR this$[rbp]
	mov	QWORD PTR [rcx+16], rax

; 113  : 		return (*this);

	mov	rax, QWORD PTR this$[rbp]

; 114  : 		}

	lea	rsp, QWORD PTR [rbp+64]
	pop	rbp
	ret	0
??E?$_Vector_const_iterator@V?$_Vector_val@U?$_Simple_types@V?$shared_ptr@VCell@@@std@@@std@@@std@@@std@@QEAAAEAV01@XZ ENDP ; std::_Vector_const_iterator<std::_Vector_val<std::_Simple_types<std::shared_ptr<Cell> > > >::operator++
_TEXT	ENDS
; Function compile flags: /Odtp /RTCu /ZI
; File c:\program files (x86)\microsoft visual studio 14.0\vc\include\vector
;	COMDAT ??D?$_Vector_const_iterator@V?$_Vector_val@U?$_Simple_types@V?$shared_ptr@VCell@@@std@@@std@@@std@@@std@@QEBAAEBV?$shared_ptr@VCell@@@1@XZ
_TEXT	SEGMENT
this$ = 80
??D?$_Vector_const_iterator@V?$_Vector_val@U?$_Simple_types@V?$shared_ptr@VCell@@@std@@@std@@@std@@@std@@QEBAAEBV?$shared_ptr@VCell@@@1@XZ PROC ; std::_Vector_const_iterator<std::_Vector_val<std::_Simple_types<std::shared_ptr<Cell> > > >::operator*, COMDAT

; 65   : 		{	// return designated object

$LN7:
	mov	QWORD PTR [rsp+8], rcx
	push	rbp
	sub	rsp, 112				; 00000070H
	lea	rbp, QWORD PTR [rsp+48]

; 66   :  #if _ITERATOR_DEBUG_LEVEL == 2
; 67   : 		if (this->_Getcont() == 0
; 68   : 			|| this->_Ptr == 0
; 69   : 			|| this->_Ptr < ((_Myvec *)this->_Getcont())->_Myfirst
; 70   : 			|| ((_Myvec *)this->_Getcont())->_Mylast <= this->_Ptr)

	mov	rcx, QWORD PTR this$[rbp]
	call	?_Getcont@_Iterator_base12@std@@QEBAPEBU_Container_base12@2@XZ ; std::_Iterator_base12::_Getcont
	test	rax, rax
	je	SHORT $LN3@operator
	mov	rax, QWORD PTR this$[rbp]
	cmp	QWORD PTR [rax+16], 0
	je	SHORT $LN3@operator
	mov	rcx, QWORD PTR this$[rbp]
	call	?_Getcont@_Iterator_base12@std@@QEBAPEBU_Container_base12@2@XZ ; std::_Iterator_base12::_Getcont
	mov	rcx, QWORD PTR this$[rbp]
	mov	rax, QWORD PTR [rax+8]
	cmp	QWORD PTR [rcx+16], rax
	jb	SHORT $LN3@operator
	mov	rcx, QWORD PTR this$[rbp]
	call	?_Getcont@_Iterator_base12@std@@QEBAPEBU_Container_base12@2@XZ ; std::_Iterator_base12::_Getcont
	mov	rcx, QWORD PTR this$[rbp]
	mov	rcx, QWORD PTR [rcx+16]
	cmp	QWORD PTR [rax+16], rcx
	ja	$LN2@operator
$LN3@operator:

; 71   : 			{	// report error
; 72   : 			_DEBUG_ERROR("vector iterator not dereferencable");

	mov	r8d, 72					; 00000048H
	lea	rdx, OFFSET FLAT:??_C@_1IM@NCODKBJH@?$AAc?$AA?3?$AA?2?$AAp?$AAr?$AAo?$AAg?$AAr?$AAa?$AAm?$AA?5?$AAf?$AAi?$AAl?$AAe?$AAs?$AA?5?$AA?$CI?$AAx?$AA8?$AA6?$AA?$CJ?$AA?2?$AAm?$AAi?$AAc?$AAr?$AAo?$AAs?$AAo?$AAf?$AAt@
	lea	rcx, OFFSET FLAT:??_C@_1EG@FOHJJHAC@?$AAv?$AAe?$AAc?$AAt?$AAo?$AAr?$AA?5?$AAi?$AAt?$AAe?$AAr?$AAa?$AAt?$AAo?$AAr?$AA?5?$AAn?$AAo?$AAt?$AA?5?$AAd?$AAe?$AAr?$AAe?$AAf?$AAe?$AAr?$AAe?$AAn?$AAc?$AAa?$AAb@
	call	QWORD PTR __imp_?_Debug_message@std@@YAXPEB_W0I@Z

; 73   : 			_SCL_SECURE_OUT_OF_RANGE;

	lea	rax, OFFSET FLAT:??_C@_0CE@OFMIGAMM@Standard?5C?$CL?$CL?5Libraries?5Out?5of?5Ra@
	test	rax, rax
	je	SHORT $LN5@operator
	xor	eax, eax
	test	eax, eax
	jne	SHORT $LN6@operator
$LN5@operator:
	lea	rax, OFFSET FLAT:??_C@_1FG@IBPIFFN@?$AA?$CC?$AAS?$AAt?$AAa?$AAn?$AAd?$AAa?$AAr?$AAd?$AA?5?$AAC?$AA?$CL?$AA?$CL?$AA?5?$AAL?$AAi?$AAb?$AAr?$AAa?$AAr?$AAi?$AAe?$AAs?$AA?5?$AAO?$AAu?$AAt?$AA?5?$AAo?$AAf?$AA?5?$AAR@
	mov	QWORD PTR [rsp+40], rax
	lea	rax, OFFSET FLAT:??_C@_17CNPHIMPH@?$AA?$CF?$AAl?$AAs?$AA?$AA@
	mov	QWORD PTR [rsp+32], rax
	xor	r9d, r9d
	mov	r8d, 73					; 00000049H
	lea	rdx, OFFSET FLAT:??_C@_1IM@NCODKBJH@?$AAc?$AA?3?$AA?2?$AAp?$AAr?$AAo?$AAg?$AAr?$AAa?$AAm?$AA?5?$AAf?$AAi?$AAl?$AAe?$AAs?$AA?5?$AA?$CI?$AAx?$AA8?$AA6?$AA?$CJ?$AA?2?$AAm?$AAi?$AAc?$AAr?$AAo?$AAs?$AAo?$AAf?$AAt@
	mov	ecx, 2
	call	QWORD PTR __imp__CrtDbgReportW
	cmp	eax, 1
	jne	SHORT $LN6@operator
	int	3
	xor	eax, eax
$LN6@operator:
	mov	QWORD PTR [rsp+32], 0
	mov	r9d, 73					; 00000049H
	lea	r8, OFFSET FLAT:??_C@_1IM@NCODKBJH@?$AAc?$AA?3?$AA?2?$AAp?$AAr?$AAo?$AAg?$AAr?$AAa?$AAm?$AA?5?$AAf?$AAi?$AAl?$AAe?$AAs?$AA?5?$AA?$CI?$AAx?$AA8?$AA6?$AA?$CJ?$AA?2?$AAm?$AAi?$AAc?$AAr?$AAo?$AAs?$AAo?$AAf?$AAt@
	lea	rdx, OFFSET FLAT:??_C@_1BAC@OKHFOCDP@?$AAs?$AAt?$AAd?$AA?3?$AA?3?$AA_?$AAV?$AAe?$AAc?$AAt?$AAo?$AAr?$AA_?$AAc?$AAo?$AAn?$AAs?$AAt?$AA_?$AAi?$AAt?$AAe?$AAr?$AAa?$AAt?$AAo?$AAr?$AA?$DM?$AAc?$AAl?$AAa?$AAs@
	lea	rcx, OFFSET FLAT:??_C@_1BO@MEPPHOO@?$AA?$CC?$AAo?$AAu?$AAt?$AA?5?$AAo?$AAf?$AA?5?$AAr?$AAa?$AAn?$AAg?$AAe?$AA?$CC?$AA?$AA@
	call	QWORD PTR __imp__invalid_parameter
$LN2@operator:

; 74   : 			}
; 75   : 
; 76   :  #elif _ITERATOR_DEBUG_LEVEL == 1
; 77   : 		_SCL_SECURE_VALIDATE(this->_Getcont() != 0);
; 78   : 		_SCL_SECURE_VALIDATE_RANGE(
; 79   : 			this->_Ptr != _Tptr()
; 80   : 			&& ((_Myvec *)this->_Getcont())->_Myfirst <= this->_Ptr
; 81   : 			&& this->_Ptr < ((_Myvec *)this->_Getcont())->_Mylast);
; 82   :  #endif /* _ITERATOR_DEBUG_LEVEL */
; 83   : 
; 84   : 		_Analysis_assume_(this->_Ptr != _Tptr());
; 85   : 
; 86   : 		return (*this->_Ptr);

	mov	rax, QWORD PTR this$[rbp]
	mov	rax, QWORD PTR [rax+16]

; 87   : 		}

	lea	rsp, QWORD PTR [rbp+64]
	pop	rbp
	ret	0
??D?$_Vector_const_iterator@V?$_Vector_val@U?$_Simple_types@V?$shared_ptr@VCell@@@std@@@std@@@std@@@std@@QEBAAEBV?$shared_ptr@VCell@@@1@XZ ENDP ; std::_Vector_const_iterator<std::_Vector_val<std::_Simple_types<std::shared_ptr<Cell> > > >::operator*
_TEXT	ENDS
; Function compile flags: /Odtp /RTCu /ZI
; File c:\program files (x86)\microsoft visual studio 14.0\vc\include\vector
;	COMDAT ??0?$_Vector_const_iterator@V?$_Vector_val@U?$_Simple_types@V?$shared_ptr@VCell@@@std@@@std@@@std@@@std@@QEAA@PEAV?$shared_ptr@VCell@@@1@PEBU_Container_base12@1@@Z
_TEXT	SEGMENT
$T1 = 64
this$ = 96
_Parg$ = 104
_Pvector$ = 112
??0?$_Vector_const_iterator@V?$_Vector_val@U?$_Simple_types@V?$shared_ptr@VCell@@@std@@@std@@@std@@@std@@QEAA@PEAV?$shared_ptr@VCell@@@1@PEBU_Container_base12@1@@Z PROC ; std::_Vector_const_iterator<std::_Vector_val<std::_Simple_types<std::shared_ptr<Cell> > > >::_Vector_const_iterator<std::_Vector_val<std::_Simple_types<std::shared_ptr<Cell> > > >, COMDAT

; 47   : 		{	// construct with pointer _Parg

$LN4:
	mov	QWORD PTR [rsp+24], r8
	mov	QWORD PTR [rsp+16], rdx
	mov	QWORD PTR [rsp+8], rcx
	push	rbp
	sub	rsp, 112				; 00000070H
	lea	rbp, QWORD PTR [rsp+32]
	mov	QWORD PTR $T1[rbp], -2
	mov	rcx, QWORD PTR this$[rbp]
	call	??0?$_Iterator012@Urandom_access_iterator_tag@std@@V?$shared_ptr@VCell@@@2@_JPEBV32@AEBV32@U_Iterator_base12@2@@std@@QEAA@XZ
	npad	1

; 46   : 		: _Ptr(_Parg)

	mov	rax, QWORD PTR this$[rbp]
	mov	rcx, QWORD PTR _Parg$[rbp]
	mov	QWORD PTR [rax+16], rcx

; 48   : 		this->_Adopt(_Pvector);

	mov	rdx, QWORD PTR _Pvector$[rbp]
	mov	rcx, QWORD PTR this$[rbp]
	call	?_Adopt@_Iterator_base12@std@@QEAAXPEBU_Container_base12@2@@Z ; std::_Iterator_base12::_Adopt
	npad	1

; 49   : 		}

	mov	rax, QWORD PTR this$[rbp]
	lea	rsp, QWORD PTR [rbp+80]
	pop	rbp
	ret	0
??0?$_Vector_const_iterator@V?$_Vector_val@U?$_Simple_types@V?$shared_ptr@VCell@@@std@@@std@@@std@@@std@@QEAA@PEAV?$shared_ptr@VCell@@@1@PEBU_Container_base12@1@@Z ENDP ; std::_Vector_const_iterator<std::_Vector_val<std::_Simple_types<std::shared_ptr<Cell> > > >::_Vector_const_iterator<std::_Vector_val<std::_Simple_types<std::shared_ptr<Cell> > > >
_TEXT	ENDS
;	COMDAT text$x
text$x	SEGMENT
$T1 = 64
this$ = 96
_Parg$ = 104
_Pvector$ = 112
?dtor$0@?0???0?$_Vector_const_iterator@V?$_Vector_val@U?$_Simple_types@V?$shared_ptr@VCell@@@std@@@std@@@std@@@std@@QEAA@PEAV?$shared_ptr@VCell@@@1@PEBU_Container_base12@1@@Z@4HA PROC ; `std::_Vector_const_iterator<std::_Vector_val<std::_Simple_types<std::shared_ptr<Cell> > > >::_Vector_const_iterator<std::_Vector_val<std::_Simple_types<std::shared_ptr<Cell> > > >'::`1'::dtor$0
	push	rbp
	sub	rsp, 32					; 00000020H
	lea	rbp, QWORD PTR [rdx+32]
	mov	rcx, QWORD PTR this$[rbp]
	call	??1?$_Iterator012@Urandom_access_iterator_tag@std@@V?$shared_ptr@VCell@@@2@_JPEBV32@AEBV32@U_Iterator_base12@2@@std@@QEAA@XZ
	add	rsp, 32					; 00000020H
	pop	rbp
	ret	0
?dtor$0@?0???0?$_Vector_const_iterator@V?$_Vector_val@U?$_Simple_types@V?$shared_ptr@VCell@@@std@@@std@@@std@@@std@@QEAA@PEAV?$shared_ptr@VCell@@@1@PEBU_Container_base12@1@@Z@4HA ENDP ; `std::_Vector_const_iterator<std::_Vector_val<std::_Simple_types<std::shared_ptr<Cell> > > >::_Vector_const_iterator<std::_Vector_val<std::_Simple_types<std::shared_ptr<Cell> > > >'::`1'::dtor$0
text$x	ENDS
; Function compile flags: /Odtp /RTCu /ZI
;	COMDAT text$x
text$x	SEGMENT
$T1 = 64
this$ = 96
_Parg$ = 104
_Pvector$ = 112
?dtor$0@?0???0?$_Vector_const_iterator@V?$_Vector_val@U?$_Simple_types@V?$shared_ptr@VCell@@@std@@@std@@@std@@@std@@QEAA@PEAV?$shared_ptr@VCell@@@1@PEBU_Container_base12@1@@Z@4HA PROC ; `std::_Vector_const_iterator<std::_Vector_val<std::_Simple_types<std::shared_ptr<Cell> > > >::_Vector_const_iterator<std::_Vector_val<std::_Simple_types<std::shared_ptr<Cell> > > >'::`1'::dtor$0
	push	rbp
	sub	rsp, 32					; 00000020H
	lea	rbp, QWORD PTR [rdx+32]
	mov	rcx, QWORD PTR this$[rbp]
	call	??1?$_Iterator012@Urandom_access_iterator_tag@std@@V?$shared_ptr@VCell@@@2@_JPEBV32@AEBV32@U_Iterator_base12@2@@std@@QEAA@XZ
	add	rsp, 32					; 00000020H
	pop	rbp
	ret	0
?dtor$0@?0???0?$_Vector_const_iterator@V?$_Vector_val@U?$_Simple_types@V?$shared_ptr@VCell@@@std@@@std@@@std@@@std@@QEAA@PEAV?$shared_ptr@VCell@@@1@PEBU_Container_base12@1@@Z@4HA ENDP ; `std::_Vector_const_iterator<std::_Vector_val<std::_Simple_types<std::shared_ptr<Cell> > > >::_Vector_const_iterator<std::_Vector_val<std::_Simple_types<std::shared_ptr<Cell> > > >'::`1'::dtor$0
text$x	ENDS
; Function compile flags: /Odtp /RTCu /ZI
;	COMDAT ??1?$_Iterator012@Urandom_access_iterator_tag@std@@V?$shared_ptr@VCell@@@2@_JPEBV32@AEBV32@U_Iterator_base12@2@@std@@QEAA@XZ
_TEXT	SEGMENT
this$ = 80
??1?$_Iterator012@Urandom_access_iterator_tag@std@@V?$shared_ptr@VCell@@@2@_JPEBV32@AEBV32@U_Iterator_base12@2@@std@@QEAA@XZ PROC ; std::_Iterator012<std::random_access_iterator_tag,std::shared_ptr<Cell>,__int64,std::shared_ptr<Cell> const * __ptr64,std::shared_ptr<Cell> const & __ptr64,std::_Iterator_base12>::~_Iterator012<std::random_access_iterator_tag,std::shared_ptr<Cell>,__int64,std::shared_ptr<Cell> const * __ptr64,std::shared_ptr<Cell> const & __ptr64,std::_Iterator_base12>, COMDAT
$LN3:
	mov	QWORD PTR [rsp+8], rcx
	push	rbp
	sub	rsp, 96					; 00000060H
	lea	rbp, QWORD PTR [rsp+32]
	mov	rcx, QWORD PTR this$[rbp]
	call	??1_Iterator_base12@std@@QEAA@XZ	; std::_Iterator_base12::~_Iterator_base12
	lea	rsp, QWORD PTR [rbp+64]
	pop	rbp
	ret	0
??1?$_Iterator012@Urandom_access_iterator_tag@std@@V?$shared_ptr@VCell@@@2@_JPEBV32@AEBV32@U_Iterator_base12@2@@std@@QEAA@XZ ENDP ; std::_Iterator012<std::random_access_iterator_tag,std::shared_ptr<Cell>,__int64,std::shared_ptr<Cell> const * __ptr64,std::shared_ptr<Cell> const & __ptr64,std::_Iterator_base12>::~_Iterator012<std::random_access_iterator_tag,std::shared_ptr<Cell>,__int64,std::shared_ptr<Cell> const * __ptr64,std::shared_ptr<Cell> const & __ptr64,std::_Iterator_base12>
_TEXT	ENDS
; Function compile flags: /Odtp /RTCu /ZI
;	COMDAT ??0?$_Iterator012@Urandom_access_iterator_tag@std@@V?$shared_ptr@VCell@@@2@_JPEBV32@AEBV32@U_Iterator_base12@2@@std@@QEAA@XZ
_TEXT	SEGMENT
this$ = 80
??0?$_Iterator012@Urandom_access_iterator_tag@std@@V?$shared_ptr@VCell@@@2@_JPEBV32@AEBV32@U_Iterator_base12@2@@std@@QEAA@XZ PROC ; std::_Iterator012<std::random_access_iterator_tag,std::shared_ptr<Cell>,__int64,std::shared_ptr<Cell> const * __ptr64,std::shared_ptr<Cell> const & __ptr64,std::_Iterator_base12>::_Iterator012<std::random_access_iterator_tag,std::shared_ptr<Cell>,__int64,std::shared_ptr<Cell> const * __ptr64,std::shared_ptr<Cell> const & __ptr64,std::_Iterator_base12>, COMDAT
$LN4:
	mov	QWORD PTR [rsp+8], rcx
	push	rbp
	sub	rsp, 96					; 00000060H
	lea	rbp, QWORD PTR [rsp+32]
	mov	rcx, QWORD PTR this$[rbp]
	call	??0_Iterator_base12@std@@QEAA@XZ	; std::_Iterator_base12::_Iterator_base12
	mov	rax, QWORD PTR this$[rbp]
	lea	rsp, QWORD PTR [rbp+64]
	pop	rbp
	ret	0
??0?$_Iterator012@Urandom_access_iterator_tag@std@@V?$shared_ptr@VCell@@@2@_JPEBV32@AEBV32@U_Iterator_base12@2@@std@@QEAA@XZ ENDP ; std::_Iterator012<std::random_access_iterator_tag,std::shared_ptr<Cell>,__int64,std::shared_ptr<Cell> const * __ptr64,std::shared_ptr<Cell> const & __ptr64,std::_Iterator_base12>::_Iterator012<std::random_access_iterator_tag,std::shared_ptr<Cell>,__int64,std::shared_ptr<Cell> const * __ptr64,std::shared_ptr<Cell> const & __ptr64,std::_Iterator_base12>
_TEXT	ENDS
; Function compile flags: /Odtp /RTCu /ZI
; File c:\users\airp\source\repos\epi3\epi3\cell.cpp
;	COMDAT ?calc_normal@@YAXAEBUCellData@@0PEAN11@Z
_TEXT	SEGMENT
nx1$ = 0
ny1$ = 8
nz1$ = 16
norm$ = 24
me_data$ = 112
dermis_data$ = 120
nx$ = 128
ny$ = 136
nz$ = 144
?calc_normal@@YAXAEBUCellData@@0PEAN11@Z PROC		; calc_normal, COMDAT

; 9    : void calc_normal(const CellData& me_data,const CellData& dermis_data, double *nx, double *ny, double *nz) {

$LN3:
	mov	QWORD PTR [rsp+32], r9
	mov	QWORD PTR [rsp+24], r8
	mov	QWORD PTR [rsp+16], rdx
	mov	QWORD PTR [rsp+8], rcx
	push	rbp
	sub	rsp, 128				; 00000080H
	lea	rbp, QWORD PTR [rsp+32]

; 10   : 	//assert(me_data.dermis != nullptr);
; 11   : 	double nx1 = perio_diff_x(me_data.x, dermis_data.x);

	mov	rax, QWORD PTR dermis_data$[rbp]
	vmovsd	xmm1, QWORD PTR [rax]
	mov	rax, QWORD PTR me_data$[rbp]
	vmovsd	xmm0, QWORD PTR [rax]
	call	?perio_diff_x@@YANNN@Z			; perio_diff_x
	vmovsd	QWORD PTR nx1$[rbp], xmm0

; 12   : 	double ny1 = perio_diff_y(me_data.y, dermis_data.y);

	mov	rax, QWORD PTR dermis_data$[rbp]
	vmovsd	xmm1, QWORD PTR [rax+8]
	mov	rax, QWORD PTR me_data$[rbp]
	vmovsd	xmm0, QWORD PTR [rax+8]
	call	?perio_diff_y@@YANNN@Z			; perio_diff_y
	vmovsd	QWORD PTR ny1$[rbp], xmm0

; 13   : 	double nz1 = me_data.z - dermis_data.z;

	mov	rax, QWORD PTR me_data$[rbp]
	mov	rcx, QWORD PTR dermis_data$[rbp]
	vmovsd	xmm0, QWORD PTR [rax+16]
	vsubsd	xmm0, xmm0, QWORD PTR [rcx+16]
	vmovsd	QWORD PTR nz1$[rbp], xmm0

; 14   : 	double norm = sqrt(normSq(nx1, ny1, nz1));

	vmovsd	xmm2, QWORD PTR nz1$[rbp]
	vmovsd	xmm1, QWORD PTR ny1$[rbp]
	vmovsd	xmm0, QWORD PTR nx1$[rbp]
	call	?normSq@@YANNNN@Z			; normSq
	call	sqrt
	vmovsd	QWORD PTR norm$[rbp], xmm0

; 15   : 
; 16   : 	*nx = nx1 / norm;

	vmovsd	xmm0, QWORD PTR nx1$[rbp]
	vdivsd	xmm0, xmm0, QWORD PTR norm$[rbp]
	mov	rax, QWORD PTR nx$[rbp]
	vmovsd	QWORD PTR [rax], xmm0

; 17   : 	*ny = ny1 / norm;

	vmovsd	xmm0, QWORD PTR ny1$[rbp]
	vdivsd	xmm0, xmm0, QWORD PTR norm$[rbp]
	mov	rax, QWORD PTR ny$[rbp]
	vmovsd	QWORD PTR [rax], xmm0

; 18   : 	*nz = nz1 / norm;

	vmovsd	xmm0, QWORD PTR nz1$[rbp]
	vdivsd	xmm0, xmm0, QWORD PTR norm$[rbp]
	mov	rax, QWORD PTR nz$[rbp]
	vmovsd	QWORD PTR [rax], xmm0

; 19   : 
; 20   : }

	lea	rsp, QWORD PTR [rbp+96]
	pop	rbp
	ret	0
?calc_normal@@YAXAEBUCellData@@0PEAN11@Z ENDP		; calc_normal
_TEXT	ENDS
; Function compile flags: /Odtp /RTCu /ZI
; File c:\users\airp\source\repos\epi3\epi3\cell.cpp
;	COMDAT ?find_dermis@@YA?AV?$shared_ptr@VCell@@@std@@AEBV12@@Z
_TEXT	SEGMENT
cptr_ptr$ = 0
d1Sq$ = 8
distSq$ = 16
conn_memb_cell_set$ = 24
<range>$L0$1 = 32
<begin>$L0$2 = 40
<end>$L0$3 = 64
ccell$4 = 88
$T5 = 160
$T6 = 168
tv133 = 176
tv138 = 184
tv143 = 192
tv148 = 200
tv153 = 208
__$ArrayPad$ = 216
__$ReturnUdt$ = 240
me$ = 248
?find_dermis@@YA?AV?$shared_ptr@VCell@@@std@@AEBV12@@Z PROC ; find_dermis, COMDAT

; 68   : CellPtr find_dermis(const CellPtr& me) {

$LN13:
	mov	QWORD PTR [rsp+16], rdx
	mov	QWORD PTR [rsp+8], rcx
	push	rbp
	sub	rsp, 272				; 00000110H
	lea	rbp, QWORD PTR [rsp+48]
	mov	QWORD PTR $T6[rbp], -2
	mov	rax, QWORD PTR __security_cookie
	xor	rax, rbp
	mov	QWORD PTR __$ArrayPad$[rbp], rax
	mov	DWORD PTR $T5[rbp], 0

; 69   : 	CellPtr* cptr_ptr = nullptr;

	mov	QWORD PTR cptr_ptr$[rbp], 0

; 70   : 	double d1Sq = LX*LX;

	vmovsd	xmm0, QWORD PTR __real@40a3880000000000
	vmovsd	QWORD PTR d1Sq$[rbp], xmm0

; 71   : 	double distSq;
; 72   : 	auto& conn_memb_cell_set = me->old_data.connected_cell[MEMB];

	mov	rcx, QWORD PTR me$[rbp]
	call	??C?$shared_ptr@VCell@@@std@@QEBAPEAVCell@@XZ ; std::shared_ptr<Cell>::operator->
	add	rax, 416				; 000001a0H
	mov	edx, 9
	mov	rcx, rax
	call	??A?$vector@V?$vector@V?$shared_ptr@VCell@@@std@@V?$allocator@V?$shared_ptr@VCell@@@std@@@2@@std@@V?$allocator@V?$vector@V?$shared_ptr@VCell@@@std@@V?$allocator@V?$shared_ptr@VCell@@@std@@@2@@std@@@2@@std@@QEAAAEAV?$vector@V?$shared_ptr@VCell@@@std@@V?$allocator@V?$shared_ptr@VCell@@@std@@@2@@1@_K@Z ; std::vector<std::vector<std::shared_ptr<Cell>,std::allocator<std::shared_ptr<Cell> > >,std::allocator<std::vector<std::shared_ptr<Cell>,std::allocator<std::shared_ptr<Cell> > > > >::operator[]
	mov	QWORD PTR conn_memb_cell_set$[rbp], rax

; 73   : 	for (auto& ccell : conn_memb_cell_set) {

	mov	rax, QWORD PTR conn_memb_cell_set$[rbp]
	mov	QWORD PTR <range>$L0$1[rbp], rax
	mov	edx, 24
	lea	rcx, QWORD PTR <begin>$L0$2[rbp]
	call	?__autoclassinit2@?$_Vector_iterator@V?$_Vector_val@U?$_Simple_types@V?$shared_ptr@VCell@@@std@@@std@@@std@@@std@@QEAAX_K@Z
	lea	rdx, QWORD PTR <begin>$L0$2[rbp]
	mov	rcx, QWORD PTR <range>$L0$1[rbp]
	call	?begin@?$vector@V?$shared_ptr@VCell@@@std@@V?$allocator@V?$shared_ptr@VCell@@@std@@@2@@std@@QEAA?AV?$_Vector_iterator@V?$_Vector_val@U?$_Simple_types@V?$shared_ptr@VCell@@@std@@@std@@@std@@@2@XZ ; std::vector<std::shared_ptr<Cell>,std::allocator<std::shared_ptr<Cell> > >::begin
	npad	1
	mov	edx, 24
	lea	rcx, QWORD PTR <end>$L0$3[rbp]
	call	?__autoclassinit2@?$_Vector_iterator@V?$_Vector_val@U?$_Simple_types@V?$shared_ptr@VCell@@@std@@@std@@@std@@@std@@QEAAX_K@Z
	lea	rdx, QWORD PTR <end>$L0$3[rbp]
	mov	rcx, QWORD PTR <range>$L0$1[rbp]
	call	?end@?$vector@V?$shared_ptr@VCell@@@std@@V?$allocator@V?$shared_ptr@VCell@@@std@@@2@@std@@QEAA?AV?$_Vector_iterator@V?$_Vector_val@U?$_Simple_types@V?$shared_ptr@VCell@@@std@@@std@@@std@@@2@XZ ; std::vector<std::shared_ptr<Cell>,std::allocator<std::shared_ptr<Cell> > >::end
	npad	1
	jmp	SHORT $LN4@find_dermi
$LN2@find_dermi:
	lea	rcx, QWORD PTR <begin>$L0$2[rbp]
	call	??E?$_Vector_iterator@V?$_Vector_val@U?$_Simple_types@V?$shared_ptr@VCell@@@std@@@std@@@std@@@std@@QEAAAEAV01@XZ ; std::_Vector_iterator<std::_Vector_val<std::_Simple_types<std::shared_ptr<Cell> > > >::operator++
$LN4@find_dermi:
	lea	rdx, QWORD PTR <end>$L0$3[rbp]
	lea	rcx, QWORD PTR <begin>$L0$2[rbp]
	call	??9?$_Vector_const_iterator@V?$_Vector_val@U?$_Simple_types@V?$shared_ptr@VCell@@@std@@@std@@@std@@@std@@QEBA_NAEBV01@@Z ; std::_Vector_const_iterator<std::_Vector_val<std::_Simple_types<std::shared_ptr<Cell> > > >::operator!=
	movzx	eax, al
	test	eax, eax
	je	$LN3@find_dermi
	lea	rcx, QWORD PTR <begin>$L0$2[rbp]
	call	??D?$_Vector_iterator@V?$_Vector_val@U?$_Simple_types@V?$shared_ptr@VCell@@@std@@@std@@@std@@@std@@QEBAAEAV?$shared_ptr@VCell@@@1@XZ ; std::_Vector_iterator<std::_Vector_val<std::_Simple_types<std::shared_ptr<Cell> > > >::operator*
	mov	QWORD PTR ccell$4[rbp], rax

; 74   : 		distSq = dist3Sq(me->old_data.x, me->old_data.y, me->old_data.z,

	mov	rcx, QWORD PTR ccell$4[rbp]
	call	??C?$shared_ptr@VCell@@@std@@QEBAPEAVCell@@XZ ; std::shared_ptr<Cell>::operator->
	mov	QWORD PTR tv133[rbp], rax
	mov	rcx, QWORD PTR ccell$4[rbp]
	call	??C?$shared_ptr@VCell@@@std@@QEBAPEAVCell@@XZ ; std::shared_ptr<Cell>::operator->
	mov	QWORD PTR tv138[rbp], rax
	mov	rcx, QWORD PTR ccell$4[rbp]
	call	??C?$shared_ptr@VCell@@@std@@QEBAPEAVCell@@XZ ; std::shared_ptr<Cell>::operator->
	mov	QWORD PTR tv143[rbp], rax
	mov	rcx, QWORD PTR me$[rbp]
	call	??C?$shared_ptr@VCell@@@std@@QEBAPEAVCell@@XZ ; std::shared_ptr<Cell>::operator->
	mov	QWORD PTR tv148[rbp], rax
	mov	rcx, QWORD PTR me$[rbp]
	call	??C?$shared_ptr@VCell@@@std@@QEBAPEAVCell@@XZ ; std::shared_ptr<Cell>::operator->
	mov	QWORD PTR tv153[rbp], rax
	mov	rcx, QWORD PTR me$[rbp]
	call	??C?$shared_ptr@VCell@@@std@@QEBAPEAVCell@@XZ ; std::shared_ptr<Cell>::operator->
	mov	rcx, QWORD PTR tv133[rbp]
	vmovsd	xmm0, QWORD PTR [rcx+264]
	vmovsd	QWORD PTR [rsp+40], xmm0
	mov	rcx, QWORD PTR tv138[rbp]
	vmovsd	xmm0, QWORD PTR [rcx+256]
	vmovsd	QWORD PTR [rsp+32], xmm0
	mov	rcx, QWORD PTR tv143[rbp]
	vmovsd	xmm3, QWORD PTR [rcx+248]
	mov	rcx, QWORD PTR tv148[rbp]
	vmovsd	xmm2, QWORD PTR [rcx+264]
	mov	rcx, QWORD PTR tv153[rbp]
	vmovsd	xmm1, QWORD PTR [rcx+256]
	vmovsd	xmm0, QWORD PTR [rax+248]
	call	?dist3Sq@@YANNNNNNN@Z			; dist3Sq
	vmovsd	QWORD PTR distSq$[rbp], xmm0

; 75   : 			ccell->old_data.x, ccell->old_data.y, ccell->old_data.z);
; 76   : 		if (distSq < d1Sq) {

	vmovsd	xmm0, QWORD PTR d1Sq$[rbp]
	vcomisd	xmm0, QWORD PTR distSq$[rbp]
	jbe	SHORT $LN5@find_dermi

; 77   : 			d1Sq = distSq;

	vmovsd	xmm0, QWORD PTR distSq$[rbp]
	vmovsd	QWORD PTR d1Sq$[rbp], xmm0

; 78   : 			cptr_ptr = &ccell;

	mov	rax, QWORD PTR ccell$4[rbp]
	mov	QWORD PTR cptr_ptr$[rbp], rax
$LN5@find_dermi:

; 79   : 			//if you use CellPtr directly,copy occurs
; 80   : 		}

	jmp	$LN2@find_dermi
$LN3@find_dermi:

; 81   : 	}

	lea	rcx, QWORD PTR <end>$L0$3[rbp]
	call	??1?$_Vector_iterator@V?$_Vector_val@U?$_Simple_types@V?$shared_ptr@VCell@@@std@@@std@@@std@@@std@@QEAA@XZ
	npad	1
	lea	rcx, QWORD PTR <begin>$L0$2[rbp]
	call	??1?$_Vector_iterator@V?$_Vector_val@U?$_Simple_types@V?$shared_ptr@VCell@@@std@@@std@@@std@@@std@@QEAA@XZ

; 82   : 	if (cptr_ptr != nullptr) {

	cmp	QWORD PTR cptr_ptr$[rbp], 0
	je	SHORT $LN6@find_dermi

; 83   : 		return *cptr_ptr;

	mov	rdx, QWORD PTR cptr_ptr$[rbp]
	mov	rcx, QWORD PTR __$ReturnUdt$[rbp]
	call	??0?$shared_ptr@VCell@@@std@@QEAA@AEBV01@@Z ; std::shared_ptr<Cell>::shared_ptr<Cell>
	mov	eax, DWORD PTR $T5[rbp]
	or	eax, 1
	mov	DWORD PTR $T5[rbp], eax
	mov	rax, QWORD PTR __$ReturnUdt$[rbp]
	jmp	SHORT $LN1@find_dermi

; 84   : 	}
; 85   : 	else {

	jmp	SHORT $LN1@find_dermi
$LN6@find_dermi:

; 86   : 		return nullptr;

	xor	edx, edx
	mov	rcx, QWORD PTR __$ReturnUdt$[rbp]
	call	??0?$shared_ptr@VCell@@@std@@QEAA@$$T@Z	; std::shared_ptr<Cell>::shared_ptr<Cell>
	mov	eax, DWORD PTR $T5[rbp]
	or	eax, 1
	mov	DWORD PTR $T5[rbp], eax
	mov	rax, QWORD PTR __$ReturnUdt$[rbp]
$LN1@find_dermi:

; 87   : 	}
; 88   : 	//do not treat ptr directly, 
; 89   : }

	mov	rcx, QWORD PTR __$ArrayPad$[rbp]
	xor	rcx, rbp
	call	__security_check_cookie
	lea	rsp, QWORD PTR [rbp+224]
	pop	rbp
	ret	0
?find_dermis@@YA?AV?$shared_ptr@VCell@@@std@@AEBV12@@Z ENDP ; find_dermis
_TEXT	ENDS
;	COMDAT text$x
text$x	SEGMENT
cptr_ptr$ = 0
d1Sq$ = 8
distSq$ = 16
conn_memb_cell_set$ = 24
<range>$L0$1 = 32
<begin>$L0$2 = 40
<end>$L0$3 = 64
ccell$4 = 88
$T5 = 160
$T6 = 168
tv133 = 176
tv138 = 184
tv143 = 192
tv148 = 200
tv153 = 208
__$ArrayPad$ = 216
__$ReturnUdt$ = 240
me$ = 248
?dtor$0@?0??find_dermis@@YA?AV?$shared_ptr@VCell@@@std@@AEBV12@@Z@4HA PROC ; `find_dermis'::`1'::dtor$0
	push	rbp
	sub	rsp, 32					; 00000020H
	lea	rbp, QWORD PTR [rdx+48]
	lea	rcx, QWORD PTR <begin>$L0$2[rbp]
	call	??1?$_Vector_iterator@V?$_Vector_val@U?$_Simple_types@V?$shared_ptr@VCell@@@std@@@std@@@std@@@std@@QEAA@XZ
	add	rsp, 32					; 00000020H
	pop	rbp
	ret	0
?dtor$0@?0??find_dermis@@YA?AV?$shared_ptr@VCell@@@std@@AEBV12@@Z@4HA ENDP ; `find_dermis'::`1'::dtor$0
cptr_ptr$ = 0
d1Sq$ = 8
distSq$ = 16
conn_memb_cell_set$ = 24
<range>$L0$1 = 32
<begin>$L0$2 = 40
<end>$L0$3 = 64
ccell$4 = 88
$T5 = 160
$T6 = 168
tv133 = 176
tv138 = 184
tv143 = 192
tv148 = 200
tv153 = 208
__$ArrayPad$ = 216
__$ReturnUdt$ = 240
me$ = 248
?dtor$1@?0??find_dermis@@YA?AV?$shared_ptr@VCell@@@std@@AEBV12@@Z@4HA PROC ; `find_dermis'::`1'::dtor$1
	push	rbp
	sub	rsp, 32					; 00000020H
	lea	rbp, QWORD PTR [rdx+48]
	lea	rcx, QWORD PTR <end>$L0$3[rbp]
	call	??1?$_Vector_iterator@V?$_Vector_val@U?$_Simple_types@V?$shared_ptr@VCell@@@std@@@std@@@std@@@std@@QEAA@XZ
	add	rsp, 32					; 00000020H
	pop	rbp
	ret	0
?dtor$1@?0??find_dermis@@YA?AV?$shared_ptr@VCell@@@std@@AEBV12@@Z@4HA ENDP ; `find_dermis'::`1'::dtor$1
text$x	ENDS
; Function compile flags: /Odtp /RTCu /ZI
;	COMDAT text$x
text$x	SEGMENT
cptr_ptr$ = 0
d1Sq$ = 8
distSq$ = 16
conn_memb_cell_set$ = 24
<range>$L0$1 = 32
<begin>$L0$2 = 40
<end>$L0$3 = 64
ccell$4 = 88
$T5 = 160
$T6 = 168
tv133 = 176
tv138 = 184
tv143 = 192
tv148 = 200
tv153 = 208
__$ArrayPad$ = 216
__$ReturnUdt$ = 240
me$ = 248
?dtor$0@?0??find_dermis@@YA?AV?$shared_ptr@VCell@@@std@@AEBV12@@Z@4HA PROC ; `find_dermis'::`1'::dtor$0
	push	rbp
	sub	rsp, 32					; 00000020H
	lea	rbp, QWORD PTR [rdx+48]
	lea	rcx, QWORD PTR <begin>$L0$2[rbp]
	call	??1?$_Vector_iterator@V?$_Vector_val@U?$_Simple_types@V?$shared_ptr@VCell@@@std@@@std@@@std@@@std@@QEAA@XZ
	add	rsp, 32					; 00000020H
	pop	rbp
	ret	0
?dtor$0@?0??find_dermis@@YA?AV?$shared_ptr@VCell@@@std@@AEBV12@@Z@4HA ENDP ; `find_dermis'::`1'::dtor$0
text$x	ENDS
; Function compile flags: /Odtp /RTCu /ZI
;	COMDAT text$x
text$x	SEGMENT
cptr_ptr$ = 0
d1Sq$ = 8
distSq$ = 16
conn_memb_cell_set$ = 24
<range>$L0$1 = 32
<begin>$L0$2 = 40
<end>$L0$3 = 64
ccell$4 = 88
$T5 = 160
$T6 = 168
tv133 = 176
tv138 = 184
tv143 = 192
tv148 = 200
tv153 = 208
__$ArrayPad$ = 216
__$ReturnUdt$ = 240
me$ = 248
?dtor$1@?0??find_dermis@@YA?AV?$shared_ptr@VCell@@@std@@AEBV12@@Z@4HA PROC ; `find_dermis'::`1'::dtor$1
	push	rbp
	sub	rsp, 32					; 00000020H
	lea	rbp, QWORD PTR [rdx+48]
	lea	rcx, QWORD PTR <end>$L0$3[rbp]
	call	??1?$_Vector_iterator@V?$_Vector_val@U?$_Simple_types@V?$shared_ptr@VCell@@@std@@@std@@@std@@@std@@QEAA@XZ
	add	rsp, 32					; 00000020H
	pop	rbp
	ret	0
?dtor$1@?0??find_dermis@@YA?AV?$shared_ptr@VCell@@@std@@AEBV12@@Z@4HA ENDP ; `find_dermis'::`1'::dtor$1
text$x	ENDS
; Function compile flags: /Odtp /RTCu /ZI
; File c:\users\airp\source\repos\epi3\epi3\cell.cpp
;	COMDAT ?k_lipid@@YANNN@Z
_TEXT	SEGMENT
tv69 = 64
u$ = 96
age$ = 104
?k_lipid@@YANNN@Z PROC					; k_lipid, COMDAT

; 98   : {

$LN3:
	vmovsd	QWORD PTR [rsp+16], xmm1
	vmovsd	QWORD PTR [rsp+8], xmm0
	push	rbp
	sub	rsp, 112				; 00000070H
	lea	rbp, QWORD PTR [rsp+32]

; 99   : 	return 0.25*lipid*(1 + tanh((ubar - u) / 0.01))*(1 + tanh((age - THRESH_SP) / delta_lipid));

	vmovsd	xmm0, QWORD PTR __real@3fd0000000000000
	vsubsd	xmm0, xmm0, QWORD PTR u$[rbp]
	vdivsd	xmm0, xmm0, QWORD PTR __real@3f847ae147ae147b
	call	tanh
	vmovsd	xmm1, QWORD PTR __real@3ff0000000000000
	vaddsd	xmm0, xmm1, xmm0
	vmovsd	xmm1, QWORD PTR __real@3f80624dd2f1a9fc
	vmulsd	xmm0, xmm1, xmm0
	vmovsd	QWORD PTR tv69[rbp], xmm0
	vmovsd	xmm1, QWORD PTR age$[rbp]
	vsubsd	xmm1, xmm1, QWORD PTR __real@4008000000000000
	vdivsd	xmm1, xmm1, QWORD PTR __real@3fa999999999999a
	vmovups	xmm0, xmm1
	call	tanh
	vmovsd	xmm1, QWORD PTR __real@3ff0000000000000
	vaddsd	xmm0, xmm1, xmm0
	vmovsd	xmm1, QWORD PTR tv69[rbp]
	vmulsd	xmm0, xmm1, xmm0

; 100  : }

	lea	rsp, QWORD PTR [rbp+80]
	pop	rbp
	ret	0
?k_lipid@@YANNN@Z ENDP					; k_lipid
_TEXT	ENDS
; Function compile flags: /Odtp /RTCu /ZI
; File c:\users\airp\source\repos\epi3\epi3\cell.cpp
;	COMDAT ?k_lipid_release@@YANNN@Z
_TEXT	SEGMENT
tv69 = 64
u$ = 96
age$ = 104
?k_lipid_release@@YANNN@Z PROC				; k_lipid_release, COMDAT

; 93   : {

$LN3:
	vmovsd	QWORD PTR [rsp+16], xmm1
	vmovsd	QWORD PTR [rsp+8], xmm0
	push	rbp
	sub	rsp, 112				; 00000070H
	lea	rbp, QWORD PTR [rsp+32]

; 94   : 	return 0.25*lipid_rel*(1 + tanh((u - ubar) / 0.01))*(1 + tanh((age - THRESH_SP) / delta_lipid));

	vmovsd	xmm0, QWORD PTR u$[rbp]
	vsubsd	xmm0, xmm0, QWORD PTR __real@3fd0000000000000
	vdivsd	xmm0, xmm0, QWORD PTR __real@3f847ae147ae147b
	call	tanh
	vmovsd	xmm1, QWORD PTR __real@3ff0000000000000
	vaddsd	xmm0, xmm1, xmm0
	vmovsd	xmm1, QWORD PTR __real@3f8999999999999a
	vmulsd	xmm0, xmm1, xmm0
	vmovsd	QWORD PTR tv69[rbp], xmm0
	vmovsd	xmm1, QWORD PTR age$[rbp]
	vsubsd	xmm1, xmm1, QWORD PTR __real@4008000000000000
	vdivsd	xmm1, xmm1, QWORD PTR __real@3fa999999999999a
	vmovups	xmm0, xmm1
	call	tanh
	vmovsd	xmm1, QWORD PTR __real@3ff0000000000000
	vaddsd	xmm0, xmm1, xmm0
	vmovsd	xmm1, QWORD PTR tv69[rbp]
	vmulsd	xmm0, xmm1, xmm0

; 95   : }

	lea	rsp, QWORD PTR [rbp+80]
	pop	rbp
	ret	0
?k_lipid_release@@YANNN@Z ENDP				; k_lipid_release
_TEXT	ENDS
; Function compile flags: /Odtp /RTCu /ZI
; File c:\users\airp\source\repos\epi3\epi3\cell.cpp
;	COMDAT ??Rpair_coef@@QEAANAEBV?$shared_ptr@VCell@@@std@@0NNN@Z
_TEXT	SEGMENT
dist$ = 0
force$ = 8
this$ = 96
me$ = 104
oppo$ = 112
diffx$ = 120
diffy$ = 128
diffz$ = 136
??Rpair_coef@@QEAANAEBV?$shared_ptr@VCell@@@std@@0NNN@Z PROC ; pair_coef::operator(), COMDAT

; 205  : double pair_coef::operator()(const CellPtr& me, const CellPtr& oppo, double diffx, double diffy, double diffz) {

$LN3:
	vmovsd	QWORD PTR [rsp+32], xmm3
	mov	QWORD PTR [rsp+24], r8
	mov	QWORD PTR [rsp+16], rdx
	mov	QWORD PTR [rsp+8], rcx
	push	rbp
	sub	rsp, 112				; 00000070H
	lea	rbp, QWORD PTR [rsp+32]

; 206  : 	double dist = sqrt(normSq(diffx, diffy, diffz));

	vmovsd	xmm2, QWORD PTR diffz$[rbp]
	vmovsd	xmm1, QWORD PTR diffy$[rbp]
	vmovsd	xmm0, QWORD PTR diffx$[rbp]
	call	?normSq@@YANNNN@Z			; normSq
	call	sqrt
	vmovsd	QWORD PTR dist$[rbp], xmm0

; 207  : 	double force = Kspring_division*(dist - me->old_data.pair_spr_nat_len);

	mov	rcx, QWORD PTR me$[rbp]
	call	??C?$shared_ptr@VCell@@@std@@QEBAPEAVCell@@XZ ; std::shared_ptr<Cell>::operator->
	vmovsd	xmm0, QWORD PTR dist$[rbp]
	vsubsd	xmm0, xmm0, QWORD PTR [rax+336]
	vmovsd	xmm1, QWORD PTR __real@4014000000000000
	vmulsd	xmm0, xmm1, xmm0
	vmovsd	QWORD PTR force$[rbp], xmm0

; 208  : 	return force / dist;

	vmovsd	xmm0, QWORD PTR force$[rbp]
	vdivsd	xmm0, xmm0, QWORD PTR dist$[rbp]

; 209  : }

	lea	rsp, QWORD PTR [rbp+80]
	pop	rbp
	ret	0
??Rpair_coef@@QEAANAEBV?$shared_ptr@VCell@@@std@@0NNN@Z ENDP ; pair_coef::operator()
_TEXT	ENDS
; Function compile flags: /Odtp /RTCu /ZI
; File c:\users\airp\source\repos\epi3\epi3\cell.cpp
;	COMDAT ??Rstem_stem_coef@@QEAANAEBV?$shared_ptr@VCell@@@std@@0NNN@Z
_TEXT	SEGMENT
rad_sum$1 = 0
rad_sumSq$2 = 8
distSq$3 = 16
LJ1Sq$4 = 24
LJ6$5 = 32
tv74 = 104
this$ = 128
me$ = 136
oppo$ = 144
diffx$ = 152
diffy$ = 160
diffz$ = 168
??Rstem_stem_coef@@QEAANAEBV?$shared_ptr@VCell@@@std@@0NNN@Z PROC ; stem_stem_coef::operator(), COMDAT

; 184  : double stem_stem_coef::operator()(const CellPtr& me, const CellPtr& oppo, double diffx, double diffy, double diffz) {

$LN7:
	vmovsd	QWORD PTR [rsp+32], xmm3
	mov	QWORD PTR [rsp+24], r8
	mov	QWORD PTR [rsp+16], rdx
	mov	QWORD PTR [rsp+8], rcx
	push	rbp
	sub	rsp, 144				; 00000090H
	lea	rbp, QWORD PTR [rsp+32]

; 185  : 	if (me->old_data.div_pair_cell == oppo) {

	mov	rcx, QWORD PTR me$[rbp]
	call	??C?$shared_ptr@VCell@@@std@@QEBAPEAVCell@@XZ ; std::shared_ptr<Cell>::operator->
	add	rax, 384				; 00000180H
	mov	rdx, QWORD PTR oppo$[rbp]
	mov	rcx, rax
	call	??$?8VCell@@V0@@std@@YA_NAEBV?$shared_ptr@VCell@@@0@0@Z ; std::operator==<Cell,Cell>
	movzx	eax, al
	test	eax, eax
	je	SHORT $LN2@operator

; 186  : 		return 0;

	vxorps	xmm0, xmm0, xmm0
	jmp	$LN1@operator

; 187  : 	}
; 188  : 	else {

	jmp	$LN3@operator
$LN2@operator:

; 189  : 		double rad_sum = me->old_data.radius + oppo->old_data.radius;

	mov	rcx, QWORD PTR me$[rbp]
	call	??C?$shared_ptr@VCell@@@std@@QEBAPEAVCell@@XZ ; std::shared_ptr<Cell>::operator->
	mov	QWORD PTR tv74[rbp], rax
	mov	rcx, QWORD PTR oppo$[rbp]
	call	??C?$shared_ptr@VCell@@@std@@QEBAPEAVCell@@XZ ; std::shared_ptr<Cell>::operator->
	mov	rcx, QWORD PTR tv74[rbp]
	vmovsd	xmm0, QWORD PTR [rcx+272]
	vaddsd	xmm0, xmm0, QWORD PTR [rax+272]
	vmovsd	QWORD PTR rad_sum$1[rbp], xmm0

; 190  : 
; 191  : 		double rad_sumSq = rad_sum*rad_sum;

	vmovsd	xmm0, QWORD PTR rad_sum$1[rbp]
	vmulsd	xmm0, xmm0, QWORD PTR rad_sum$1[rbp]
	vmovsd	QWORD PTR rad_sumSq$2[rbp], xmm0

; 192  : 
; 193  : 		double distSq = normSq(diffx, diffy, diffz);

	vmovsd	xmm2, QWORD PTR diffz$[rbp]
	vmovsd	xmm1, QWORD PTR diffy$[rbp]
	vmovsd	xmm0, QWORD PTR diffx$[rbp]
	call	?normSq@@YANNNN@Z			; normSq
	vmovsd	QWORD PTR distSq$3[rbp], xmm0

; 194  : 		if (distSq < rad_sumSq) {

	vmovsd	xmm0, QWORD PTR rad_sumSq$2[rbp]
	vcomisd	xmm0, QWORD PTR distSq$3[rbp]
	jbe	SHORT $LN4@operator

; 195  : 			double LJ1Sq = rad_sumSq / distSq;

	vmovsd	xmm0, QWORD PTR rad_sumSq$2[rbp]
	vdivsd	xmm0, xmm0, QWORD PTR distSq$3[rbp]
	vmovsd	QWORD PTR LJ1Sq$4[rbp], xmm0

; 196  : 			double LJ6 = LJ1Sq*LJ1Sq*LJ1Sq;

	vmovsd	xmm0, QWORD PTR LJ1Sq$4[rbp]
	vmulsd	xmm0, xmm0, QWORD PTR LJ1Sq$4[rbp]
	vmulsd	xmm0, xmm0, QWORD PTR LJ1Sq$4[rbp]
	vmovsd	QWORD PTR LJ6$5[rbp], xmm0

; 197  : 			return 4.0*eps_m * LJ6 * (LJ6 - 1.0) / distSq;

	vmovsd	xmm0, QWORD PTR __real@3fa47ae147ae147b
	vmulsd	xmm0, xmm0, QWORD PTR LJ6$5[rbp]
	vmovsd	xmm1, QWORD PTR LJ6$5[rbp]
	vsubsd	xmm1, xmm1, QWORD PTR __real@3ff0000000000000
	vmulsd	xmm0, xmm0, xmm1
	vdivsd	xmm0, xmm0, QWORD PTR distSq$3[rbp]
	jmp	SHORT $LN1@operator

; 198  : 		}
; 199  : 		else {

	jmp	SHORT $LN5@operator
$LN4@operator:

; 200  : 			return adhesion(sqrt(distSq), rad_sum, K_DESMOSOME);

	vmovsd	xmm0, QWORD PTR distSq$3[rbp]
	call	sqrt
	vmovsd	xmm2, QWORD PTR __real@3f9eb851eb851eb8
	vmovsd	xmm1, QWORD PTR rad_sum$1[rbp]
	call	?adhesion@@YANNNN@Z			; adhesion
$LN5@operator:
$LN3@operator:
$LN1@operator:

; 201  : 		}
; 202  : 	}
; 203  : }

	lea	rsp, QWORD PTR [rbp+112]
	pop	rbp
	ret	0
??Rstem_stem_coef@@QEAANAEBV?$shared_ptr@VCell@@@std@@0NNN@Z ENDP ; stem_stem_coef::operator()
_TEXT	ENDS
; Function compile flags: /Odtp /RTCu /ZI
; File c:\users\airp\source\repos\epi3\epi3\cell.cpp
;	COMDAT ??Rsupra_others_coef@@QEAANAEBV?$shared_ptr@VCell@@@std@@0NNN@Z
_TEXT	SEGMENT
rad_sum$ = 0
rad_sumSq$ = 8
distSq$ = 16
LJ1Sq$1 = 24
LJ6$2 = 32
tv129 = 104
tv65 = 104
this$ = 128
me$ = 136
oppo$ = 144
diffx$ = 152
diffy$ = 160
diffz$ = 168
??Rsupra_others_coef@@QEAANAEBV?$shared_ptr@VCell@@@std@@0NNN@Z PROC ; supra_others_coef::operator(), COMDAT

; 167  : double supra_others_coef::operator()(const CellPtr& me, const CellPtr& oppo, double diffx, double diffy, double diffz) {

$LN7:
	vmovsd	QWORD PTR [rsp+32], xmm3
	mov	QWORD PTR [rsp+24], r8
	mov	QWORD PTR [rsp+16], rdx
	mov	QWORD PTR [rsp+8], rcx
	push	rbp
	sub	rsp, 144				; 00000090H
	lea	rbp, QWORD PTR [rsp+32]

; 168  : 	double rad_sum = me->old_data.radius + oppo->old_data.radius;

	mov	rcx, QWORD PTR me$[rbp]
	call	??C?$shared_ptr@VCell@@@std@@QEBAPEAVCell@@XZ ; std::shared_ptr<Cell>::operator->
	mov	QWORD PTR tv65[rbp], rax
	mov	rcx, QWORD PTR oppo$[rbp]
	call	??C?$shared_ptr@VCell@@@std@@QEBAPEAVCell@@XZ ; std::shared_ptr<Cell>::operator->
	mov	rcx, QWORD PTR tv65[rbp]
	vmovsd	xmm0, QWORD PTR [rcx+272]
	vaddsd	xmm0, xmm0, QWORD PTR [rax+272]
	vmovsd	QWORD PTR rad_sum$[rbp], xmm0

; 169  : 	double rad_sumSq = rad_sum*rad_sum;

	vmovsd	xmm0, QWORD PTR rad_sum$[rbp]
	vmulsd	xmm0, xmm0, QWORD PTR rad_sum$[rbp]
	vmovsd	QWORD PTR rad_sumSq$[rbp], xmm0

; 170  : 	double distSq = normSq(diffx, diffy, diffz);

	vmovsd	xmm2, QWORD PTR diffz$[rbp]
	vmovsd	xmm1, QWORD PTR diffy$[rbp]
	vmovsd	xmm0, QWORD PTR diffx$[rbp]
	call	?normSq@@YANNNN@Z			; normSq
	vmovsd	QWORD PTR distSq$[rbp], xmm0

; 171  : 	if (distSq < rad_sumSq) {

	vmovsd	xmm0, QWORD PTR rad_sumSq$[rbp]
	vcomisd	xmm0, QWORD PTR distSq$[rbp]
	jbe	SHORT $LN2@operator

; 172  : 		double LJ1Sq = rad_sumSq / distSq;

	vmovsd	xmm0, QWORD PTR rad_sumSq$[rbp]
	vdivsd	xmm0, xmm0, QWORD PTR distSq$[rbp]
	vmovsd	QWORD PTR LJ1Sq$1[rbp], xmm0

; 173  : 		double LJ6 = LJ1Sq*LJ1Sq*LJ1Sq;

	vmovsd	xmm0, QWORD PTR LJ1Sq$1[rbp]
	vmulsd	xmm0, xmm0, QWORD PTR LJ1Sq$1[rbp]
	vmulsd	xmm0, xmm0, QWORD PTR LJ1Sq$1[rbp]
	vmovsd	QWORD PTR LJ6$2[rbp], xmm0

; 174  : 		return 4.0*eps_m * LJ6 * (LJ6 - 1.0) / distSq;

	vmovsd	xmm0, QWORD PTR __real@3fa47ae147ae147b
	vmulsd	xmm0, xmm0, QWORD PTR LJ6$2[rbp]
	vmovsd	xmm1, QWORD PTR LJ6$2[rbp]
	vsubsd	xmm1, xmm1, QWORD PTR __real@3ff0000000000000
	vmulsd	xmm0, xmm0, xmm1
	vdivsd	xmm0, xmm0, QWORD PTR distSq$[rbp]
	jmp	SHORT $LN1@operator

; 175  : 	}
; 176  : 	else {

	jmp	SHORT $LN3@operator
$LN2@operator:

; 177  : 		return adhesion(sqrt(distSq), rad_sum,

	mov	rcx, QWORD PTR me$[rbp]
	call	??C?$shared_ptr@VCell@@@std@@QEBAPEAVCell@@XZ ; std::shared_ptr<Cell>::operator->
	vmovsd	xmm0, QWORD PTR [rax+304]
	vcomisd	xmm0, QWORD PTR __real@4008000000000000
	jbe	SHORT $LN5@operator
	mov	rcx, QWORD PTR oppo$[rbp]
	call	??C?$shared_ptr@VCell@@@std@@QEBAPEAVCell@@XZ ; std::shared_ptr<Cell>::operator->
	vmovsd	xmm0, QWORD PTR [rax+304]
	vcomisd	xmm0, QWORD PTR __real@4008000000000000
	jbe	SHORT $LN5@operator
	vmovsd	xmm0, QWORD PTR __real@4008000000000000
	vmovsd	QWORD PTR tv129[rbp], xmm0
	jmp	SHORT $LN6@operator
$LN5@operator:
	vmovsd	xmm0, QWORD PTR __real@3f9eb851eb851eb8
	vmovsd	QWORD PTR tv129[rbp], xmm0
$LN6@operator:
	vmovsd	xmm0, QWORD PTR distSq$[rbp]
	call	sqrt
	vmovsd	xmm2, QWORD PTR tv129[rbp]
	vmovsd	xmm1, QWORD PTR rad_sum$[rbp]
	call	?adhesion@@YANNNN@Z			; adhesion
$LN3@operator:
$LN1@operator:

; 178  : 			me->old_data.agek>THRESH_SP && oppo->old_data.agek > THRESH_SP ?
; 179  : 			K_TOTAL :
; 180  : 			K_DESMOSOME);
; 181  : 	}
; 182  : }

	lea	rsp, QWORD PTR [rbp+112]
	pop	rbp
	ret	0
??Rsupra_others_coef@@QEAANAEBV?$shared_ptr@VCell@@@std@@0NNN@Z ENDP ; supra_others_coef::operator()
_TEXT	ENDS
; Function compile flags: /Odtp /RTCu /ZI
; File c:\users\airp\source\repos\epi3\epi3\cell.cpp
;	COMDAT ??Rder_der_coef@@QEAANAEBV?$shared_ptr@VCell@@@std@@0NNN@Z
_TEXT	SEGMENT
rad_sum$ = 0
rad_sum_d$ = 8
rad_sumSq$ = 16
rad_sum_d_Sq$ = 24
distSq$ = 32
dist$1 = 40
dist_d$2 = 48
dist_d_Sq$3 = 56
LJ1Sq$4 = 64
LJ6$5 = 72
LJ1Sq$6 = 80
LJ6$7 = 88
tv65 = 160
this$ = 192
me$ = 200
oppo$ = 208
diffx$ = 216
diffy$ = 224
diffz$ = 232
??Rder_der_coef@@QEAANAEBV?$shared_ptr@VCell@@@std@@0NNN@Z PROC ; der_der_coef::operator(), COMDAT

; 142  : double der_der_coef::operator()(const CellPtr& me, const CellPtr& oppo, double diffx, double diffy, double diffz) {

$LN7:
	vmovsd	QWORD PTR [rsp+32], xmm3
	mov	QWORD PTR [rsp+24], r8
	mov	QWORD PTR [rsp+16], rdx
	mov	QWORD PTR [rsp+8], rcx
	push	rbp
	sub	rsp, 208				; 000000d0H
	lea	rbp, QWORD PTR [rsp+32]

; 143  : 	double rad_sum = me->old_data.radius + oppo->old_data.radius;

	mov	rcx, QWORD PTR me$[rbp]
	call	??C?$shared_ptr@VCell@@@std@@QEBAPEAVCell@@XZ ; std::shared_ptr<Cell>::operator->
	mov	QWORD PTR tv65[rbp], rax
	mov	rcx, QWORD PTR oppo$[rbp]
	call	??C?$shared_ptr@VCell@@@std@@QEBAPEAVCell@@XZ ; std::shared_ptr<Cell>::operator->
	mov	rcx, QWORD PTR tv65[rbp]
	vmovsd	xmm0, QWORD PTR [rcx+272]
	vaddsd	xmm0, xmm0, QWORD PTR [rax+272]
	vmovsd	QWORD PTR rad_sum$[rbp], xmm0

; 144  : 	double rad_sum_d = rad_sum - delta_R;

	vmovsd	xmm0, QWORD PTR rad_sum$[rbp]
	vsubsd	xmm0, xmm0, QWORD PTR __real@3fe1eb851eb851eb
	vmovsd	QWORD PTR rad_sum_d$[rbp], xmm0

; 145  : 
; 146  : 	double rad_sumSq = rad_sum*rad_sum;

	vmovsd	xmm0, QWORD PTR rad_sum$[rbp]
	vmulsd	xmm0, xmm0, QWORD PTR rad_sum$[rbp]
	vmovsd	QWORD PTR rad_sumSq$[rbp], xmm0

; 147  : 	double rad_sum_d_Sq = rad_sum_d*rad_sum_d;

	vmovsd	xmm0, QWORD PTR rad_sum_d$[rbp]
	vmulsd	xmm0, xmm0, QWORD PTR rad_sum_d$[rbp]
	vmovsd	QWORD PTR rad_sum_d_Sq$[rbp], xmm0

; 148  : 	double distSq = normSq(diffx, diffy, diffz);

	vmovsd	xmm2, QWORD PTR diffz$[rbp]
	vmovsd	xmm1, QWORD PTR diffy$[rbp]
	vmovsd	xmm0, QWORD PTR diffx$[rbp]
	call	?normSq@@YANNNN@Z			; normSq
	vmovsd	QWORD PTR distSq$[rbp], xmm0

; 149  : 	if (distSq < rad_sum_d_Sq) {

	vmovsd	xmm0, QWORD PTR rad_sum_d_Sq$[rbp]
	vcomisd	xmm0, QWORD PTR distSq$[rbp]
	jbe	$LN2@operator

; 150  : 		double dist = sqrt(distSq);

	vmovsd	xmm0, QWORD PTR distSq$[rbp]
	call	sqrt
	vmovsd	QWORD PTR dist$1[rbp], xmm0

; 151  : 		double dist_d = dist + delta_R;

	vmovsd	xmm0, QWORD PTR dist$1[rbp]
	vaddsd	xmm0, xmm0, QWORD PTR __real@3fe1eb851eb851eb
	vmovsd	QWORD PTR dist_d$2[rbp], xmm0

; 152  : 		double dist_d_Sq = dist_d*dist_d;

	vmovsd	xmm0, QWORD PTR dist_d$2[rbp]
	vmulsd	xmm0, xmm0, QWORD PTR dist_d$2[rbp]
	vmovsd	QWORD PTR dist_d_Sq$3[rbp], xmm0

; 153  : 		double LJ1Sq = rad_sumSq / dist_d_Sq;

	vmovsd	xmm0, QWORD PTR rad_sumSq$[rbp]
	vdivsd	xmm0, xmm0, QWORD PTR dist_d_Sq$3[rbp]
	vmovsd	QWORD PTR LJ1Sq$4[rbp], xmm0

; 154  : 		double LJ6 = LJ1Sq*LJ1Sq*LJ1Sq;

	vmovsd	xmm0, QWORD PTR LJ1Sq$4[rbp]
	vmulsd	xmm0, xmm0, QWORD PTR LJ1Sq$4[rbp]
	vmulsd	xmm0, xmm0, QWORD PTR LJ1Sq$4[rbp]
	vmovsd	QWORD PTR LJ6$5[rbp], xmm0

; 155  : 		return 4.0*eps_m * LJ6 * (LJ6 - 1.0) / (dist_d*dist) + para_ljp2;

	vmovsd	xmm0, QWORD PTR __real@3fa47ae147ae147b
	vmulsd	xmm0, xmm0, QWORD PTR LJ6$5[rbp]
	vmovsd	xmm1, QWORD PTR LJ6$5[rbp]
	vsubsd	xmm1, xmm1, QWORD PTR __real@3ff0000000000000
	vmulsd	xmm0, xmm0, xmm1
	vmovsd	xmm1, QWORD PTR dist_d$2[rbp]
	vmulsd	xmm1, xmm1, QWORD PTR dist$1[rbp]
	vdivsd	xmm0, xmm0, xmm1
	vaddsd	xmm0, xmm0, QWORD PTR __real@3f747ae147ae147b
	jmp	SHORT $LN1@operator
	jmp	SHORT $LN3@operator
$LN2@operator:

; 156  : 	}
; 157  : 	else if (distSq<rad_sumSq) {

	vmovsd	xmm0, QWORD PTR rad_sumSq$[rbp]
	vcomisd	xmm0, QWORD PTR distSq$[rbp]
	jbe	SHORT $LN4@operator

; 158  : 		return para_ljp2;

	vmovsd	xmm0, QWORD PTR __real@3f747ae147ae147b
	jmp	SHORT $LN1@operator

; 159  : 	}
; 160  : 	else {

	jmp	SHORT $LN5@operator
$LN4@operator:

; 161  : 		double LJ1Sq = rad_sumSq / distSq;

	vmovsd	xmm0, QWORD PTR rad_sumSq$[rbp]
	vdivsd	xmm0, xmm0, QWORD PTR distSq$[rbp]
	vmovsd	QWORD PTR LJ1Sq$6[rbp], xmm0

; 162  : 		double LJ6 = LJ1Sq*LJ1Sq*LJ1Sq;

	vmovsd	xmm0, QWORD PTR LJ1Sq$6[rbp]
	vmulsd	xmm0, xmm0, QWORD PTR LJ1Sq$6[rbp]
	vmulsd	xmm0, xmm0, QWORD PTR LJ1Sq$6[rbp]
	vmovsd	QWORD PTR LJ6$7[rbp], xmm0

; 163  : 		return 4.0*eps_m * LJ6 * (LJ6 - 1.0) / distSq + para_ljp2;

	vmovsd	xmm0, QWORD PTR __real@3fa47ae147ae147b
	vmulsd	xmm0, xmm0, QWORD PTR LJ6$7[rbp]
	vmovsd	xmm1, QWORD PTR LJ6$7[rbp]
	vsubsd	xmm1, xmm1, QWORD PTR __real@3ff0000000000000
	vmulsd	xmm0, xmm0, xmm1
	vdivsd	xmm0, xmm0, QWORD PTR distSq$[rbp]
	vaddsd	xmm0, xmm0, QWORD PTR __real@3f747ae147ae147b
$LN5@operator:
$LN3@operator:
$LN1@operator:

; 164  : 	}
; 165  : }

	lea	rsp, QWORD PTR [rbp+176]
	pop	rbp
	ret	0
??Rder_der_coef@@QEAANAEBV?$shared_ptr@VCell@@@std@@0NNN@Z ENDP ; der_der_coef::operator()
_TEXT	ENDS
; Function compile flags: /Odtp /RTCu /ZI
; File c:\users\airp\source\repos\epi3\epi3\cell.cpp
;	COMDAT ??Rcommon_common_coef@@QEAANAEBV?$shared_ptr@VCell@@@std@@0NNN@Z
_TEXT	SEGMENT
distSq$ = 0
LJ1Sq$ = 8
LJ6$ = 16
tv69 = 88
this$ = 112
me$ = 120
oppo$ = 128
diffx$ = 136
diffy$ = 144
diffz$ = 152
??Rcommon_common_coef@@QEAANAEBV?$shared_ptr@VCell@@@std@@0NNN@Z PROC ; common_common_coef::operator(), COMDAT

; 135  : double common_common_coef::operator()(const CellPtr& me, const CellPtr& oppo, double diffx, double diffy, double diffz) {

$LN3:
	vmovsd	QWORD PTR [rsp+32], xmm3
	mov	QWORD PTR [rsp+24], r8
	mov	QWORD PTR [rsp+16], rdx
	mov	QWORD PTR [rsp+8], rcx
	push	rbp
	sub	rsp, 128				; 00000080H
	lea	rbp, QWORD PTR [rsp+32]

; 136  : 	double distSq = normSq(diffx, diffy, diffz);

	vmovsd	xmm2, QWORD PTR diffz$[rbp]
	vmovsd	xmm1, QWORD PTR diffy$[rbp]
	vmovsd	xmm0, QWORD PTR diffx$[rbp]
	call	?normSq@@YANNNN@Z			; normSq
	vmovsd	QWORD PTR distSq$[rbp], xmm0

; 137  : 	double LJ1Sq = (me->old_data.radius + oppo->old_data.radius) / distSq;

	mov	rcx, QWORD PTR me$[rbp]
	call	??C?$shared_ptr@VCell@@@std@@QEBAPEAVCell@@XZ ; std::shared_ptr<Cell>::operator->
	mov	QWORD PTR tv69[rbp], rax
	mov	rcx, QWORD PTR oppo$[rbp]
	call	??C?$shared_ptr@VCell@@@std@@QEBAPEAVCell@@XZ ; std::shared_ptr<Cell>::operator->
	mov	rcx, QWORD PTR tv69[rbp]
	vmovsd	xmm0, QWORD PTR [rcx+272]
	vaddsd	xmm0, xmm0, QWORD PTR [rax+272]
	vdivsd	xmm0, xmm0, QWORD PTR distSq$[rbp]
	vmovsd	QWORD PTR LJ1Sq$[rbp], xmm0

; 138  : 	double LJ6 = LJ1Sq*LJ1Sq*LJ1Sq;

	vmovsd	xmm0, QWORD PTR LJ1Sq$[rbp]
	vmulsd	xmm0, xmm0, QWORD PTR LJ1Sq$[rbp]
	vmulsd	xmm0, xmm0, QWORD PTR LJ1Sq$[rbp]
	vmovsd	QWORD PTR LJ6$[rbp], xmm0

; 139  : 	return 4.0*eps_m * LJ6 * (LJ6 - 1.0) / distSq;

	vmovsd	xmm0, QWORD PTR __real@3fa47ae147ae147b
	vmulsd	xmm0, xmm0, QWORD PTR LJ6$[rbp]
	vmovsd	xmm1, QWORD PTR LJ6$[rbp]
	vsubsd	xmm1, xmm1, QWORD PTR __real@3ff0000000000000
	vmulsd	xmm0, xmm0, xmm1
	vdivsd	xmm0, xmm0, QWORD PTR distSq$[rbp]

; 140  : }

	lea	rsp, QWORD PTR [rbp+96]
	pop	rbp
	ret	0
??Rcommon_common_coef@@QEAANAEBV?$shared_ptr@VCell@@@std@@0NNN@Z ENDP ; common_common_coef::operator()
_TEXT	ENDS
; Function compile flags: /Odtp /RTCu /ZI
; File c:\users\airp\source\repos\epi3\epi3\cell.cpp
;	COMDAT ??Rnull_coef@@QEAANAEBV?$shared_ptr@VCell@@@std@@0NNN@Z
_TEXT	SEGMENT
this$ = 80
me$ = 88
oppo$ = 96
diffx$ = 104
diffy$ = 112
diffz$ = 120
??Rnull_coef@@QEAANAEBV?$shared_ptr@VCell@@@std@@0NNN@Z PROC ; null_coef::operator(), COMDAT

; 131  : double null_coef::operator()(const CellPtr& me, const CellPtr& oppo, double diffx, double diffy, double diffz) {

$LN3:
	vmovsd	QWORD PTR [rsp+32], xmm3
	mov	QWORD PTR [rsp+24], r8
	mov	QWORD PTR [rsp+16], rdx
	mov	QWORD PTR [rsp+8], rcx
	push	rbp
	sub	rsp, 64					; 00000040H
	mov	rbp, rsp

; 132  : 	return 0;

	vxorps	xmm0, xmm0, xmm0

; 133  : }

	lea	rsp, QWORD PTR [rbp+64]
	pop	rbp
	ret	0
??Rnull_coef@@QEAANAEBV?$shared_ptr@VCell@@@std@@0NNN@Z ENDP ; null_coef::operator()
_TEXT	ENDS
; Function compile flags: /Odtp /RTCu /ZI
; File c:\users\airp\source\repos\epi3\epi3\cell.cpp
;	COMDAT ??Rmemb_memb_coef@@QEAANAEBV?$shared_ptr@VCell@@@std@@0NNN@Z
_TEXT	SEGMENT
distSq$ = 0
rad_sum$ = 8
rad_sumSq$ = 16
cr_dist$ = 24
cr_distSq$ = 32
LJ6$1 = 40
distlj$2 = 48
lambda_dist$3 = 56
dist_delta$4 = 64
dist_deltaSq$5 = 72
dum_lj6$6 = 80
tv69 = 152
this$ = 176
me$ = 184
oppo$ = 192
diffx$ = 200
diffy$ = 208
diffz$ = 216
??Rmemb_memb_coef@@QEAANAEBV?$shared_ptr@VCell@@@std@@0NNN@Z PROC ; memb_memb_coef::operator(), COMDAT

; 102  : double memb_memb_coef::operator()(const CellPtr& me, const CellPtr& oppo, double diffx, double diffy, double diffz) {

$LN7:
	vmovsd	QWORD PTR [rsp+32], xmm3
	mov	QWORD PTR [rsp+24], r8
	mov	QWORD PTR [rsp+16], rdx
	mov	QWORD PTR [rsp+8], rcx
	push	rbp
	sub	rsp, 192				; 000000c0H
	lea	rbp, QWORD PTR [rsp+32]

; 103  : 	/* core of heavy part */
; 104  : 	//		std::cout << "hello" << std::endl;
; 105  : 	double distSq = normSq(diffx, diffy, diffz);

	vmovsd	xmm2, QWORD PTR diffz$[rbp]
	vmovsd	xmm1, QWORD PTR diffy$[rbp]
	vmovsd	xmm0, QWORD PTR diffx$[rbp]
	call	?normSq@@YANNNN@Z			; normSq
	vmovsd	QWORD PTR distSq$[rbp], xmm0

; 106  : 	double rad_sum = me->old_data.radius + oppo->old_data.radius;

	mov	rcx, QWORD PTR me$[rbp]
	call	??C?$shared_ptr@VCell@@@std@@QEBAPEAVCell@@XZ ; std::shared_ptr<Cell>::operator->
	mov	QWORD PTR tv69[rbp], rax
	mov	rcx, QWORD PTR oppo$[rbp]
	call	??C?$shared_ptr@VCell@@@std@@QEBAPEAVCell@@XZ ; std::shared_ptr<Cell>::operator->
	mov	rcx, QWORD PTR tv69[rbp]
	vmovsd	xmm0, QWORD PTR [rcx+272]
	vaddsd	xmm0, xmm0, QWORD PTR [rax+272]
	vmovsd	QWORD PTR rad_sum$[rbp], xmm0

; 107  : 	double rad_sumSq = rad_sum*rad_sum;

	vmovsd	xmm0, QWORD PTR rad_sum$[rbp]
	vmulsd	xmm0, xmm0, QWORD PTR rad_sum$[rbp]
	vmovsd	QWORD PTR rad_sumSq$[rbp], xmm0

; 108  : 	double cr_dist = rad_sum*P_MEMB; double cr_distSq = rad_sumSq*P_MEMB*P_MEMB;//constexpr

	vmovsd	xmm0, QWORD PTR rad_sum$[rbp]
	vmulsd	xmm0, xmm0, QWORD PTR __real@3fd0000000000000
	vmovsd	QWORD PTR cr_dist$[rbp], xmm0
	vmovsd	xmm0, QWORD PTR rad_sumSq$[rbp]
	vmulsd	xmm0, xmm0, QWORD PTR __real@3fd0000000000000
	vmulsd	xmm0, xmm0, QWORD PTR __real@3fd0000000000000
	vmovsd	QWORD PTR cr_distSq$[rbp], xmm0

; 109  : 
; 110  : 	if (distSq < cr_distSq) {

	vmovsd	xmm0, QWORD PTR cr_distSq$[rbp]
	vcomisd	xmm0, QWORD PTR distSq$[rbp]
	jbe	SHORT $LN2@operator

; 111  : 		double LJ6 = cr_distSq*cr_distSq*cr_distSq / (distSq*distSq*distSq);

	vmovsd	xmm0, QWORD PTR cr_distSq$[rbp]
	vmulsd	xmm0, xmm0, QWORD PTR cr_distSq$[rbp]
	vmulsd	xmm0, xmm0, QWORD PTR cr_distSq$[rbp]
	vmovsd	xmm1, QWORD PTR distSq$[rbp]
	vmulsd	xmm1, xmm1, QWORD PTR distSq$[rbp]
	vmulsd	xmm1, xmm1, QWORD PTR distSq$[rbp]
	vdivsd	xmm0, xmm0, xmm1
	vmovsd	QWORD PTR LJ6$1[rbp], xmm0

; 112  : 		return 4 * eps_m * LJ6*(LJ6 - 1.0) / distSq;

	vmovsd	xmm0, QWORD PTR __real@3fa47ae147ae147b
	vmulsd	xmm0, xmm0, QWORD PTR LJ6$1[rbp]
	vmovsd	xmm1, QWORD PTR LJ6$1[rbp]
	vsubsd	xmm1, xmm1, QWORD PTR __real@3ff0000000000000
	vmulsd	xmm0, xmm0, xmm1
	vdivsd	xmm0, xmm0, QWORD PTR distSq$[rbp]
	jmp	$LN1@operator

; 113  : 	}
; 114  : 	else {

	jmp	$LN3@operator
$LN2@operator:

; 115  : 		double distlj = sqrt(distSq);

	vmovsd	xmm0, QWORD PTR distSq$[rbp]
	call	sqrt
	vmovsd	QWORD PTR distlj$2[rbp], xmm0

; 116  : 		if (distSq < rad_sumSq) {

	vmovsd	xmm0, QWORD PTR rad_sumSq$[rbp]
	vcomisd	xmm0, QWORD PTR distSq$[rbp]
	jbe	SHORT $LN4@operator

; 117  : 
; 118  : 			return -(DER_DER_CONST / distlj) * (distlj / cr_dist - 1.0);

	vmovsd	xmm0, QWORD PTR __real@3fc999999999999a
	vdivsd	xmm0, xmm0, QWORD PTR distlj$2[rbp]
	vxorpd	xmm0, xmm0, QWORD PTR __xmm@80000000000000008000000000000000
	vmovsd	xmm1, QWORD PTR distlj$2[rbp]
	vdivsd	xmm1, xmm1, QWORD PTR cr_dist$[rbp]
	vsubsd	xmm1, xmm1, QWORD PTR __real@3ff0000000000000
	vmulsd	xmm0, xmm0, xmm1
	jmp	$LN1@operator

; 119  : 		}
; 120  : 		else {

	jmp	$LN5@operator
$LN4@operator:

; 121  : 			double lambda_dist = (1.0 + P_MEMB)*rad_sum;

	vmovsd	xmm0, QWORD PTR __real@3ff4000000000000
	vmulsd	xmm0, xmm0, QWORD PTR rad_sum$[rbp]
	vmovsd	QWORD PTR lambda_dist$3[rbp], xmm0

; 122  : 			double dist_delta = lambda_dist - distlj; double dist_deltaSq = dist_delta*dist_delta;

	vmovsd	xmm0, QWORD PTR lambda_dist$3[rbp]
	vsubsd	xmm0, xmm0, QWORD PTR distlj$2[rbp]
	vmovsd	QWORD PTR dist_delta$4[rbp], xmm0
	vmovsd	xmm0, QWORD PTR dist_delta$4[rbp]
	vmulsd	xmm0, xmm0, QWORD PTR dist_delta$4[rbp]
	vmovsd	QWORD PTR dist_deltaSq$5[rbp], xmm0

; 123  : 			double dum_lj6 = cr_distSq*cr_distSq*cr_distSq / (dist_deltaSq*dist_deltaSq*dist_deltaSq);

	vmovsd	xmm0, QWORD PTR cr_distSq$[rbp]
	vmulsd	xmm0, xmm0, QWORD PTR cr_distSq$[rbp]
	vmulsd	xmm0, xmm0, QWORD PTR cr_distSq$[rbp]
	vmovsd	xmm1, QWORD PTR dist_deltaSq$5[rbp]
	vmulsd	xmm1, xmm1, QWORD PTR dist_deltaSq$5[rbp]
	vmulsd	xmm1, xmm1, QWORD PTR dist_deltaSq$5[rbp]
	vdivsd	xmm0, xmm0, xmm1
	vmovsd	QWORD PTR dum_lj6$6[rbp], xmm0

; 124  : 
; 125  : 			return -(DER_DER_CONST / rad_sum)*((1.0 - P_MEMB) / P_MEMB)

	vmovsd	xmm0, QWORD PTR __real@3fc999999999999a
	vdivsd	xmm0, xmm0, QWORD PTR rad_sum$[rbp]
	vxorpd	xmm0, xmm0, QWORD PTR __xmm@80000000000000008000000000000000
	vmulsd	xmm0, xmm0, QWORD PTR __real@4008000000000000
	vmovsd	xmm1, QWORD PTR dum_lj6$6[rbp]
	vsubsd	xmm1, xmm1, QWORD PTR __real@3ff0000000000000
	vmovsd	xmm2, QWORD PTR dum_lj6$6[rbp]
	vmulsd	xmm1, xmm2, xmm1
	vmovsd	xmm2, QWORD PTR __real@3fa47ae147ae147b
	vmulsd	xmm1, xmm2, xmm1
	vmovsd	xmm2, QWORD PTR dist_delta$4[rbp]
	vmulsd	xmm2, xmm2, QWORD PTR distlj$2[rbp]
	vdivsd	xmm1, xmm1, xmm2
	vsubsd	xmm0, xmm0, xmm1
$LN5@operator:
$LN3@operator:
$LN1@operator:

; 126  : 				- 4 * eps_m*(dum_lj6*(dum_lj6 - 1.0)) / (dist_delta*distlj);
; 127  : 		}
; 128  : 	}
; 129  : }

	lea	rsp, QWORD PTR [rbp+160]
	pop	rbp
	ret	0
??Rmemb_memb_coef@@QEAANAEBV?$shared_ptr@VCell@@@std@@0NNN@Z ENDP ; memb_memb_coef::operator()
_TEXT	ENDS
; Function compile flags: /Odtp /RTCu /ZI
; File c:\users\airp\source\repos\epi3\epi3\cell.cpp
;	COMDAT ?interac_wall@@YAXAEAV?$shared_ptr@VCell@@@std@@@Z
_TEXT	SEGMENT
distlj$ = 0
LJ1$ = 8
dum_lj6$ = 16
dum_ljmain$ = 24
zz$ = 32
lj1sq$ = 40
tv95 = 112
me$ = 144
?interac_wall@@YAXAEAV?$shared_ptr@VCell@@@std@@@Z PROC	; interac_wall, COMDAT

; 51   : void interac_wall(CellPtr& me) {

$LN3:
	mov	QWORD PTR [rsp+8], rcx
	push	rbp
	sub	rsp, 160				; 000000a0H
	lea	rbp, QWORD PTR [rsp+32]

; 52   : 	double distlj, LJ1, dum_lj6, dum_ljmain,zz;
; 53   : 	zz = me->old_data.z;

	mov	rcx, QWORD PTR me$[rbp]
	call	??C?$shared_ptr@VCell@@@std@@QEBAPEAVCell@@XZ ; std::shared_ptr<Cell>::operator->
	vmovsd	xmm0, QWORD PTR [rax+264]
	vmovsd	QWORD PTR zz$[rbp], xmm0

; 54   : 	distlj = 2 * zz;

	vmovsd	xmm0, QWORD PTR __real@4000000000000000
	vmulsd	xmm0, xmm0, QWORD PTR zz$[rbp]
	vmovsd	QWORD PTR distlj$[rbp], xmm0

; 55   : 	//double d_inv = 1 / distlj;
; 56   : 	LJ1 = 2 * me->old_data.radius/distlj;

	mov	rcx, QWORD PTR me$[rbp]
	call	??C?$shared_ptr@VCell@@@std@@QEBAPEAVCell@@XZ ; std::shared_ptr<Cell>::operator->
	vmovsd	xmm0, QWORD PTR __real@4000000000000000
	vmulsd	xmm0, xmm0, QWORD PTR [rax+272]
	vdivsd	xmm0, xmm0, QWORD PTR distlj$[rbp]
	vmovsd	QWORD PTR LJ1$[rbp], xmm0

; 57   : 	double lj1sq = LJ1*LJ1;

	vmovsd	xmm0, QWORD PTR LJ1$[rbp]
	vmulsd	xmm0, xmm0, QWORD PTR LJ1$[rbp]
	vmovsd	QWORD PTR lj1sq$[rbp], xmm0

; 58   : 	dum_lj6 = lj1sq*lj1sq*lj1sq;

	vmovsd	xmm0, QWORD PTR lj1sq$[rbp]
	vmulsd	xmm0, xmm0, QWORD PTR lj1sq$[rbp]
	vmulsd	xmm0, xmm0, QWORD PTR lj1sq$[rbp]
	vmovsd	QWORD PTR dum_lj6$[rbp], xmm0

; 59   : 	dum_ljmain = 4.0*eps_m * dum_lj6 * (dum_lj6 - 1.0) /(distlj*distlj);

	vmovsd	xmm0, QWORD PTR __real@3fa47ae147ae147b
	vmulsd	xmm0, xmm0, QWORD PTR dum_lj6$[rbp]
	vmovsd	xmm1, QWORD PTR dum_lj6$[rbp]
	vsubsd	xmm1, xmm1, QWORD PTR __real@3ff0000000000000
	vmulsd	xmm0, xmm0, xmm1
	vmovsd	xmm1, QWORD PTR distlj$[rbp]
	vmulsd	xmm1, xmm1, QWORD PTR distlj$[rbp]
	vdivsd	xmm0, xmm0, xmm1
	vmovsd	QWORD PTR dum_ljmain$[rbp], xmm0

; 60   : 
; 61   : 	me->data.z = zz + DT_Cell*(4.0*eps_m * dum_lj6 * (dum_lj6 - 1.0) / (distlj*distlj)) * 2 * zz;

	vmovsd	xmm0, QWORD PTR __real@3fa47ae147ae147b
	vmulsd	xmm0, xmm0, QWORD PTR dum_lj6$[rbp]
	vmovsd	xmm1, QWORD PTR dum_lj6$[rbp]
	vsubsd	xmm1, xmm1, QWORD PTR __real@3ff0000000000000
	vmulsd	xmm0, xmm0, xmm1
	vmovsd	xmm1, QWORD PTR distlj$[rbp]
	vmulsd	xmm1, xmm1, QWORD PTR distlj$[rbp]
	vdivsd	xmm0, xmm0, xmm1
	vmovsd	xmm1, QWORD PTR __real@3f847ae147ae147b
	vmulsd	xmm0, xmm1, xmm0
	vmulsd	xmm0, xmm0, QWORD PTR __real@4000000000000000
	vmulsd	xmm0, xmm0, QWORD PTR zz$[rbp]
	vmovsd	xmm1, QWORD PTR zz$[rbp]
	vaddsd	xmm0, xmm1, xmm0
	vmovsd	QWORD PTR tv95[rbp], xmm0
	mov	rcx, QWORD PTR me$[rbp]
	call	??C?$shared_ptr@VCell@@@std@@QEBAPEAVCell@@XZ ; std::shared_ptr<Cell>::operator->
	vmovsd	xmm0, QWORD PTR tv95[rbp]
	vmovsd	QWORD PTR [rax+16], xmm0

; 62   : }

	lea	rsp, QWORD PTR [rbp+128]
	pop	rbp
	ret	0
?interac_wall@@YAXAEAV?$shared_ptr@VCell@@@std@@@Z ENDP	; interac_wall
_TEXT	ENDS
; Function compile flags: /Odtp /RTCu /ZI
; File c:\users\airp\source\repos\epi3\epi3\cell.cpp
;	COMDAT ?div_direction@Cell@@AEAAXAEBUCellData@@0PEAN11@Z
_TEXT	SEGMENT
rand_theta$ = 8
rand_phi$ = 16
cr1$ = 24
sr1$ = 32
cr2$ = 40
sr2$ = 48
randnx$ = 56
randny$ = 64
randnz$ = 72
sum$ = 80
nx1$ = 88
ny1$ = 96
nz1$ = 104
lx$ = 112
ly$ = 120
lz$ = 128
__$ArrayPad$ = 200
this$ = 224
me_data$ = 232
dermis_data$ = 240
nx$ = 248
ny$ = 256
nz$ = 264
?div_direction@Cell@@AEAAXAEBUCellData@@0PEAN11@Z PROC	; Cell::div_direction, COMDAT

; 22   : void Cell::div_direction(const CellData& me_data, const CellData& dermis_data, double *nx, double *ny, double *nz) {

$LN6:
	mov	QWORD PTR [rsp+32], r9
	mov	QWORD PTR [rsp+24], r8
	mov	QWORD PTR [rsp+16], rdx
	mov	QWORD PTR [rsp+8], rcx
	push	rbp
	sub	rsp, 256				; 00000100H
	lea	rbp, QWORD PTR [rsp+48]
	mov	rax, QWORD PTR __security_cookie
	xor	rax, rbp
	mov	QWORD PTR __$ArrayPad$[rbp], rax

; 23   : 	double rand_arg, rand_theta, rand_phi, cr1, sr1, cr2, sr2;
; 24   : 	double randnx, randny, randnz, sum;
; 25   : 	double nx1, ny1, nz1;
; 26   : 	double lx, ly, lz;
; 27   : 
; 28   : 	calc_normal(me_data,dermis_data,&lx, &ly, &lz);

	lea	rax, QWORD PTR lz$[rbp]
	mov	QWORD PTR [rsp+32], rax
	lea	r9, QWORD PTR ly$[rbp]
	lea	r8, QWORD PTR lx$[rbp]
	mov	rdx, QWORD PTR dermis_data$[rbp]
	mov	rcx, QWORD PTR me_data$[rbp]
	call	?calc_normal@@YAXAEBUCellData@@0PEAN11@Z ; calc_normal
$LN4@div_direct:

; 29   : 	do {
; 30   : 		rand_theta = M_PI*genrand_real();

	call	?genrand_real@@YANXZ			; genrand_real
	vmovsd	xmm1, QWORD PTR __real@400921fb54442d18
	vmulsd	xmm0, xmm1, xmm0
	vmovsd	QWORD PTR rand_theta$[rbp], xmm0

; 31   : 		cr1 = cos(rand_theta);

	vmovsd	xmm0, QWORD PTR rand_theta$[rbp]
	call	cos
	vmovsd	QWORD PTR cr1$[rbp], xmm0

; 32   : 		sr1 = sin(rand_theta);

	vmovsd	xmm0, QWORD PTR rand_theta$[rbp]
	call	sin
	vmovsd	QWORD PTR sr1$[rbp], xmm0

; 33   : 		rand_phi = 2 * M_PI*genrand_real();

	call	?genrand_real@@YANXZ			; genrand_real
	vmovsd	xmm1, QWORD PTR __real@401921fb54442d18
	vmulsd	xmm0, xmm1, xmm0
	vmovsd	QWORD PTR rand_phi$[rbp], xmm0

; 34   : 		cr2 = cos(rand_phi);

	vmovsd	xmm0, QWORD PTR rand_phi$[rbp]
	call	cos
	vmovsd	QWORD PTR cr2$[rbp], xmm0

; 35   : 		sr2 = sin(rand_phi);

	vmovsd	xmm0, QWORD PTR rand_phi$[rbp]
	call	sin
	vmovsd	QWORD PTR sr2$[rbp], xmm0

; 36   : 
; 37   : 		randnx = sr1 * cr2;

	vmovsd	xmm0, QWORD PTR sr1$[rbp]
	vmulsd	xmm0, xmm0, QWORD PTR cr2$[rbp]
	vmovsd	QWORD PTR randnx$[rbp], xmm0

; 38   : 		randny = sr1 * sr2;

	vmovsd	xmm0, QWORD PTR sr1$[rbp]
	vmulsd	xmm0, xmm0, QWORD PTR sr2$[rbp]
	vmovsd	QWORD PTR randny$[rbp], xmm0

; 39   : 		randnz = cr1;

	vmovsd	xmm0, QWORD PTR cr1$[rbp]
	vmovsd	QWORD PTR randnz$[rbp], xmm0

; 40   : 
; 41   : 		// take the outer product of the normal l and a random unit vector
; 42   : 		nx1 = ly * randnz - lz * randny;

	vmovsd	xmm0, QWORD PTR ly$[rbp]
	vmulsd	xmm0, xmm0, QWORD PTR randnz$[rbp]
	vmovsd	xmm1, QWORD PTR lz$[rbp]
	vmulsd	xmm1, xmm1, QWORD PTR randny$[rbp]
	vsubsd	xmm0, xmm0, xmm1
	vmovsd	QWORD PTR nx1$[rbp], xmm0

; 43   : 		ny1 = lz * randnx - lx * randnz;

	vmovsd	xmm0, QWORD PTR lz$[rbp]
	vmulsd	xmm0, xmm0, QWORD PTR randnx$[rbp]
	vmovsd	xmm1, QWORD PTR lx$[rbp]
	vmulsd	xmm1, xmm1, QWORD PTR randnz$[rbp]
	vsubsd	xmm0, xmm0, xmm1
	vmovsd	QWORD PTR ny1$[rbp], xmm0

; 44   : 		nz1 = lx * randny - ly * randnx;

	vmovsd	xmm0, QWORD PTR lx$[rbp]
	vmulsd	xmm0, xmm0, QWORD PTR randny$[rbp]
	vmovsd	xmm1, QWORD PTR ly$[rbp]
	vmulsd	xmm1, xmm1, QWORD PTR randnx$[rbp]
	vsubsd	xmm0, xmm0, xmm1
	vmovsd	QWORD PTR nz1$[rbp], xmm0

; 45   : 	} while ((sum = nx1*nx1 + ny1*ny1 + nz1*nz1) < 1.0e-14);

	vmovsd	xmm0, QWORD PTR nx1$[rbp]
	vmulsd	xmm0, xmm0, QWORD PTR nx1$[rbp]
	vmovsd	xmm1, QWORD PTR ny1$[rbp]
	vmulsd	xmm1, xmm1, QWORD PTR ny1$[rbp]
	vaddsd	xmm0, xmm0, xmm1
	vmovsd	xmm1, QWORD PTR nz1$[rbp]
	vmulsd	xmm1, xmm1, QWORD PTR nz1$[rbp]
	vaddsd	xmm0, xmm0, xmm1
	vmovsd	QWORD PTR sum$[rbp], xmm0
	vmovsd	xmm0, QWORD PTR __real@3d06849b86a12b9b
	vcomisd	xmm0, QWORD PTR sum$[rbp]
	ja	$LN4@div_direct

; 46   : 	sum = sqrt(sum);

	vmovsd	xmm0, QWORD PTR sum$[rbp]
	call	sqrt
	vmovsd	QWORD PTR sum$[rbp], xmm0

; 47   : 	*nx = nx1 / sum;

	vmovsd	xmm0, QWORD PTR nx1$[rbp]
	vdivsd	xmm0, xmm0, QWORD PTR sum$[rbp]
	mov	rax, QWORD PTR nx$[rbp]
	vmovsd	QWORD PTR [rax], xmm0

; 48   : 	*ny = ny1 / sum;

	vmovsd	xmm0, QWORD PTR ny1$[rbp]
	vdivsd	xmm0, xmm0, QWORD PTR sum$[rbp]
	mov	rax, QWORD PTR ny$[rbp]
	vmovsd	QWORD PTR [rax], xmm0

; 49   : 	*nz = nz1 / sum;

	vmovsd	xmm0, QWORD PTR nz1$[rbp]
	vdivsd	xmm0, xmm0, QWORD PTR sum$[rbp]
	mov	rax, QWORD PTR nz$[rbp]
	vmovsd	QWORD PTR [rax], xmm0

; 50   : }

	mov	rcx, QWORD PTR __$ArrayPad$[rbp]
	xor	rcx, rbp
	call	__security_check_cookie
	lea	rsp, QWORD PTR [rbp+208]
	pop	rbp
	ret	0
?div_direction@Cell@@AEAAXAEBUCellData@@0PEAN11@Z ENDP	; Cell::div_direction
_TEXT	ENDS
; Function compile flags: /Odtp /RTCu /ZI
; File c:\program files (x86)\microsoft visual studio 14.0\vc\include\vector
;	COMDAT ?end@?$vector@V?$shared_ptr@VCell@@@std@@V?$allocator@V?$shared_ptr@VCell@@@std@@@2@@std@@QEAA?AV?$_Vector_iterator@V?$_Vector_val@U?$_Simple_types@V?$shared_ptr@VCell@@@std@@@std@@@std@@@2@XZ
_TEXT	SEGMENT
$T1 = 64
tv74 = 72
this$ = 96
__$ReturnUdt$ = 104
?end@?$vector@V?$shared_ptr@VCell@@@std@@V?$allocator@V?$shared_ptr@VCell@@@std@@@2@@std@@QEAA?AV?$_Vector_iterator@V?$_Vector_val@U?$_Simple_types@V?$shared_ptr@VCell@@@std@@@std@@@std@@@2@XZ PROC ; std::vector<std::shared_ptr<Cell>,std::allocator<std::shared_ptr<Cell> > >::end, COMDAT

; 1066 : 		{	// return iterator for end of mutable sequence

$LN3:
	mov	QWORD PTR [rsp+16], rdx
	mov	QWORD PTR [rsp+8], rcx
	push	rbp
	sub	rsp, 112				; 00000070H
	lea	rbp, QWORD PTR [rsp+32]
	mov	QWORD PTR $T1[rbp], -2

; 1067 : 		return (iterator(this->_Mylast(), &this->_Get_data()));

	mov	rcx, QWORD PTR this$[rbp]
	call	?_Get_data@?$_Vector_alloc@U?$_Vec_base_types@V?$shared_ptr@VCell@@@std@@V?$allocator@V?$shared_ptr@VCell@@@std@@@2@@std@@@std@@QEAAAEAV?$_Vector_val@U?$_Simple_types@V?$shared_ptr@VCell@@@std@@@std@@@2@XZ ; std::_Vector_alloc<std::_Vec_base_types<std::shared_ptr<Cell>,std::allocator<std::shared_ptr<Cell> > > >::_Get_data
	npad	1
	mov	QWORD PTR tv74[rbp], rax
	mov	rcx, QWORD PTR this$[rbp]
	call	?_Mylast@?$_Vector_alloc@U?$_Vec_base_types@V?$shared_ptr@VCell@@@std@@V?$allocator@V?$shared_ptr@VCell@@@std@@@2@@std@@@std@@QEAAAEAPEAV?$shared_ptr@VCell@@@2@XZ ; std::_Vector_alloc<std::_Vec_base_types<std::shared_ptr<Cell>,std::allocator<std::shared_ptr<Cell> > > >::_Mylast
	npad	1
	mov	rcx, QWORD PTR tv74[rbp]
	mov	r8, rcx
	mov	rdx, QWORD PTR [rax]
	mov	rcx, QWORD PTR __$ReturnUdt$[rbp]
	call	??0?$_Vector_iterator@V?$_Vector_val@U?$_Simple_types@V?$shared_ptr@VCell@@@std@@@std@@@std@@@std@@QEAA@PEAV?$shared_ptr@VCell@@@1@PEBU_Container_base12@1@@Z ; std::_Vector_iterator<std::_Vector_val<std::_Simple_types<std::shared_ptr<Cell> > > >::_Vector_iterator<std::_Vector_val<std::_Simple_types<std::shared_ptr<Cell> > > >
	npad	1
	mov	rax, QWORD PTR __$ReturnUdt$[rbp]

; 1068 : 		}

	lea	rsp, QWORD PTR [rbp+80]
	pop	rbp
	ret	0
?end@?$vector@V?$shared_ptr@VCell@@@std@@V?$allocator@V?$shared_ptr@VCell@@@std@@@2@@std@@QEAA?AV?$_Vector_iterator@V?$_Vector_val@U?$_Simple_types@V?$shared_ptr@VCell@@@std@@@std@@@std@@@2@XZ ENDP ; std::vector<std::shared_ptr<Cell>,std::allocator<std::shared_ptr<Cell> > >::end
_TEXT	ENDS
; Function compile flags: /Odtp /RTCu /ZI
; File c:\program files (x86)\microsoft visual studio 14.0\vc\include\vector
;	COMDAT ?begin@?$vector@V?$shared_ptr@VCell@@@std@@V?$allocator@V?$shared_ptr@VCell@@@std@@@2@@std@@QEAA?AV?$_Vector_iterator@V?$_Vector_val@U?$_Simple_types@V?$shared_ptr@VCell@@@std@@@std@@@std@@@2@XZ
_TEXT	SEGMENT
$T1 = 64
tv74 = 72
this$ = 96
__$ReturnUdt$ = 104
?begin@?$vector@V?$shared_ptr@VCell@@@std@@V?$allocator@V?$shared_ptr@VCell@@@std@@@2@@std@@QEAA?AV?$_Vector_iterator@V?$_Vector_val@U?$_Simple_types@V?$shared_ptr@VCell@@@std@@@std@@@std@@@2@XZ PROC ; std::vector<std::shared_ptr<Cell>,std::allocator<std::shared_ptr<Cell> > >::begin, COMDAT

; 1056 : 		{	// return iterator for beginning of mutable sequence

$LN3:
	mov	QWORD PTR [rsp+16], rdx
	mov	QWORD PTR [rsp+8], rcx
	push	rbp
	sub	rsp, 112				; 00000070H
	lea	rbp, QWORD PTR [rsp+32]
	mov	QWORD PTR $T1[rbp], -2

; 1057 : 		return (iterator(this->_Myfirst(), &this->_Get_data()));

	mov	rcx, QWORD PTR this$[rbp]
	call	?_Get_data@?$_Vector_alloc@U?$_Vec_base_types@V?$shared_ptr@VCell@@@std@@V?$allocator@V?$shared_ptr@VCell@@@std@@@2@@std@@@std@@QEAAAEAV?$_Vector_val@U?$_Simple_types@V?$shared_ptr@VCell@@@std@@@std@@@2@XZ ; std::_Vector_alloc<std::_Vec_base_types<std::shared_ptr<Cell>,std::allocator<std::shared_ptr<Cell> > > >::_Get_data
	npad	1
	mov	QWORD PTR tv74[rbp], rax
	mov	rcx, QWORD PTR this$[rbp]
	call	?_Myfirst@?$_Vector_alloc@U?$_Vec_base_types@V?$shared_ptr@VCell@@@std@@V?$allocator@V?$shared_ptr@VCell@@@std@@@2@@std@@@std@@QEAAAEAPEAV?$shared_ptr@VCell@@@2@XZ ; std::_Vector_alloc<std::_Vec_base_types<std::shared_ptr<Cell>,std::allocator<std::shared_ptr<Cell> > > >::_Myfirst
	npad	1
	mov	rcx, QWORD PTR tv74[rbp]
	mov	r8, rcx
	mov	rdx, QWORD PTR [rax]
	mov	rcx, QWORD PTR __$ReturnUdt$[rbp]
	call	??0?$_Vector_iterator@V?$_Vector_val@U?$_Simple_types@V?$shared_ptr@VCell@@@std@@@std@@@std@@@std@@QEAA@PEAV?$shared_ptr@VCell@@@1@PEBU_Container_base12@1@@Z ; std::_Vector_iterator<std::_Vector_val<std::_Simple_types<std::shared_ptr<Cell> > > >::_Vector_iterator<std::_Vector_val<std::_Simple_types<std::shared_ptr<Cell> > > >
	npad	1
	mov	rax, QWORD PTR __$ReturnUdt$[rbp]

; 1058 : 		}

	lea	rsp, QWORD PTR [rbp+80]
	pop	rbp
	ret	0
?begin@?$vector@V?$shared_ptr@VCell@@@std@@V?$allocator@V?$shared_ptr@VCell@@@std@@@2@@std@@QEAA?AV?$_Vector_iterator@V?$_Vector_val@U?$_Simple_types@V?$shared_ptr@VCell@@@std@@@std@@@std@@@2@XZ ENDP ; std::vector<std::shared_ptr<Cell>,std::allocator<std::shared_ptr<Cell> > >::begin
_TEXT	ENDS
; Function compile flags: /Odtp /RTCu /ZI
; File c:\program files (x86)\microsoft visual studio 14.0\vc\include\xutility
;	COMDAT ?_Get_second@?$_Compressed_pair@U?$_Wrap_alloc@V?$allocator@V?$shared_ptr@VCell@@@std@@@std@@@std@@V?$_Vector_val@U?$_Simple_types@V?$shared_ptr@VCell@@@std@@@std@@@2@$00@std@@QEAAAEAV?$_Vector_val@U?$_Simple_types@V?$shared_ptr@VCell@@@std@@@std@@@2@XZ
_TEXT	SEGMENT
this$ = 80
?_Get_second@?$_Compressed_pair@U?$_Wrap_alloc@V?$allocator@V?$shared_ptr@VCell@@@std@@@std@@@std@@V?$_Vector_val@U?$_Simple_types@V?$shared_ptr@VCell@@@std@@@std@@@2@$00@std@@QEAAAEAV?$_Vector_val@U?$_Simple_types@V?$shared_ptr@VCell@@@std@@@std@@@2@XZ PROC ; std::_Compressed_pair<std::_Wrap_alloc<std::allocator<std::shared_ptr<Cell> > >,std::_Vector_val<std::_Simple_types<std::shared_ptr<Cell> > >,1>::_Get_second, COMDAT

; 313  : 		{	// return reference to second

$LN3:
	mov	QWORD PTR [rsp+8], rcx
	push	rbp
	sub	rsp, 64					; 00000040H
	mov	rbp, rsp

; 314  : 		return (_Myval2);

	mov	rax, QWORD PTR this$[rbp]

; 315  : 		}

	lea	rsp, QWORD PTR [rbp+64]
	pop	rbp
	ret	0
?_Get_second@?$_Compressed_pair@U?$_Wrap_alloc@V?$allocator@V?$shared_ptr@VCell@@@std@@@std@@@std@@V?$_Vector_val@U?$_Simple_types@V?$shared_ptr@VCell@@@std@@@std@@@2@$00@std@@QEAAAEAV?$_Vector_val@U?$_Simple_types@V?$shared_ptr@VCell@@@std@@@std@@@2@XZ ENDP ; std::_Compressed_pair<std::_Wrap_alloc<std::allocator<std::shared_ptr<Cell> > >,std::_Vector_val<std::_Simple_types<std::shared_ptr<Cell> > >,1>::_Get_second
_TEXT	ENDS
; Function compile flags: /Odtp /RTCu /ZI
; File c:\program files (x86)\microsoft visual studio 14.0\vc\include\vector
;	COMDAT ?_Mylast@?$_Vector_alloc@U?$_Vec_base_types@V?$shared_ptr@VCell@@@std@@V?$allocator@V?$shared_ptr@VCell@@@std@@@2@@std@@@std@@QEAAAEAPEAV?$shared_ptr@VCell@@@2@XZ
_TEXT	SEGMENT
this$ = 80
?_Mylast@?$_Vector_alloc@U?$_Vec_base_types@V?$shared_ptr@VCell@@@std@@V?$allocator@V?$shared_ptr@VCell@@@std@@@2@@std@@@std@@QEAAAEAPEAV?$shared_ptr@VCell@@@2@XZ PROC ; std::_Vector_alloc<std::_Vec_base_types<std::shared_ptr<Cell>,std::allocator<std::shared_ptr<Cell> > > >::_Mylast, COMDAT

; 651  : 		{	// return reference to _Mylast

$LN3:
	mov	QWORD PTR [rsp+8], rcx
	push	rbp
	sub	rsp, 96					; 00000060H
	lea	rbp, QWORD PTR [rsp+32]

; 652  : 		return (_Get_data()._Mylast);

	mov	rcx, QWORD PTR this$[rbp]
	call	?_Get_data@?$_Vector_alloc@U?$_Vec_base_types@V?$shared_ptr@VCell@@@std@@V?$allocator@V?$shared_ptr@VCell@@@std@@@2@@std@@@std@@QEAAAEAV?$_Vector_val@U?$_Simple_types@V?$shared_ptr@VCell@@@std@@@std@@@2@XZ ; std::_Vector_alloc<std::_Vec_base_types<std::shared_ptr<Cell>,std::allocator<std::shared_ptr<Cell> > > >::_Get_data
	add	rax, 16

; 653  : 		}

	lea	rsp, QWORD PTR [rbp+64]
	pop	rbp
	ret	0
?_Mylast@?$_Vector_alloc@U?$_Vec_base_types@V?$shared_ptr@VCell@@@std@@V?$allocator@V?$shared_ptr@VCell@@@std@@@2@@std@@@std@@QEAAAEAPEAV?$shared_ptr@VCell@@@2@XZ ENDP ; std::_Vector_alloc<std::_Vec_base_types<std::shared_ptr<Cell>,std::allocator<std::shared_ptr<Cell> > > >::_Mylast
_TEXT	ENDS
; Function compile flags: /Odtp /RTCu /ZI
; File c:\program files (x86)\microsoft visual studio 14.0\vc\include\vector
;	COMDAT ?_Myfirst@?$_Vector_alloc@U?$_Vec_base_types@V?$shared_ptr@VCell@@@std@@V?$allocator@V?$shared_ptr@VCell@@@std@@@2@@std@@@std@@QEAAAEAPEAV?$shared_ptr@VCell@@@2@XZ
_TEXT	SEGMENT
this$ = 80
?_Myfirst@?$_Vector_alloc@U?$_Vec_base_types@V?$shared_ptr@VCell@@@std@@V?$allocator@V?$shared_ptr@VCell@@@std@@@2@@std@@@std@@QEAAAEAPEAV?$shared_ptr@VCell@@@2@XZ PROC ; std::_Vector_alloc<std::_Vec_base_types<std::shared_ptr<Cell>,std::allocator<std::shared_ptr<Cell> > > >::_Myfirst, COMDAT

; 641  : 		{	// return reference to _Myfirst

$LN3:
	mov	QWORD PTR [rsp+8], rcx
	push	rbp
	sub	rsp, 96					; 00000060H
	lea	rbp, QWORD PTR [rsp+32]

; 642  : 		return (_Get_data()._Myfirst);

	mov	rcx, QWORD PTR this$[rbp]
	call	?_Get_data@?$_Vector_alloc@U?$_Vec_base_types@V?$shared_ptr@VCell@@@std@@V?$allocator@V?$shared_ptr@VCell@@@std@@@2@@std@@@std@@QEAAAEAV?$_Vector_val@U?$_Simple_types@V?$shared_ptr@VCell@@@std@@@std@@@2@XZ ; std::_Vector_alloc<std::_Vec_base_types<std::shared_ptr<Cell>,std::allocator<std::shared_ptr<Cell> > > >::_Get_data
	add	rax, 8

; 643  : 		}

	lea	rsp, QWORD PTR [rbp+64]
	pop	rbp
	ret	0
?_Myfirst@?$_Vector_alloc@U?$_Vec_base_types@V?$shared_ptr@VCell@@@std@@V?$allocator@V?$shared_ptr@VCell@@@std@@@2@@std@@@std@@QEAAAEAPEAV?$shared_ptr@VCell@@@2@XZ ENDP ; std::_Vector_alloc<std::_Vec_base_types<std::shared_ptr<Cell>,std::allocator<std::shared_ptr<Cell> > > >::_Myfirst
_TEXT	ENDS
; Function compile flags: /Odtp /RTCu /ZI
; File c:\program files (x86)\microsoft visual studio 14.0\vc\include\vector
;	COMDAT ?_Get_data@?$_Vector_alloc@U?$_Vec_base_types@V?$shared_ptr@VCell@@@std@@V?$allocator@V?$shared_ptr@VCell@@@std@@@2@@std@@@std@@QEAAAEAV?$_Vector_val@U?$_Simple_types@V?$shared_ptr@VCell@@@std@@@std@@@2@XZ
_TEXT	SEGMENT
this$ = 80
?_Get_data@?$_Vector_alloc@U?$_Vec_base_types@V?$shared_ptr@VCell@@@std@@V?$allocator@V?$shared_ptr@VCell@@@std@@@2@@std@@@std@@QEAAAEAV?$_Vector_val@U?$_Simple_types@V?$shared_ptr@VCell@@@std@@@std@@@2@XZ PROC ; std::_Vector_alloc<std::_Vec_base_types<std::shared_ptr<Cell>,std::allocator<std::shared_ptr<Cell> > > >::_Get_data, COMDAT

; 631  : 		{	// return reference to _Vector_val

$LN3:
	mov	QWORD PTR [rsp+8], rcx
	push	rbp
	sub	rsp, 96					; 00000060H
	lea	rbp, QWORD PTR [rsp+32]

; 632  : 		return (_Mypair._Get_second());

	mov	rax, QWORD PTR this$[rbp]
	mov	rcx, rax
	call	?_Get_second@?$_Compressed_pair@U?$_Wrap_alloc@V?$allocator@V?$shared_ptr@VCell@@@std@@@std@@@std@@V?$_Vector_val@U?$_Simple_types@V?$shared_ptr@VCell@@@std@@@std@@@2@$00@std@@QEAAAEAV?$_Vector_val@U?$_Simple_types@V?$shared_ptr@VCell@@@std@@@std@@@2@XZ ; std::_Compressed_pair<std::_Wrap_alloc<std::allocator<std::shared_ptr<Cell> > >,std::_Vector_val<std::_Simple_types<std::shared_ptr<Cell> > >,1>::_Get_second

; 633  : 		}

	lea	rsp, QWORD PTR [rbp+64]
	pop	rbp
	ret	0
?_Get_data@?$_Vector_alloc@U?$_Vec_base_types@V?$shared_ptr@VCell@@@std@@V?$allocator@V?$shared_ptr@VCell@@@std@@@2@@std@@@std@@QEAAAEAV?$_Vector_val@U?$_Simple_types@V?$shared_ptr@VCell@@@std@@@std@@@2@XZ ENDP ; std::_Vector_alloc<std::_Vec_base_types<std::shared_ptr<Cell>,std::allocator<std::shared_ptr<Cell> > > >::_Get_data
_TEXT	ENDS
; Function compile flags: /Odtp /RTCu /ZI
; File c:\program files (x86)\microsoft visual studio 14.0\vc\include\vector
;	COMDAT ??A?$vector@V?$vector@V?$shared_ptr@VCell@@@std@@V?$allocator@V?$shared_ptr@VCell@@@std@@@2@@std@@V?$allocator@V?$vector@V?$shared_ptr@VCell@@@std@@V?$allocator@V?$shared_ptr@VCell@@@std@@@2@@std@@@2@@std@@QEAAAEAV?$vector@V?$shared_ptr@VCell@@@std@@V?$allocator@V?$shared_ptr@VCell@@@std@@@2@@1@_K@Z
_TEXT	SEGMENT
this$ = 80
_Pos$ = 88
??A?$vector@V?$vector@V?$shared_ptr@VCell@@@std@@V?$allocator@V?$shared_ptr@VCell@@@std@@@2@@std@@V?$allocator@V?$vector@V?$shared_ptr@VCell@@@std@@V?$allocator@V?$shared_ptr@VCell@@@std@@@2@@std@@@2@@std@@QEAAAEAV?$vector@V?$shared_ptr@VCell@@@std@@V?$allocator@V?$shared_ptr@VCell@@@std@@@2@@1@_K@Z PROC ; std::vector<std::vector<std::shared_ptr<Cell>,std::allocator<std::shared_ptr<Cell> > >,std::allocator<std::vector<std::shared_ptr<Cell>,std::allocator<std::shared_ptr<Cell> > > > >::operator[], COMDAT

; 1228 : 		{	// subscript mutable sequence

$LN6:
	mov	QWORD PTR [rsp+16], rdx
	mov	QWORD PTR [rsp+8], rcx
	push	rbp
	sub	rsp, 112				; 00000070H
	lea	rbp, QWORD PTR [rsp+48]

; 1229 :  #if _ITERATOR_DEBUG_LEVEL == 2
; 1230 : 		if (size() <= _Pos)

	mov	rcx, QWORD PTR this$[rbp]
	call	?size@?$vector@V?$vector@V?$shared_ptr@VCell@@@std@@V?$allocator@V?$shared_ptr@VCell@@@std@@@2@@std@@V?$allocator@V?$vector@V?$shared_ptr@VCell@@@std@@V?$allocator@V?$shared_ptr@VCell@@@std@@@2@@std@@@2@@std@@QEBA_KXZ ; std::vector<std::vector<std::shared_ptr<Cell>,std::allocator<std::shared_ptr<Cell> > >,std::allocator<std::vector<std::shared_ptr<Cell>,std::allocator<std::shared_ptr<Cell> > > > >::size
	cmp	rax, QWORD PTR _Pos$[rbp]
	ja	$LN2@operator

; 1231 : 			{	// report error
; 1232 : 			_DEBUG_ERROR("vector subscript out of range");

	mov	r8d, 1232				; 000004d0H
	lea	rdx, OFFSET FLAT:??_C@_1IM@NCODKBJH@?$AAc?$AA?3?$AA?2?$AAp?$AAr?$AAo?$AAg?$AAr?$AAa?$AAm?$AA?5?$AAf?$AAi?$AAl?$AAe?$AAs?$AA?5?$AA?$CI?$AAx?$AA8?$AA6?$AA?$CJ?$AA?2?$AAm?$AAi?$AAc?$AAr?$AAo?$AAs?$AAo?$AAf?$AAt@
	lea	rcx, OFFSET FLAT:??_C@_1DM@LHGCHCBA@?$AAv?$AAe?$AAc?$AAt?$AAo?$AAr?$AA?5?$AAs?$AAu?$AAb?$AAs?$AAc?$AAr?$AAi?$AAp?$AAt?$AA?5?$AAo?$AAu?$AAt?$AA?5?$AAo?$AAf?$AA?5?$AAr?$AAa?$AAn?$AAg?$AAe?$AA?$AA@
	call	QWORD PTR __imp_?_Debug_message@std@@YAXPEB_W0I@Z

; 1233 : 			_SCL_SECURE_OUT_OF_RANGE;

	lea	rax, OFFSET FLAT:??_C@_0CE@OFMIGAMM@Standard?5C?$CL?$CL?5Libraries?5Out?5of?5Ra@
	test	rax, rax
	je	SHORT $LN4@operator
	xor	eax, eax
	test	eax, eax
	jne	SHORT $LN5@operator
$LN4@operator:
	lea	rax, OFFSET FLAT:??_C@_1FG@IBPIFFN@?$AA?$CC?$AAS?$AAt?$AAa?$AAn?$AAd?$AAa?$AAr?$AAd?$AA?5?$AAC?$AA?$CL?$AA?$CL?$AA?5?$AAL?$AAi?$AAb?$AAr?$AAa?$AAr?$AAi?$AAe?$AAs?$AA?5?$AAO?$AAu?$AAt?$AA?5?$AAo?$AAf?$AA?5?$AAR@
	mov	QWORD PTR [rsp+40], rax
	lea	rax, OFFSET FLAT:??_C@_17CNPHIMPH@?$AA?$CF?$AAl?$AAs?$AA?$AA@
	mov	QWORD PTR [rsp+32], rax
	xor	r9d, r9d
	mov	r8d, 1233				; 000004d1H
	lea	rdx, OFFSET FLAT:??_C@_1IM@NCODKBJH@?$AAc?$AA?3?$AA?2?$AAp?$AAr?$AAo?$AAg?$AAr?$AAa?$AAm?$AA?5?$AAf?$AAi?$AAl?$AAe?$AAs?$AA?5?$AA?$CI?$AAx?$AA8?$AA6?$AA?$CJ?$AA?2?$AAm?$AAi?$AAc?$AAr?$AAo?$AAs?$AAo?$AAf?$AAt@
	mov	ecx, 2
	call	QWORD PTR __imp__CrtDbgReportW
	cmp	eax, 1
	jne	SHORT $LN5@operator
	int	3
	xor	eax, eax
$LN5@operator:
	mov	QWORD PTR [rsp+32], 0
	mov	r9d, 1233				; 000004d1H
	lea	r8, OFFSET FLAT:??_C@_1IM@NCODKBJH@?$AAc?$AA?3?$AA?2?$AAp?$AAr?$AAo?$AAg?$AAr?$AAa?$AAm?$AA?5?$AAf?$AAi?$AAl?$AAe?$AAs?$AA?5?$AA?$CI?$AAx?$AA8?$AA6?$AA?$CJ?$AA?2?$AAm?$AAi?$AAc?$AAr?$AAo?$AAs?$AAo?$AAf?$AAt@
	lea	rdx, OFFSET FLAT:??_C@_1CCA@OOOAEGID@?$AAs?$AAt?$AAd?$AA?3?$AA?3?$AAv?$AAe?$AAc?$AAt?$AAo?$AAr?$AA?$DM?$AAc?$AAl?$AAa?$AAs?$AAs?$AA?5?$AAs?$AAt?$AAd?$AA?3?$AA?3?$AAv?$AAe?$AAc?$AAt?$AAo?$AAr?$AA?$DM?$AAc?$AAl@
	lea	rcx, OFFSET FLAT:??_C@_1BO@MEPPHOO@?$AA?$CC?$AAo?$AAu?$AAt?$AA?5?$AAo?$AAf?$AA?5?$AAr?$AAa?$AAn?$AAg?$AAe?$AA?$CC?$AA?$AA@
	call	QWORD PTR __imp__invalid_parameter
$LN2@operator:

; 1234 : 			}
; 1235 : 
; 1236 :  #elif _ITERATOR_DEBUG_LEVEL == 1
; 1237 : 		_SCL_SECURE_VALIDATE_RANGE(_Pos < size());
; 1238 :  #endif /* _ITERATOR_DEBUG_LEVEL */
; 1239 : 
; 1240 : 		return (*(this->_Myfirst() + _Pos));

	mov	rcx, QWORD PTR this$[rbp]
	call	?_Myfirst@?$_Vector_alloc@U?$_Vec_base_types@V?$vector@V?$shared_ptr@VCell@@@std@@V?$allocator@V?$shared_ptr@VCell@@@std@@@2@@std@@V?$allocator@V?$vector@V?$shared_ptr@VCell@@@std@@V?$allocator@V?$shared_ptr@VCell@@@std@@@2@@std@@@2@@std@@@std@@QEAAAEAPEAV?$vector@V?$shared_ptr@VCell@@@std@@V?$allocator@V?$shared_ptr@VCell@@@std@@@2@@2@XZ ; std::_Vector_alloc<std::_Vec_base_types<std::vector<std::shared_ptr<Cell>,std::allocator<std::shared_ptr<Cell> > >,std::allocator<std::vector<std::shared_ptr<Cell>,std::allocator<std::shared_ptr<Cell> > > > > >::_Myfirst
	imul	rcx, QWORD PTR _Pos$[rbp], 32		; 00000020H
	add	rcx, QWORD PTR [rax]
	mov	rax, rcx

; 1241 : 		}

	lea	rsp, QWORD PTR [rbp+64]
	pop	rbp
	ret	0
??A?$vector@V?$vector@V?$shared_ptr@VCell@@@std@@V?$allocator@V?$shared_ptr@VCell@@@std@@@2@@std@@V?$allocator@V?$vector@V?$shared_ptr@VCell@@@std@@V?$allocator@V?$shared_ptr@VCell@@@std@@@2@@std@@@2@@std@@QEAAAEAV?$vector@V?$shared_ptr@VCell@@@std@@V?$allocator@V?$shared_ptr@VCell@@@std@@@2@@1@_K@Z ENDP ; std::vector<std::vector<std::shared_ptr<Cell>,std::allocator<std::shared_ptr<Cell> > >,std::allocator<std::vector<std::shared_ptr<Cell>,std::allocator<std::shared_ptr<Cell> > > > >::operator[]
_TEXT	ENDS
; Function compile flags: /Odtp /RTCu /ZI
; File c:\program files (x86)\microsoft visual studio 14.0\vc\include\vector
;	COMDAT ?size@?$vector@V?$vector@V?$shared_ptr@VCell@@@std@@V?$allocator@V?$shared_ptr@VCell@@@std@@@2@@std@@V?$allocator@V?$vector@V?$shared_ptr@VCell@@@std@@V?$allocator@V?$shared_ptr@VCell@@@std@@@2@@std@@@2@@std@@QEBA_KXZ
_TEXT	SEGMENT
tv69 = 64
this$ = 96
?size@?$vector@V?$vector@V?$shared_ptr@VCell@@@std@@V?$allocator@V?$shared_ptr@VCell@@@std@@@2@@std@@V?$allocator@V?$vector@V?$shared_ptr@VCell@@@std@@V?$allocator@V?$shared_ptr@VCell@@@std@@@2@@std@@@2@@std@@QEBA_KXZ PROC ; std::vector<std::vector<std::shared_ptr<Cell>,std::allocator<std::shared_ptr<Cell> > >,std::allocator<std::vector<std::shared_ptr<Cell>,std::allocator<std::shared_ptr<Cell> > > > >::size, COMDAT

; 1178 : 		{	// return length of sequence

$LN3:
	mov	QWORD PTR [rsp+8], rcx
	push	rbp
	sub	rsp, 112				; 00000070H
	lea	rbp, QWORD PTR [rsp+32]

; 1179 : 		return (this->_Mylast() - this->_Myfirst());

	mov	rcx, QWORD PTR this$[rbp]
	call	?_Mylast@?$_Vector_alloc@U?$_Vec_base_types@V?$vector@V?$shared_ptr@VCell@@@std@@V?$allocator@V?$shared_ptr@VCell@@@std@@@2@@std@@V?$allocator@V?$vector@V?$shared_ptr@VCell@@@std@@V?$allocator@V?$shared_ptr@VCell@@@std@@@2@@std@@@2@@std@@@std@@QEBAAEBQEAV?$vector@V?$shared_ptr@VCell@@@std@@V?$allocator@V?$shared_ptr@VCell@@@std@@@2@@2@XZ ; std::_Vector_alloc<std::_Vec_base_types<std::vector<std::shared_ptr<Cell>,std::allocator<std::shared_ptr<Cell> > >,std::allocator<std::vector<std::shared_ptr<Cell>,std::allocator<std::shared_ptr<Cell> > > > > >::_Mylast
	mov	QWORD PTR tv69[rbp], rax
	mov	rcx, QWORD PTR this$[rbp]
	call	?_Myfirst@?$_Vector_alloc@U?$_Vec_base_types@V?$vector@V?$shared_ptr@VCell@@@std@@V?$allocator@V?$shared_ptr@VCell@@@std@@@2@@std@@V?$allocator@V?$vector@V?$shared_ptr@VCell@@@std@@V?$allocator@V?$shared_ptr@VCell@@@std@@@2@@std@@@2@@std@@@std@@QEBAAEBQEAV?$vector@V?$shared_ptr@VCell@@@std@@V?$allocator@V?$shared_ptr@VCell@@@std@@@2@@2@XZ ; std::_Vector_alloc<std::_Vec_base_types<std::vector<std::shared_ptr<Cell>,std::allocator<std::shared_ptr<Cell> > >,std::allocator<std::vector<std::shared_ptr<Cell>,std::allocator<std::shared_ptr<Cell> > > > > >::_Myfirst
	mov	rax, QWORD PTR [rax]
	mov	rcx, QWORD PTR tv69[rbp]
	mov	rcx, QWORD PTR [rcx]
	sub	rcx, rax
	mov	rax, rcx
	sar	rax, 5

; 1180 : 		}

	lea	rsp, QWORD PTR [rbp+80]
	pop	rbp
	ret	0
?size@?$vector@V?$vector@V?$shared_ptr@VCell@@@std@@V?$allocator@V?$shared_ptr@VCell@@@std@@@2@@std@@V?$allocator@V?$vector@V?$shared_ptr@VCell@@@std@@V?$allocator@V?$shared_ptr@VCell@@@std@@@2@@std@@@2@@std@@QEBA_KXZ ENDP ; std::vector<std::vector<std::shared_ptr<Cell>,std::allocator<std::shared_ptr<Cell> > >,std::allocator<std::vector<std::shared_ptr<Cell>,std::allocator<std::shared_ptr<Cell> > > > >::size
_TEXT	ENDS
; Function compile flags: /Odtp /RTCu /ZI
; File c:\program files (x86)\microsoft visual studio 14.0\vc\include\xutility
;	COMDAT ?_Get_second@?$_Compressed_pair@U?$_Wrap_alloc@V?$allocator@V?$vector@V?$shared_ptr@VCell@@@std@@V?$allocator@V?$shared_ptr@VCell@@@std@@@2@@std@@@std@@@std@@V?$_Vector_val@U?$_Simple_types@V?$vector@V?$shared_ptr@VCell@@@std@@V?$allocator@V?$shared_ptr@VCell@@@std@@@2@@std@@@std@@@2@$00@std@@QEBAAEBV?$_Vector_val@U?$_Simple_types@V?$vector@V?$shared_ptr@VCell@@@std@@V?$allocator@V?$shared_ptr@VCell@@@std@@@2@@std@@@std@@@2@XZ
_TEXT	SEGMENT
this$ = 80
?_Get_second@?$_Compressed_pair@U?$_Wrap_alloc@V?$allocator@V?$vector@V?$shared_ptr@VCell@@@std@@V?$allocator@V?$shared_ptr@VCell@@@std@@@2@@std@@@std@@@std@@V?$_Vector_val@U?$_Simple_types@V?$vector@V?$shared_ptr@VCell@@@std@@V?$allocator@V?$shared_ptr@VCell@@@std@@@2@@std@@@std@@@2@$00@std@@QEBAAEBV?$_Vector_val@U?$_Simple_types@V?$vector@V?$shared_ptr@VCell@@@std@@V?$allocator@V?$shared_ptr@VCell@@@std@@@2@@std@@@std@@@2@XZ PROC ; std::_Compressed_pair<std::_Wrap_alloc<std::allocator<std::vector<std::shared_ptr<Cell>,std::allocator<std::shared_ptr<Cell> > > > >,std::_Vector_val<std::_Simple_types<std::vector<std::shared_ptr<Cell>,std::allocator<std::shared_ptr<Cell> > > > >,1>::_Get_second, COMDAT

; 318  : 		{	// return const reference to second

$LN3:
	mov	QWORD PTR [rsp+8], rcx
	push	rbp
	sub	rsp, 64					; 00000040H
	mov	rbp, rsp

; 319  : 		return (_Myval2);

	mov	rax, QWORD PTR this$[rbp]

; 320  : 		}

	lea	rsp, QWORD PTR [rbp+64]
	pop	rbp
	ret	0
?_Get_second@?$_Compressed_pair@U?$_Wrap_alloc@V?$allocator@V?$vector@V?$shared_ptr@VCell@@@std@@V?$allocator@V?$shared_ptr@VCell@@@std@@@2@@std@@@std@@@std@@V?$_Vector_val@U?$_Simple_types@V?$vector@V?$shared_ptr@VCell@@@std@@V?$allocator@V?$shared_ptr@VCell@@@std@@@2@@std@@@std@@@2@$00@std@@QEBAAEBV?$_Vector_val@U?$_Simple_types@V?$vector@V?$shared_ptr@VCell@@@std@@V?$allocator@V?$shared_ptr@VCell@@@std@@@2@@std@@@std@@@2@XZ ENDP ; std::_Compressed_pair<std::_Wrap_alloc<std::allocator<std::vector<std::shared_ptr<Cell>,std::allocator<std::shared_ptr<Cell> > > > >,std::_Vector_val<std::_Simple_types<std::vector<std::shared_ptr<Cell>,std::allocator<std::shared_ptr<Cell> > > > >,1>::_Get_second
_TEXT	ENDS
; Function compile flags: /Odtp /RTCu /ZI
; File c:\program files (x86)\microsoft visual studio 14.0\vc\include\xutility
;	COMDAT ?_Get_second@?$_Compressed_pair@U?$_Wrap_alloc@V?$allocator@V?$vector@V?$shared_ptr@VCell@@@std@@V?$allocator@V?$shared_ptr@VCell@@@std@@@2@@std@@@std@@@std@@V?$_Vector_val@U?$_Simple_types@V?$vector@V?$shared_ptr@VCell@@@std@@V?$allocator@V?$shared_ptr@VCell@@@std@@@2@@std@@@std@@@2@$00@std@@QEAAAEAV?$_Vector_val@U?$_Simple_types@V?$vector@V?$shared_ptr@VCell@@@std@@V?$allocator@V?$shared_ptr@VCell@@@std@@@2@@std@@@std@@@2@XZ
_TEXT	SEGMENT
this$ = 80
?_Get_second@?$_Compressed_pair@U?$_Wrap_alloc@V?$allocator@V?$vector@V?$shared_ptr@VCell@@@std@@V?$allocator@V?$shared_ptr@VCell@@@std@@@2@@std@@@std@@@std@@V?$_Vector_val@U?$_Simple_types@V?$vector@V?$shared_ptr@VCell@@@std@@V?$allocator@V?$shared_ptr@VCell@@@std@@@2@@std@@@std@@@2@$00@std@@QEAAAEAV?$_Vector_val@U?$_Simple_types@V?$vector@V?$shared_ptr@VCell@@@std@@V?$allocator@V?$shared_ptr@VCell@@@std@@@2@@std@@@std@@@2@XZ PROC ; std::_Compressed_pair<std::_Wrap_alloc<std::allocator<std::vector<std::shared_ptr<Cell>,std::allocator<std::shared_ptr<Cell> > > > >,std::_Vector_val<std::_Simple_types<std::vector<std::shared_ptr<Cell>,std::allocator<std::shared_ptr<Cell> > > > >,1>::_Get_second, COMDAT

; 313  : 		{	// return reference to second

$LN3:
	mov	QWORD PTR [rsp+8], rcx
	push	rbp
	sub	rsp, 64					; 00000040H
	mov	rbp, rsp

; 314  : 		return (_Myval2);

	mov	rax, QWORD PTR this$[rbp]

; 315  : 		}

	lea	rsp, QWORD PTR [rbp+64]
	pop	rbp
	ret	0
?_Get_second@?$_Compressed_pair@U?$_Wrap_alloc@V?$allocator@V?$vector@V?$shared_ptr@VCell@@@std@@V?$allocator@V?$shared_ptr@VCell@@@std@@@2@@std@@@std@@@std@@V?$_Vector_val@U?$_Simple_types@V?$vector@V?$shared_ptr@VCell@@@std@@V?$allocator@V?$shared_ptr@VCell@@@std@@@2@@std@@@std@@@2@$00@std@@QEAAAEAV?$_Vector_val@U?$_Simple_types@V?$vector@V?$shared_ptr@VCell@@@std@@V?$allocator@V?$shared_ptr@VCell@@@std@@@2@@std@@@std@@@2@XZ ENDP ; std::_Compressed_pair<std::_Wrap_alloc<std::allocator<std::vector<std::shared_ptr<Cell>,std::allocator<std::shared_ptr<Cell> > > > >,std::_Vector_val<std::_Simple_types<std::vector<std::shared_ptr<Cell>,std::allocator<std::shared_ptr<Cell> > > > >,1>::_Get_second
_TEXT	ENDS
; Function compile flags: /Odtp /RTCu /ZI
; File c:\program files (x86)\microsoft visual studio 14.0\vc\include\vector
;	COMDAT ?_Mylast@?$_Vector_alloc@U?$_Vec_base_types@V?$vector@V?$shared_ptr@VCell@@@std@@V?$allocator@V?$shared_ptr@VCell@@@std@@@2@@std@@V?$allocator@V?$vector@V?$shared_ptr@VCell@@@std@@V?$allocator@V?$shared_ptr@VCell@@@std@@@2@@std@@@2@@std@@@std@@QEBAAEBQEAV?$vector@V?$shared_ptr@VCell@@@std@@V?$allocator@V?$shared_ptr@VCell@@@std@@@2@@2@XZ
_TEXT	SEGMENT
this$ = 80
?_Mylast@?$_Vector_alloc@U?$_Vec_base_types@V?$vector@V?$shared_ptr@VCell@@@std@@V?$allocator@V?$shared_ptr@VCell@@@std@@@2@@std@@V?$allocator@V?$vector@V?$shared_ptr@VCell@@@std@@V?$allocator@V?$shared_ptr@VCell@@@std@@@2@@std@@@2@@std@@@std@@QEBAAEBQEAV?$vector@V?$shared_ptr@VCell@@@std@@V?$allocator@V?$shared_ptr@VCell@@@std@@@2@@2@XZ PROC ; std::_Vector_alloc<std::_Vec_base_types<std::vector<std::shared_ptr<Cell>,std::allocator<std::shared_ptr<Cell> > >,std::allocator<std::vector<std::shared_ptr<Cell>,std::allocator<std::shared_ptr<Cell> > > > > >::_Mylast, COMDAT

; 656  : 		{	// return const reference to _Mylast

$LN3:
	mov	QWORD PTR [rsp+8], rcx
	push	rbp
	sub	rsp, 96					; 00000060H
	lea	rbp, QWORD PTR [rsp+32]

; 657  : 		return (_Get_data()._Mylast);

	mov	rcx, QWORD PTR this$[rbp]
	call	?_Get_data@?$_Vector_alloc@U?$_Vec_base_types@V?$vector@V?$shared_ptr@VCell@@@std@@V?$allocator@V?$shared_ptr@VCell@@@std@@@2@@std@@V?$allocator@V?$vector@V?$shared_ptr@VCell@@@std@@V?$allocator@V?$shared_ptr@VCell@@@std@@@2@@std@@@2@@std@@@std@@QEBAAEBV?$_Vector_val@U?$_Simple_types@V?$vector@V?$shared_ptr@VCell@@@std@@V?$allocator@V?$shared_ptr@VCell@@@std@@@2@@std@@@std@@@2@XZ ; std::_Vector_alloc<std::_Vec_base_types<std::vector<std::shared_ptr<Cell>,std::allocator<std::shared_ptr<Cell> > >,std::allocator<std::vector<std::shared_ptr<Cell>,std::allocator<std::shared_ptr<Cell> > > > > >::_Get_data
	add	rax, 16

; 658  : 		}

	lea	rsp, QWORD PTR [rbp+64]
	pop	rbp
	ret	0
?_Mylast@?$_Vector_alloc@U?$_Vec_base_types@V?$vector@V?$shared_ptr@VCell@@@std@@V?$allocator@V?$shared_ptr@VCell@@@std@@@2@@std@@V?$allocator@V?$vector@V?$shared_ptr@VCell@@@std@@V?$allocator@V?$shared_ptr@VCell@@@std@@@2@@std@@@2@@std@@@std@@QEBAAEBQEAV?$vector@V?$shared_ptr@VCell@@@std@@V?$allocator@V?$shared_ptr@VCell@@@std@@@2@@2@XZ ENDP ; std::_Vector_alloc<std::_Vec_base_types<std::vector<std::shared_ptr<Cell>,std::allocator<std::shared_ptr<Cell> > >,std::allocator<std::vector<std::shared_ptr<Cell>,std::allocator<std::shared_ptr<Cell> > > > > >::_Mylast
_TEXT	ENDS
; Function compile flags: /Odtp /RTCu /ZI
; File c:\program files (x86)\microsoft visual studio 14.0\vc\include\vector
;	COMDAT ?_Myfirst@?$_Vector_alloc@U?$_Vec_base_types@V?$vector@V?$shared_ptr@VCell@@@std@@V?$allocator@V?$shared_ptr@VCell@@@std@@@2@@std@@V?$allocator@V?$vector@V?$shared_ptr@VCell@@@std@@V?$allocator@V?$shared_ptr@VCell@@@std@@@2@@std@@@2@@std@@@std@@QEBAAEBQEAV?$vector@V?$shared_ptr@VCell@@@std@@V?$allocator@V?$shared_ptr@VCell@@@std@@@2@@2@XZ
_TEXT	SEGMENT
this$ = 80
?_Myfirst@?$_Vector_alloc@U?$_Vec_base_types@V?$vector@V?$shared_ptr@VCell@@@std@@V?$allocator@V?$shared_ptr@VCell@@@std@@@2@@std@@V?$allocator@V?$vector@V?$shared_ptr@VCell@@@std@@V?$allocator@V?$shared_ptr@VCell@@@std@@@2@@std@@@2@@std@@@std@@QEBAAEBQEAV?$vector@V?$shared_ptr@VCell@@@std@@V?$allocator@V?$shared_ptr@VCell@@@std@@@2@@2@XZ PROC ; std::_Vector_alloc<std::_Vec_base_types<std::vector<std::shared_ptr<Cell>,std::allocator<std::shared_ptr<Cell> > >,std::allocator<std::vector<std::shared_ptr<Cell>,std::allocator<std::shared_ptr<Cell> > > > > >::_Myfirst, COMDAT

; 646  : 		{	// return const reference to _Myfirst

$LN3:
	mov	QWORD PTR [rsp+8], rcx
	push	rbp
	sub	rsp, 96					; 00000060H
	lea	rbp, QWORD PTR [rsp+32]

; 647  : 		return (_Get_data()._Myfirst);

	mov	rcx, QWORD PTR this$[rbp]
	call	?_Get_data@?$_Vector_alloc@U?$_Vec_base_types@V?$vector@V?$shared_ptr@VCell@@@std@@V?$allocator@V?$shared_ptr@VCell@@@std@@@2@@std@@V?$allocator@V?$vector@V?$shared_ptr@VCell@@@std@@V?$allocator@V?$shared_ptr@VCell@@@std@@@2@@std@@@2@@std@@@std@@QEBAAEBV?$_Vector_val@U?$_Simple_types@V?$vector@V?$shared_ptr@VCell@@@std@@V?$allocator@V?$shared_ptr@VCell@@@std@@@2@@std@@@std@@@2@XZ ; std::_Vector_alloc<std::_Vec_base_types<std::vector<std::shared_ptr<Cell>,std::allocator<std::shared_ptr<Cell> > >,std::allocator<std::vector<std::shared_ptr<Cell>,std::allocator<std::shared_ptr<Cell> > > > > >::_Get_data
	add	rax, 8

; 648  : 		}

	lea	rsp, QWORD PTR [rbp+64]
	pop	rbp
	ret	0
?_Myfirst@?$_Vector_alloc@U?$_Vec_base_types@V?$vector@V?$shared_ptr@VCell@@@std@@V?$allocator@V?$shared_ptr@VCell@@@std@@@2@@std@@V?$allocator@V?$vector@V?$shared_ptr@VCell@@@std@@V?$allocator@V?$shared_ptr@VCell@@@std@@@2@@std@@@2@@std@@@std@@QEBAAEBQEAV?$vector@V?$shared_ptr@VCell@@@std@@V?$allocator@V?$shared_ptr@VCell@@@std@@@2@@2@XZ ENDP ; std::_Vector_alloc<std::_Vec_base_types<std::vector<std::shared_ptr<Cell>,std::allocator<std::shared_ptr<Cell> > >,std::allocator<std::vector<std::shared_ptr<Cell>,std::allocator<std::shared_ptr<Cell> > > > > >::_Myfirst
_TEXT	ENDS
; Function compile flags: /Odtp /RTCu /ZI
; File c:\program files (x86)\microsoft visual studio 14.0\vc\include\vector
;	COMDAT ?_Myfirst@?$_Vector_alloc@U?$_Vec_base_types@V?$vector@V?$shared_ptr@VCell@@@std@@V?$allocator@V?$shared_ptr@VCell@@@std@@@2@@std@@V?$allocator@V?$vector@V?$shared_ptr@VCell@@@std@@V?$allocator@V?$shared_ptr@VCell@@@std@@@2@@std@@@2@@std@@@std@@QEAAAEAPEAV?$vector@V?$shared_ptr@VCell@@@std@@V?$allocator@V?$shared_ptr@VCell@@@std@@@2@@2@XZ
_TEXT	SEGMENT
this$ = 80
?_Myfirst@?$_Vector_alloc@U?$_Vec_base_types@V?$vector@V?$shared_ptr@VCell@@@std@@V?$allocator@V?$shared_ptr@VCell@@@std@@@2@@std@@V?$allocator@V?$vector@V?$shared_ptr@VCell@@@std@@V?$allocator@V?$shared_ptr@VCell@@@std@@@2@@std@@@2@@std@@@std@@QEAAAEAPEAV?$vector@V?$shared_ptr@VCell@@@std@@V?$allocator@V?$shared_ptr@VCell@@@std@@@2@@2@XZ PROC ; std::_Vector_alloc<std::_Vec_base_types<std::vector<std::shared_ptr<Cell>,std::allocator<std::shared_ptr<Cell> > >,std::allocator<std::vector<std::shared_ptr<Cell>,std::allocator<std::shared_ptr<Cell> > > > > >::_Myfirst, COMDAT

; 641  : 		{	// return reference to _Myfirst

$LN3:
	mov	QWORD PTR [rsp+8], rcx
	push	rbp
	sub	rsp, 96					; 00000060H
	lea	rbp, QWORD PTR [rsp+32]

; 642  : 		return (_Get_data()._Myfirst);

	mov	rcx, QWORD PTR this$[rbp]
	call	?_Get_data@?$_Vector_alloc@U?$_Vec_base_types@V?$vector@V?$shared_ptr@VCell@@@std@@V?$allocator@V?$shared_ptr@VCell@@@std@@@2@@std@@V?$allocator@V?$vector@V?$shared_ptr@VCell@@@std@@V?$allocator@V?$shared_ptr@VCell@@@std@@@2@@std@@@2@@std@@@std@@QEAAAEAV?$_Vector_val@U?$_Simple_types@V?$vector@V?$shared_ptr@VCell@@@std@@V?$allocator@V?$shared_ptr@VCell@@@std@@@2@@std@@@std@@@2@XZ ; std::_Vector_alloc<std::_Vec_base_types<std::vector<std::shared_ptr<Cell>,std::allocator<std::shared_ptr<Cell> > >,std::allocator<std::vector<std::shared_ptr<Cell>,std::allocator<std::shared_ptr<Cell> > > > > >::_Get_data
	add	rax, 8

; 643  : 		}

	lea	rsp, QWORD PTR [rbp+64]
	pop	rbp
	ret	0
?_Myfirst@?$_Vector_alloc@U?$_Vec_base_types@V?$vector@V?$shared_ptr@VCell@@@std@@V?$allocator@V?$shared_ptr@VCell@@@std@@@2@@std@@V?$allocator@V?$vector@V?$shared_ptr@VCell@@@std@@V?$allocator@V?$shared_ptr@VCell@@@std@@@2@@std@@@2@@std@@@std@@QEAAAEAPEAV?$vector@V?$shared_ptr@VCell@@@std@@V?$allocator@V?$shared_ptr@VCell@@@std@@@2@@2@XZ ENDP ; std::_Vector_alloc<std::_Vec_base_types<std::vector<std::shared_ptr<Cell>,std::allocator<std::shared_ptr<Cell> > >,std::allocator<std::vector<std::shared_ptr<Cell>,std::allocator<std::shared_ptr<Cell> > > > > >::_Myfirst
_TEXT	ENDS
; Function compile flags: /Odtp /RTCu /ZI
; File c:\program files (x86)\microsoft visual studio 14.0\vc\include\vector
;	COMDAT ?_Get_data@?$_Vector_alloc@U?$_Vec_base_types@V?$vector@V?$shared_ptr@VCell@@@std@@V?$allocator@V?$shared_ptr@VCell@@@std@@@2@@std@@V?$allocator@V?$vector@V?$shared_ptr@VCell@@@std@@V?$allocator@V?$shared_ptr@VCell@@@std@@@2@@std@@@2@@std@@@std@@QEBAAEBV?$_Vector_val@U?$_Simple_types@V?$vector@V?$shared_ptr@VCell@@@std@@V?$allocator@V?$shared_ptr@VCell@@@std@@@2@@std@@@std@@@2@XZ
_TEXT	SEGMENT
this$ = 80
?_Get_data@?$_Vector_alloc@U?$_Vec_base_types@V?$vector@V?$shared_ptr@VCell@@@std@@V?$allocator@V?$shared_ptr@VCell@@@std@@@2@@std@@V?$allocator@V?$vector@V?$shared_ptr@VCell@@@std@@V?$allocator@V?$shared_ptr@VCell@@@std@@@2@@std@@@2@@std@@@std@@QEBAAEBV?$_Vector_val@U?$_Simple_types@V?$vector@V?$shared_ptr@VCell@@@std@@V?$allocator@V?$shared_ptr@VCell@@@std@@@2@@std@@@std@@@2@XZ PROC ; std::_Vector_alloc<std::_Vec_base_types<std::vector<std::shared_ptr<Cell>,std::allocator<std::shared_ptr<Cell> > >,std::allocator<std::vector<std::shared_ptr<Cell>,std::allocator<std::shared_ptr<Cell> > > > > >::_Get_data, COMDAT

; 636  : 		{	// return const reference to _Vector_val

$LN3:
	mov	QWORD PTR [rsp+8], rcx
	push	rbp
	sub	rsp, 96					; 00000060H
	lea	rbp, QWORD PTR [rsp+32]

; 637  : 		return (_Mypair._Get_second());

	mov	rax, QWORD PTR this$[rbp]
	mov	rcx, rax
	call	?_Get_second@?$_Compressed_pair@U?$_Wrap_alloc@V?$allocator@V?$vector@V?$shared_ptr@VCell@@@std@@V?$allocator@V?$shared_ptr@VCell@@@std@@@2@@std@@@std@@@std@@V?$_Vector_val@U?$_Simple_types@V?$vector@V?$shared_ptr@VCell@@@std@@V?$allocator@V?$shared_ptr@VCell@@@std@@@2@@std@@@std@@@2@$00@std@@QEBAAEBV?$_Vector_val@U?$_Simple_types@V?$vector@V?$shared_ptr@VCell@@@std@@V?$allocator@V?$shared_ptr@VCell@@@std@@@2@@std@@@std@@@2@XZ ; std::_Compressed_pair<std::_Wrap_alloc<std::allocator<std::vector<std::shared_ptr<Cell>,std::allocator<std::shared_ptr<Cell> > > > >,std::_Vector_val<std::_Simple_types<std::vector<std::shared_ptr<Cell>,std::allocator<std::shared_ptr<Cell> > > > >,1>::_Get_second

; 638  : 		}

	lea	rsp, QWORD PTR [rbp+64]
	pop	rbp
	ret	0
?_Get_data@?$_Vector_alloc@U?$_Vec_base_types@V?$vector@V?$shared_ptr@VCell@@@std@@V?$allocator@V?$shared_ptr@VCell@@@std@@@2@@std@@V?$allocator@V?$vector@V?$shared_ptr@VCell@@@std@@V?$allocator@V?$shared_ptr@VCell@@@std@@@2@@std@@@2@@std@@@std@@QEBAAEBV?$_Vector_val@U?$_Simple_types@V?$vector@V?$shared_ptr@VCell@@@std@@V?$allocator@V?$shared_ptr@VCell@@@std@@@2@@std@@@std@@@2@XZ ENDP ; std::_Vector_alloc<std::_Vec_base_types<std::vector<std::shared_ptr<Cell>,std::allocator<std::shared_ptr<Cell> > >,std::allocator<std::vector<std::shared_ptr<Cell>,std::allocator<std::shared_ptr<Cell> > > > > >::_Get_data
_TEXT	ENDS
; Function compile flags: /Odtp /RTCu /ZI
; File c:\program files (x86)\microsoft visual studio 14.0\vc\include\vector
;	COMDAT ?_Get_data@?$_Vector_alloc@U?$_Vec_base_types@V?$vector@V?$shared_ptr@VCell@@@std@@V?$allocator@V?$shared_ptr@VCell@@@std@@@2@@std@@V?$allocator@V?$vector@V?$shared_ptr@VCell@@@std@@V?$allocator@V?$shared_ptr@VCell@@@std@@@2@@std@@@2@@std@@@std@@QEAAAEAV?$_Vector_val@U?$_Simple_types@V?$vector@V?$shared_ptr@VCell@@@std@@V?$allocator@V?$shared_ptr@VCell@@@std@@@2@@std@@@std@@@2@XZ
_TEXT	SEGMENT
this$ = 80
?_Get_data@?$_Vector_alloc@U?$_Vec_base_types@V?$vector@V?$shared_ptr@VCell@@@std@@V?$allocator@V?$shared_ptr@VCell@@@std@@@2@@std@@V?$allocator@V?$vector@V?$shared_ptr@VCell@@@std@@V?$allocator@V?$shared_ptr@VCell@@@std@@@2@@std@@@2@@std@@@std@@QEAAAEAV?$_Vector_val@U?$_Simple_types@V?$vector@V?$shared_ptr@VCell@@@std@@V?$allocator@V?$shared_ptr@VCell@@@std@@@2@@std@@@std@@@2@XZ PROC ; std::_Vector_alloc<std::_Vec_base_types<std::vector<std::shared_ptr<Cell>,std::allocator<std::shared_ptr<Cell> > >,std::allocator<std::vector<std::shared_ptr<Cell>,std::allocator<std::shared_ptr<Cell> > > > > >::_Get_data, COMDAT

; 631  : 		{	// return reference to _Vector_val

$LN3:
	mov	QWORD PTR [rsp+8], rcx
	push	rbp
	sub	rsp, 96					; 00000060H
	lea	rbp, QWORD PTR [rsp+32]

; 632  : 		return (_Mypair._Get_second());

	mov	rax, QWORD PTR this$[rbp]
	mov	rcx, rax
	call	?_Get_second@?$_Compressed_pair@U?$_Wrap_alloc@V?$allocator@V?$vector@V?$shared_ptr@VCell@@@std@@V?$allocator@V?$shared_ptr@VCell@@@std@@@2@@std@@@std@@@std@@V?$_Vector_val@U?$_Simple_types@V?$vector@V?$shared_ptr@VCell@@@std@@V?$allocator@V?$shared_ptr@VCell@@@std@@@2@@std@@@std@@@2@$00@std@@QEAAAEAV?$_Vector_val@U?$_Simple_types@V?$vector@V?$shared_ptr@VCell@@@std@@V?$allocator@V?$shared_ptr@VCell@@@std@@@2@@std@@@std@@@2@XZ ; std::_Compressed_pair<std::_Wrap_alloc<std::allocator<std::vector<std::shared_ptr<Cell>,std::allocator<std::shared_ptr<Cell> > > > >,std::_Vector_val<std::_Simple_types<std::vector<std::shared_ptr<Cell>,std::allocator<std::shared_ptr<Cell> > > > >,1>::_Get_second

; 633  : 		}

	lea	rsp, QWORD PTR [rbp+64]
	pop	rbp
	ret	0
?_Get_data@?$_Vector_alloc@U?$_Vec_base_types@V?$vector@V?$shared_ptr@VCell@@@std@@V?$allocator@V?$shared_ptr@VCell@@@std@@@2@@std@@V?$allocator@V?$vector@V?$shared_ptr@VCell@@@std@@V?$allocator@V?$shared_ptr@VCell@@@std@@@2@@std@@@2@@std@@@std@@QEAAAEAV?$_Vector_val@U?$_Simple_types@V?$vector@V?$shared_ptr@VCell@@@std@@V?$allocator@V?$shared_ptr@VCell@@@std@@@2@@std@@@std@@@2@XZ ENDP ; std::_Vector_alloc<std::_Vec_base_types<std::vector<std::shared_ptr<Cell>,std::allocator<std::shared_ptr<Cell> > >,std::allocator<std::vector<std::shared_ptr<Cell>,std::allocator<std::shared_ptr<Cell> > > > > >::_Get_data
_TEXT	ENDS
; Function compile flags: /Odtp /RTCu /ZI
; File c:\program files (x86)\microsoft visual studio 14.0\vc\include\memory
;	COMDAT ??C?$shared_ptr@VCell@@@std@@QEBAPEAVCell@@XZ
_TEXT	SEGMENT
this$ = 80
??C?$shared_ptr@VCell@@@std@@QEBAPEAVCell@@XZ PROC	; std::shared_ptr<Cell>::operator->, COMDAT

; 634  : 		{	// return pointer to resource

$LN3:
	mov	QWORD PTR [rsp+8], rcx
	push	rbp
	sub	rsp, 96					; 00000060H
	lea	rbp, QWORD PTR [rsp+32]

; 635  : 		return (this->_Get());

	mov	rcx, QWORD PTR this$[rbp]
	call	?_Get@?$_Ptr_base@VCell@@@std@@QEBAPEAVCell@@XZ ; std::_Ptr_base<Cell>::_Get

; 636  : 		}

	lea	rsp, QWORD PTR [rbp+64]
	pop	rbp
	ret	0
??C?$shared_ptr@VCell@@@std@@QEBAPEAVCell@@XZ ENDP	; std::shared_ptr<Cell>::operator->
_TEXT	ENDS
; Function compile flags: /Odtp /RTCu /ZI
; File c:\program files (x86)\microsoft visual studio 14.0\vc\include\memory
;	COMDAT ?get@?$shared_ptr@VCell@@@std@@QEBAPEAVCell@@XZ
_TEXT	SEGMENT
this$ = 80
?get@?$shared_ptr@VCell@@@std@@QEBAPEAVCell@@XZ PROC	; std::shared_ptr<Cell>::get, COMDAT

; 624  : 		{	// return pointer to resource

$LN3:
	mov	QWORD PTR [rsp+8], rcx
	push	rbp
	sub	rsp, 96					; 00000060H
	lea	rbp, QWORD PTR [rsp+32]

; 625  : 		return (this->_Get());

	mov	rcx, QWORD PTR this$[rbp]
	call	?_Get@?$_Ptr_base@VCell@@@std@@QEBAPEAVCell@@XZ ; std::_Ptr_base<Cell>::_Get

; 626  : 		}

	lea	rsp, QWORD PTR [rbp+64]
	pop	rbp
	ret	0
?get@?$shared_ptr@VCell@@@std@@QEBAPEAVCell@@XZ ENDP	; std::shared_ptr<Cell>::get
_TEXT	ENDS
; Function compile flags: /Odtp /RTCu /ZI
; File c:\program files (x86)\microsoft visual studio 14.0\vc\include\memory
;	COMDAT ??0?$shared_ptr@VCell@@@std@@QEAA@AEBV01@@Z
_TEXT	SEGMENT
$T1 = 64
this$ = 96
_Other$ = 104
??0?$shared_ptr@VCell@@@std@@QEAA@AEBV01@@Z PROC	; std::shared_ptr<Cell>::shared_ptr<Cell>, COMDAT

; 492  : 	shared_ptr(const _Myt& _Other) _NOEXCEPT

$LN3:
	mov	QWORD PTR [rsp+16], rdx
	mov	QWORD PTR [rsp+8], rcx
	push	rbp
	sub	rsp, 112				; 00000070H
	lea	rbp, QWORD PTR [rsp+32]
	mov	QWORD PTR $T1[rbp], -2

; 493  : 		{	// construct shared_ptr object that owns same resource as _Other

	mov	rcx, QWORD PTR this$[rbp]
	call	??0?$_Ptr_base@VCell@@@std@@QEAA@XZ	; std::_Ptr_base<Cell>::_Ptr_base<Cell>
	npad	1

; 494  : 		this->_Reset(_Other);

	mov	rdx, QWORD PTR _Other$[rbp]
	mov	rcx, QWORD PTR this$[rbp]
	call	??$_Reset@VCell@@@?$_Ptr_base@VCell@@@std@@QEAAXAEBV01@@Z ; std::_Ptr_base<Cell>::_Reset<Cell>
	npad	1

; 495  : 		}

	mov	rax, QWORD PTR this$[rbp]
	lea	rsp, QWORD PTR [rbp+80]
	pop	rbp
	ret	0
??0?$shared_ptr@VCell@@@std@@QEAA@AEBV01@@Z ENDP	; std::shared_ptr<Cell>::shared_ptr<Cell>
_TEXT	ENDS
; Function compile flags: /Odtp /RTCu /ZI
; File c:\program files (x86)\microsoft visual studio 14.0\vc\include\memory
;	COMDAT ??0?$shared_ptr@VCell@@@std@@QEAA@$$T@Z
_TEXT	SEGMENT
this$ = 80
__formal$ = 88
??0?$shared_ptr@VCell@@@std@@QEAA@$$T@Z PROC		; std::shared_ptr<Cell>::shared_ptr<Cell>, COMDAT

; 461  : 	_CONST_FUN shared_ptr(nullptr_t) _NOEXCEPT

$LN3:
	mov	QWORD PTR [rsp+16], rdx
	mov	QWORD PTR [rsp+8], rcx
	push	rbp
	sub	rsp, 96					; 00000060H
	lea	rbp, QWORD PTR [rsp+32]

; 462  : 		{	// construct empty shared_ptr

	mov	rcx, QWORD PTR this$[rbp]
	call	??0?$_Ptr_base@VCell@@@std@@QEAA@XZ	; std::_Ptr_base<Cell>::_Ptr_base<Cell>

; 463  : 		}

	mov	rax, QWORD PTR this$[rbp]
	lea	rsp, QWORD PTR [rbp+64]
	pop	rbp
	ret	0
??0?$shared_ptr@VCell@@@std@@QEAA@$$T@Z ENDP		; std::shared_ptr<Cell>::shared_ptr<Cell>
_TEXT	ENDS
; Function compile flags: /Odtp /RTCu /ZI
; File c:\program files (x86)\microsoft visual studio 14.0\vc\include\memory
;	COMDAT ?_Reset0@?$_Ptr_base@VCell@@@std@@QEAAXPEAVCell@@PEAV_Ref_count_base@2@@Z
_TEXT	SEGMENT
this$ = 80
_Other_ptr$ = 88
_Other_rep$ = 96
?_Reset0@?$_Ptr_base@VCell@@@std@@QEAAXPEAVCell@@PEAV_Ref_count_base@2@@Z PROC ; std::_Ptr_base<Cell>::_Reset0, COMDAT

; 393  : 		{	// release resource and take new resource

$LN4:
	mov	QWORD PTR [rsp+24], r8
	mov	QWORD PTR [rsp+16], rdx
	mov	QWORD PTR [rsp+8], rcx
	push	rbp
	sub	rsp, 96					; 00000060H
	lea	rbp, QWORD PTR [rsp+32]

; 394  : 		if (_Rep != 0)

	mov	rax, QWORD PTR this$[rbp]
	cmp	QWORD PTR [rax+8], 0
	je	SHORT $LN2@Reset0

; 395  : 			_Rep->_Decref();

	mov	rax, QWORD PTR this$[rbp]
	mov	rcx, QWORD PTR [rax+8]
	call	?_Decref@_Ref_count_base@std@@QEAAXXZ	; std::_Ref_count_base::_Decref
$LN2@Reset0:

; 396  : 		_Rep = _Other_rep;

	mov	rax, QWORD PTR this$[rbp]
	mov	rcx, QWORD PTR _Other_rep$[rbp]
	mov	QWORD PTR [rax+8], rcx

; 397  : 		_Ptr = _Other_ptr;

	mov	rax, QWORD PTR this$[rbp]
	mov	rcx, QWORD PTR _Other_ptr$[rbp]
	mov	QWORD PTR [rax], rcx

; 398  : 		}

	lea	rsp, QWORD PTR [rbp+64]
	pop	rbp
	ret	0
?_Reset0@?$_Ptr_base@VCell@@@std@@QEAAXPEAVCell@@PEAV_Ref_count_base@2@@Z ENDP ; std::_Ptr_base<Cell>::_Reset0
_TEXT	ENDS
; Function compile flags: /Odtp /RTCu /ZI
; File c:\program files (x86)\microsoft visual studio 14.0\vc\include\memory
;	COMDAT ?_Reset@?$_Ptr_base@VCell@@@std@@QEAAXPEAVCell@@PEAV_Ref_count_base@2@@Z
_TEXT	SEGMENT
this$ = 80
_Other_ptr$ = 88
_Other_rep$ = 96
?_Reset@?$_Ptr_base@VCell@@@std@@QEAAXPEAVCell@@PEAV_Ref_count_base@2@@Z PROC ; std::_Ptr_base<Cell>::_Reset, COMDAT

; 376  : 		{	// release resource and take _Other_ptr through _Other_rep

$LN4:
	mov	QWORD PTR [rsp+24], r8
	mov	QWORD PTR [rsp+16], rdx
	mov	QWORD PTR [rsp+8], rcx
	push	rbp
	sub	rsp, 96					; 00000060H
	lea	rbp, QWORD PTR [rsp+32]

; 377  : 		if (_Other_rep)

	cmp	QWORD PTR _Other_rep$[rbp], 0
	je	SHORT $LN2@Reset

; 378  : 			_Other_rep->_Incref();

	mov	rcx, QWORD PTR _Other_rep$[rbp]
	call	?_Incref@_Ref_count_base@std@@QEAAXXZ	; std::_Ref_count_base::_Incref
$LN2@Reset:

; 379  : 		_Reset0(_Other_ptr, _Other_rep);

	mov	r8, QWORD PTR _Other_rep$[rbp]
	mov	rdx, QWORD PTR _Other_ptr$[rbp]
	mov	rcx, QWORD PTR this$[rbp]
	call	?_Reset0@?$_Ptr_base@VCell@@@std@@QEAAXPEAVCell@@PEAV_Ref_count_base@2@@Z ; std::_Ptr_base<Cell>::_Reset0

; 380  : 		}

	lea	rsp, QWORD PTR [rbp+64]
	pop	rbp
	ret	0
?_Reset@?$_Ptr_base@VCell@@@std@@QEAAXPEAVCell@@PEAV_Ref_count_base@2@@Z ENDP ; std::_Ptr_base<Cell>::_Reset
_TEXT	ENDS
; Function compile flags: /Odtp /RTCu /ZI
; File c:\program files (x86)\microsoft visual studio 14.0\vc\include\memory
;	COMDAT ?_Get@?$_Ptr_base@VCell@@@std@@QEBAPEAVCell@@XZ
_TEXT	SEGMENT
this$ = 80
?_Get@?$_Ptr_base@VCell@@@std@@QEBAPEAVCell@@XZ PROC	; std::_Ptr_base<Cell>::_Get, COMDAT

; 326  : 		{	// return pointer to resource

$LN3:
	mov	QWORD PTR [rsp+8], rcx
	push	rbp
	sub	rsp, 64					; 00000040H
	mov	rbp, rsp

; 327  : 		return (_Ptr);

	mov	rax, QWORD PTR this$[rbp]
	mov	rax, QWORD PTR [rax]

; 328  : 		}

	lea	rsp, QWORD PTR [rbp+64]
	pop	rbp
	ret	0
?_Get@?$_Ptr_base@VCell@@@std@@QEBAPEAVCell@@XZ ENDP	; std::_Ptr_base<Cell>::_Get
_TEXT	ENDS
; Function compile flags: /Odtp /RTCu /ZI
; File c:\program files (x86)\microsoft visual studio 14.0\vc\include\memory
;	COMDAT ??0?$_Ptr_base@VCell@@@std@@QEAA@XZ
_TEXT	SEGMENT
this$ = 80
??0?$_Ptr_base@VCell@@@std@@QEAA@XZ PROC		; std::_Ptr_base<Cell>::_Ptr_base<Cell>, COMDAT

; 274  : 		{	// construct

$LN3:
	mov	QWORD PTR [rsp+8], rcx
	push	rbp
	sub	rsp, 64					; 00000040H
	mov	rbp, rsp

; 273  : 		: _Ptr(0), _Rep(0)

	mov	rax, QWORD PTR this$[rbp]
	mov	QWORD PTR [rax], 0
	mov	rax, QWORD PTR this$[rbp]
	mov	QWORD PTR [rax+8], 0

; 275  : 		}

	mov	rax, QWORD PTR this$[rbp]
	lea	rsp, QWORD PTR [rbp+64]
	pop	rbp
	ret	0
??0?$_Ptr_base@VCell@@@std@@QEAA@XZ ENDP		; std::_Ptr_base<Cell>::_Ptr_base<Cell>
_TEXT	ENDS
; Function compile flags: /Odtp /RTCu /ZI
; File c:\users\airp\source\repos\epi3\epi3\funcs.h
;	COMDAT ?adhesion@@YANNNN@Z
_TEXT	SEGMENT
LJ2_m1$ = 0
tv76 = 72
distlj$ = 96
rad_sum$ = 104
spring_const$ = 112
?adhesion@@YANNNN@Z PROC				; adhesion, COMDAT

; 51   : {

$LN5:
	vmovsd	QWORD PTR [rsp+24], xmm2
	vmovsd	QWORD PTR [rsp+16], xmm1
	vmovsd	QWORD PTR [rsp+8], xmm0
	push	rbp
	sub	rsp, 80					; 00000050H
	mov	rbp, rsp

; 52   : 	double LJ2_m1;
; 53   : 
; 54   : 	LJ2_m1 = distlj / rad_sum -1;

	vmovsd	xmm0, QWORD PTR distlj$[rbp]
	vdivsd	xmm0, xmm0, QWORD PTR rad_sum$[rbp]
	vsubsd	xmm0, xmm0, QWORD PTR __real@3ff0000000000000
	vmovsd	QWORD PTR LJ2_m1$[rbp], xmm0

; 55   : 	return (LJ2_m1+1 > LJ_THRESH ?

	vmovsd	xmm0, QWORD PTR LJ2_m1$[rbp]
	vaddsd	xmm0, xmm0, QWORD PTR __real@3ff0000000000000
	vcomisd	xmm0, QWORD PTR __real@3ff3333333333333
	jbe	SHORT $LN3@adhesion
	vxorps	xmm0, xmm0, xmm0
	vmovsd	QWORD PTR tv76[rbp], xmm0
	jmp	SHORT $LN4@adhesion
$LN3@adhesion:
	vmovsd	xmm0, QWORD PTR spring_const$[rbp]
	vdivsd	xmm0, xmm0, QWORD PTR distlj$[rbp]
	vxorpd	xmm0, xmm0, QWORD PTR __xmm@80000000000000008000000000000000
	vmulsd	xmm0, xmm0, QWORD PTR LJ2_m1$[rbp]
	vmovsd	xmm1, QWORD PTR LJ2_m1$[rbp]
	vmulsd	xmm1, xmm1, QWORD PTR LJ2_m1$[rbp]
	vdivsd	xmm1, xmm1, QWORD PTR __real@3fa47ae147ae1478
	vmovsd	xmm2, QWORD PTR __real@3ff0000000000000
	vsubsd	xmm1, xmm2, xmm1
	vmulsd	xmm0, xmm0, xmm1
	vmovsd	QWORD PTR tv76[rbp], xmm0
$LN4@adhesion:
	vmovsd	xmm0, QWORD PTR tv76[rbp]

; 56   : 		0.0 :
; 57   : 		-(spring_const / distlj)
; 58   : 		* LJ2_m1*(1 - LJ2_m1*LJ2_m1 / ((LJ_THRESH - 1.0)*(LJ_THRESH - 1.0))));
; 59   : }

	lea	rsp, QWORD PTR [rbp+80]
	pop	rbp
	ret	0
?adhesion@@YANNNN@Z ENDP				; adhesion
_TEXT	ENDS
; Function compile flags: /Odtp /RTCu /ZI
; File c:\users\airp\source\repos\epi3\epi3\funcs.h
;	COMDAT ?dist3Sq@@YANNNNNNN@Z
_TEXT	SEGMENT
diffx$ = 0
diffy$ = 8
tv71 = 80
tv73 = 88
x1$ = 112
y1$ = 120
z1$ = 128
x2$ = 136
y2$ = 144
z2$ = 152
?dist3Sq@@YANNNNNNN@Z PROC				; dist3Sq, COMDAT

; 44   : 	const double x2, const double y2, const double z2) {

$LN3:
	vmovsd	QWORD PTR [rsp+32], xmm3
	vmovsd	QWORD PTR [rsp+24], xmm2
	vmovsd	QWORD PTR [rsp+16], xmm1
	vmovsd	QWORD PTR [rsp+8], xmm0
	push	rbp
	sub	rsp, 128				; 00000080H
	lea	rbp, QWORD PTR [rsp+32]

; 45   : 	double diffx = perio_diff_x(x1, x2);

	vmovsd	xmm1, QWORD PTR x2$[rbp]
	vmovsd	xmm0, QWORD PTR x1$[rbp]
	call	?perio_diff_x@@YANNN@Z			; perio_diff_x
	vmovsd	QWORD PTR diffx$[rbp], xmm0

; 46   : 	double diffy = perio_diff_y(y1, y2);

	vmovsd	xmm1, QWORD PTR y2$[rbp]
	vmovsd	xmm0, QWORD PTR y1$[rbp]
	call	?perio_diff_y@@YANNN@Z			; perio_diff_y
	vmovsd	QWORD PTR diffy$[rbp], xmm0

; 47   : 	return normSq(perio_diff_x(x1, x2), perio_diff_y(y1, y2), z1 - z2);

	vmovsd	xmm0, QWORD PTR z1$[rbp]
	vsubsd	xmm0, xmm0, QWORD PTR z2$[rbp]
	vmovsd	QWORD PTR tv71[rbp], xmm0
	vmovsd	xmm1, QWORD PTR y2$[rbp]
	vmovsd	xmm0, QWORD PTR y1$[rbp]
	call	?perio_diff_y@@YANNN@Z			; perio_diff_y
	vmovsd	QWORD PTR tv73[rbp], xmm0
	vmovsd	xmm1, QWORD PTR x2$[rbp]
	vmovsd	xmm0, QWORD PTR x1$[rbp]
	call	?perio_diff_x@@YANNN@Z			; perio_diff_x
	vmovsd	xmm1, QWORD PTR tv71[rbp]
	vmovups	xmm2, xmm1
	vmovsd	xmm1, QWORD PTR tv73[rbp]
	call	?normSq@@YANNNN@Z			; normSq

; 48   : }

	lea	rsp, QWORD PTR [rbp+96]
	pop	rbp
	ret	0
?dist3Sq@@YANNNNNNN@Z ENDP				; dist3Sq
_TEXT	ENDS
; Function compile flags: /Odtp /RTCu /ZI
; File c:\users\airp\source\repos\epi3\epi3\funcs.h
;	COMDAT ?normSq@@YANNNN@Z
_TEXT	SEGMENT
x1$ = 80
x2$ = 88
x3$ = 96
?normSq@@YANNNN@Z PROC					; normSq, COMDAT

; 40   : inline double normSq(const double x1, const double x2, const double x3) {

$LN3:
	vmovsd	QWORD PTR [rsp+24], xmm2
	vmovsd	QWORD PTR [rsp+16], xmm1
	vmovsd	QWORD PTR [rsp+8], xmm0
	push	rbp
	sub	rsp, 64					; 00000040H
	mov	rbp, rsp

; 41   : 	return x1*x1 + x2*x2 + x3*x3;

	vmovsd	xmm0, QWORD PTR x1$[rbp]
	vmulsd	xmm0, xmm0, QWORD PTR x1$[rbp]
	vmovsd	xmm1, QWORD PTR x2$[rbp]
	vmulsd	xmm1, xmm1, QWORD PTR x2$[rbp]
	vaddsd	xmm0, xmm0, xmm1
	vmovsd	xmm1, QWORD PTR x3$[rbp]
	vmulsd	xmm1, xmm1, QWORD PTR x3$[rbp]
	vaddsd	xmm0, xmm0, xmm1

; 42   : }

	lea	rsp, QWORD PTR [rbp+64]
	pop	rbp
	ret	0
?normSq@@YANNNN@Z ENDP					; normSq
_TEXT	ENDS
; Function compile flags: /Odtp /RTCu /ZI
; File c:\users\airp\source\repos\epi3\epi3\funcs.h
;	COMDAT ?perio_diff_y@@YANNN@Z
_TEXT	SEGMENT
diff$ = 0
tv68 = 72
x1$ = 96
x2$ = 104
?perio_diff_y@@YANNN@Z PROC				; perio_diff_y, COMDAT

; 32   : {

$LN7:
	vmovsd	QWORD PTR [rsp+16], xmm1
	vmovsd	QWORD PTR [rsp+8], xmm0
	push	rbp
	sub	rsp, 80					; 00000050H
	mov	rbp, rsp

; 33   : 	double diff = x1 - x2;

	vmovsd	xmm0, QWORD PTR x1$[rbp]
	vsubsd	xmm0, xmm0, QWORD PTR x2$[rbp]
	vmovsd	QWORD PTR diff$[rbp], xmm0

; 34   : 	if (diff*diff < 0.25*LY*LY) return diff;

	vmovsd	xmm0, QWORD PTR diff$[rbp]
	vmulsd	xmm0, xmm0, QWORD PTR diff$[rbp]
	vmovsd	xmm1, QWORD PTR __real@4083880000000000
	vcomisd	xmm1, xmm0
	jbe	SHORT $LN2@perio_diff
	vmovsd	xmm0, QWORD PTR diff$[rbp]
	jmp	SHORT $LN1@perio_diff

; 35   : 	else {

	jmp	SHORT $LN3@perio_diff
$LN2@perio_diff:

; 36   : 		return diff + (x1 > x2 ? -LY : LY);

	vmovsd	xmm0, QWORD PTR x1$[rbp]
	vcomisd	xmm0, QWORD PTR x2$[rbp]
	jbe	SHORT $LN5@perio_diff
	vmovsd	xmm0, QWORD PTR __real@c049000000000000
	vmovsd	QWORD PTR tv68[rbp], xmm0
	jmp	SHORT $LN6@perio_diff
$LN5@perio_diff:
	vmovsd	xmm0, QWORD PTR __real@4049000000000000
	vmovsd	QWORD PTR tv68[rbp], xmm0
$LN6@perio_diff:
	vmovsd	xmm0, QWORD PTR diff$[rbp]
	vaddsd	xmm0, xmm0, QWORD PTR tv68[rbp]
$LN3@perio_diff:
$LN1@perio_diff:

; 37   : 	}
; 38   : }

	lea	rsp, QWORD PTR [rbp+80]
	pop	rbp
	ret	0
?perio_diff_y@@YANNN@Z ENDP				; perio_diff_y
_TEXT	ENDS
; Function compile flags: /Odtp /RTCu /ZI
; File c:\users\airp\source\repos\epi3\epi3\funcs.h
;	COMDAT ?perio_diff_x@@YANNN@Z
_TEXT	SEGMENT
diff$ = 0
tv68 = 72
x1$ = 96
x2$ = 104
?perio_diff_x@@YANNN@Z PROC				; perio_diff_x, COMDAT

; 23   : {

$LN7:
	vmovsd	QWORD PTR [rsp+16], xmm1
	vmovsd	QWORD PTR [rsp+8], xmm0
	push	rbp
	sub	rsp, 80					; 00000050H
	mov	rbp, rsp

; 24   : 	double diff = x1 - x2;

	vmovsd	xmm0, QWORD PTR x1$[rbp]
	vsubsd	xmm0, xmm0, QWORD PTR x2$[rbp]
	vmovsd	QWORD PTR diff$[rbp], xmm0

; 25   : 	if (diff*diff < 0.25*LX*LX) return diff;

	vmovsd	xmm0, QWORD PTR diff$[rbp]
	vmulsd	xmm0, xmm0, QWORD PTR diff$[rbp]
	vmovsd	xmm1, QWORD PTR __real@4083880000000000
	vcomisd	xmm1, xmm0
	jbe	SHORT $LN2@perio_diff
	vmovsd	xmm0, QWORD PTR diff$[rbp]
	jmp	SHORT $LN1@perio_diff

; 26   : 	else {

	jmp	SHORT $LN3@perio_diff
$LN2@perio_diff:

; 27   : 		return diff + (x1 > x2 ? -LX : LX);

	vmovsd	xmm0, QWORD PTR x1$[rbp]
	vcomisd	xmm0, QWORD PTR x2$[rbp]
	jbe	SHORT $LN5@perio_diff
	vmovsd	xmm0, QWORD PTR __real@c049000000000000
	vmovsd	QWORD PTR tv68[rbp], xmm0
	jmp	SHORT $LN6@perio_diff
$LN5@perio_diff:
	vmovsd	xmm0, QWORD PTR __real@4049000000000000
	vmovsd	QWORD PTR tv68[rbp], xmm0
$LN6@perio_diff:
	vmovsd	xmm0, QWORD PTR diff$[rbp]
	vaddsd	xmm0, xmm0, QWORD PTR tv68[rbp]
$LN3@perio_diff:
$LN1@perio_diff:

; 28   : 	}
; 29   : }

	lea	rsp, QWORD PTR [rbp+80]
	pop	rbp
	ret	0
?perio_diff_x@@YANNN@Z ENDP				; perio_diff_x
_TEXT	ENDS
; Function compile flags: /Odtp /RTCu /ZI
; File c:\users\airp\source\repos\epi3\epi3\funcs.h
;	COMDAT ??__Erng_real_dist@@YAXXZ
text$di	SEGMENT
??__Erng_real_dist@@YAXXZ PROC				; `dynamic initializer for 'rng_real_dist'', COMDAT

; 8    : static std::uniform_real_distribution<double> rng_real_dist(0.0,1.0);

	push	rbp
	sub	rsp, 96					; 00000060H
	lea	rbp, QWORD PTR [rsp+32]
	vmovsd	xmm2, QWORD PTR __real@3ff0000000000000
	vxorps	xmm1, xmm1, xmm1
	lea	rcx, OFFSET FLAT:?rng_real_dist@@3V?$uniform_real_distribution@N@std@@A
	call	??0?$uniform_real_distribution@N@std@@QEAA@NN@Z ; std::uniform_real_distribution<double>::uniform_real_distribution<double>
	lea	rsp, QWORD PTR [rbp+64]
	pop	rbp
	ret	0
??__Erng_real_dist@@YAXXZ ENDP				; `dynamic initializer for 'rng_real_dist''
text$di	ENDS
; Function compile flags: /Odtp /RTCu /ZI
; File c:\program files (x86)\microsoft visual studio 14.0\vc\include\random
;	COMDAT ??0?$uniform_real_distribution@N@std@@QEAA@NN@Z
_TEXT	SEGMENT
this$ = 80
_Min0$ = 88
_Max0$ = 96
??0?$uniform_real_distribution@N@std@@QEAA@NN@Z PROC	; std::uniform_real_distribution<double>::uniform_real_distribution<double>, COMDAT

; 3623 : 		{	// construct from parameters

$LN3:
	vmovsd	QWORD PTR [rsp+24], xmm2
	vmovsd	QWORD PTR [rsp+16], xmm1
	mov	QWORD PTR [rsp+8], rcx
	push	rbp
	sub	rsp, 96					; 00000060H
	lea	rbp, QWORD PTR [rsp+32]

; 3622 : 		: _Mybase(_Min0, _Max0)

	vmovsd	xmm2, QWORD PTR _Max0$[rbp]
	vmovsd	xmm1, QWORD PTR _Min0$[rbp]
	mov	rcx, QWORD PTR this$[rbp]
	call	??0?$uniform_real@N@std@@QEAA@NN@Z	; std::uniform_real<double>::uniform_real<double>

; 3624 : 		}

	mov	rax, QWORD PTR this$[rbp]
	lea	rsp, QWORD PTR [rbp+64]
	pop	rbp
	ret	0
??0?$uniform_real_distribution@N@std@@QEAA@NN@Z ENDP	; std::uniform_real_distribution<double>::uniform_real_distribution<double>
_TEXT	ENDS
; Function compile flags: /Odtp /RTCu /ZI
; File c:\program files (x86)\microsoft visual studio 14.0\vc\include\random
;	COMDAT ?_Init@param_type@?$uniform_real@N@std@@QEAAXNN@Z
_TEXT	SEGMENT
this$ = 80
_Min0$ = 88
_Max0$ = 96
?_Init@param_type@?$uniform_real@N@std@@QEAAXNN@Z PROC	; std::uniform_real<double>::param_type::_Init, COMDAT

; 3467 : 			{	// set internal state

$LN6:
	vmovsd	QWORD PTR [rsp+24], xmm2
	vmovsd	QWORD PTR [rsp+16], xmm1
	mov	QWORD PTR [rsp+8], rcx
	push	rbp
	sub	rsp, 96					; 00000060H
	lea	rbp, QWORD PTR [rsp+32]

; 3468 : 			_RNG_ASSERT(_Min0 <= _Max0 && (0 <= _Min0

	vmovsd	xmm0, QWORD PTR _Max0$[rbp]
	vcomisd	xmm0, QWORD PTR _Min0$[rbp]
	jb	SHORT $LN4@Init
	vmovsd	xmm0, QWORD PTR _Min0$[rbp]
	vcomisd	xmm0, QWORD PTR __real@0000000000000000
	jae	SHORT $LN3@Init
	call	?max@?$numeric_limits@N@std@@SANXZ	; std::numeric_limits<double>::max
	vmovsd	xmm1, QWORD PTR _Min0$[rbp]
	vaddsd	xmm0, xmm1, xmm0
	vcomisd	xmm0, QWORD PTR _Max0$[rbp]
	jb	SHORT $LN4@Init
$LN3@Init:
	jmp	SHORT $LN5@Init
$LN4@Init:
	lea	rcx, OFFSET FLAT:??_C@_0HM@GHBBOBBO@c?3?2program?5files?5?$CIx86?$CJ?2microsoft@
	call	QWORD PTR __imp_?_Rng_abort@std@@YAXPEBD@Z
$LN5@Init:

; 3469 : 				|| _Max0 <= _Min0 + (numeric_limits<_Ty>::max)()),
; 3470 : 				"invalid min and max arguments for uniform_real");
; 3471 : 			_Min = _Min0;

	mov	rax, QWORD PTR this$[rbp]
	vmovsd	xmm0, QWORD PTR _Min0$[rbp]
	vmovsd	QWORD PTR [rax], xmm0

; 3472 : 			_Max = _Max0;

	mov	rax, QWORD PTR this$[rbp]
	vmovsd	xmm0, QWORD PTR _Max0$[rbp]
	vmovsd	QWORD PTR [rax+8], xmm0
$LN2@Init:

; 3473 : 			}

	lea	rsp, QWORD PTR [rbp+64]
	pop	rbp
	ret	0
?_Init@param_type@?$uniform_real@N@std@@QEAAXNN@Z ENDP	; std::uniform_real<double>::param_type::_Init
_TEXT	ENDS
; Function compile flags: /Odtp /RTCu /ZI
; File c:\program files (x86)\microsoft visual studio 14.0\vc\include\random
;	COMDAT ??0param_type@?$uniform_real@N@std@@QEAA@NN@Z
_TEXT	SEGMENT
this$ = 80
_Min0$ = 88
_Max0$ = 96
??0param_type@?$uniform_real@N@std@@QEAA@NN@Z PROC	; std::uniform_real<double>::param_type::param_type, COMDAT

; 3440 : 		explicit param_type(_Ty _Min0 = _Ty(0),

$LN3:
	vmovsd	QWORD PTR [rsp+24], xmm2
	vmovsd	QWORD PTR [rsp+16], xmm1
	mov	QWORD PTR [rsp+8], rcx
	push	rbp
	sub	rsp, 96					; 00000060H
	lea	rbp, QWORD PTR [rsp+32]

; 3441 : 			_Ty _Max0 = _Ty(1))
; 3442 : 			{	// construct from parameters
; 3443 : 			_Init(_Min0, _Max0);

	vmovsd	xmm2, QWORD PTR _Max0$[rbp]
	vmovsd	xmm1, QWORD PTR _Min0$[rbp]
	mov	rcx, QWORD PTR this$[rbp]
	call	?_Init@param_type@?$uniform_real@N@std@@QEAAXNN@Z ; std::uniform_real<double>::param_type::_Init

; 3444 : 			}

	mov	rax, QWORD PTR this$[rbp]
	lea	rsp, QWORD PTR [rbp+64]
	pop	rbp
	ret	0
??0param_type@?$uniform_real@N@std@@QEAA@NN@Z ENDP	; std::uniform_real<double>::param_type::param_type
_TEXT	ENDS
; Function compile flags: /Odtp /RTCu /ZI
; File c:\program files (x86)\microsoft visual studio 14.0\vc\include\random
;	COMDAT ??0?$uniform_real@N@std@@QEAA@NN@Z
_TEXT	SEGMENT
this$ = 80
_Min0$ = 88
_Max0$ = 96
??0?$uniform_real@N@std@@QEAA@NN@Z PROC			; std::uniform_real<double>::uniform_real<double>, COMDAT

; 3482 : 		{	// construct

$LN3:
	vmovsd	QWORD PTR [rsp+24], xmm2
	vmovsd	QWORD PTR [rsp+16], xmm1
	mov	QWORD PTR [rsp+8], rcx
	push	rbp
	sub	rsp, 96					; 00000060H
	lea	rbp, QWORD PTR [rsp+32]

; 3481 : 		: _Par(_Min0, _Max0)

	mov	rax, QWORD PTR this$[rbp]
	vmovsd	xmm2, QWORD PTR _Max0$[rbp]
	vmovsd	xmm1, QWORD PTR _Min0$[rbp]
	mov	rcx, rax
	call	??0param_type@?$uniform_real@N@std@@QEAA@NN@Z ; std::uniform_real<double>::param_type::param_type

; 3483 : 		}

	mov	rax, QWORD PTR this$[rbp]
	lea	rsp, QWORD PTR [rbp+64]
	pop	rbp
	ret	0
??0?$uniform_real@N@std@@QEAA@NN@Z ENDP			; std::uniform_real<double>::uniform_real<double>
_TEXT	ENDS
; Function compile flags: /Odtp /RTCu /ZI
; File c:\users\airp\source\repos\epi3\epi3\funcs.h
;	COMDAT ??__Emt@@YAXXZ
text$di	SEGMENT
??__Emt@@YAXXZ PROC					; `dynamic initializer for 'mt'', COMDAT

; 7    : static std::mt19937_64 mt;

	push	rbp
	sub	rsp, 96					; 00000060H
	lea	rbp, QWORD PTR [rsp+32]
	mov	edx, 5489				; 00001571H
	lea	rcx, OFFSET FLAT:?mt@@3V?$mersenne_twister_engine@_K$0EA@$0BDI@$0JM@$0BP@$0?EKPNJAKFFGJJOGBH@$0BN@$0FFFFFFFFFFFFFFFF@$0BB@$0HBNGHPPPONKGAAAA@$0CF@$0?IBBCAAAAAAAAA@$0CL@$0FIFBPECNEMJFHPCN@@std@@A
	call	??0?$mersenne_twister_engine@_K$0EA@$0BDI@$0JM@$0BP@$0?EKPNJAKFFGJJOGBH@$0BN@$0FFFFFFFFFFFFFFFF@$0BB@$0HBNGHPPPONKGAAAA@$0CF@$0?IBBCAAAAAAAAA@$0CL@$0FIFBPECNEMJFHPCN@@std@@QEAA@_K@Z ; std::mersenne_twister_engine<unsigned __int64,64,312,156,31,-5403634167711393303,29,6148914691236517205,17,8202884508482404352,37,-2270628950310912,43,6364136223846793005>::mersenne_twister_engine<unsigned __int64,64,312,156,31,-5403634167711393303,29,6148914691236517205,17,8202884508482404352,37,-2270628950310912,43,6364136223846793005>
	lea	rsp, QWORD PTR [rbp+64]
	pop	rbp
	ret	0
??__Emt@@YAXXZ ENDP					; `dynamic initializer for 'mt''
text$di	ENDS
; Function compile flags: /Odtp /RTCu /ZI
; File c:\program files (x86)\microsoft visual studio 14.0\vc\include\random
;	COMDAT ??0?$mersenne_twister_engine@_K$0EA@$0BDI@$0JM@$0BP@$0?EKPNJAKFFGJJOGBH@$0BN@$0FFFFFFFFFFFFFFFF@$0BB@$0HBNGHPPPONKGAAAA@$0CF@$0?IBBCAAAAAAAAA@$0CL@$0FIFBPECNEMJFHPCN@@std@@QEAA@_K@Z
_TEXT	SEGMENT
this$ = 80
_X0$ = 88
??0?$mersenne_twister_engine@_K$0EA@$0BDI@$0JM@$0BP@$0?EKPNJAKFFGJJOGBH@$0BN@$0FFFFFFFFFFFFFFFF@$0BB@$0HBNGHPPPONKGAAAA@$0CF@$0?IBBCAAAAAAAAA@$0CL@$0FIFBPECNEMJFHPCN@@std@@QEAA@_K@Z PROC ; std::mersenne_twister_engine<unsigned __int64,64,312,156,31,-5403634167711393303,29,6148914691236517205,17,8202884508482404352,37,-2270628950310912,43,6364136223846793005>::mersenne_twister_engine<unsigned __int64,64,312,156,31,-5403634167711393303,29,6148914691236517205,17,8202884508482404352,37,-2270628950310912,43,6364136223846793005>, COMDAT

; 1515 : 		{	// construct with default seed

$LN3:
	mov	QWORD PTR [rsp+16], rdx
	mov	QWORD PTR [rsp+8], rcx
	push	rbp
	sub	rsp, 96					; 00000060H
	lea	rbp, QWORD PTR [rsp+32]

; 1514 : 		: _Mybase(_X0, _Dx, _Fx)

	mov	r9, 6364136223846793005			; 5851f42d4c957f2dH
	mov	r8, 6148914691236517205			; 5555555555555555H
	mov	rdx, QWORD PTR _X0$[rbp]
	mov	rcx, QWORD PTR this$[rbp]
	call	??0?$mersenne_twister@_K$0EA@$0BDI@$0JM@$0BP@$0?EKPNJAKFFGJJOGBH@$0BN@$0BB@$0HBNGHPPPONKGAAAA@$0CF@$0?IBBCAAAAAAAAA@$0CL@@std@@QEAA@_K00@Z ; std::mersenne_twister<unsigned __int64,64,312,156,31,-5403634167711393303,29,17,8202884508482404352,37,-2270628950310912,43>::mersenne_twister<unsigned __int64,64,312,156,31,-5403634167711393303,29,17,8202884508482404352,37,-2270628950310912,43>

; 1516 : 		}

	mov	rax, QWORD PTR this$[rbp]
	lea	rsp, QWORD PTR [rbp+64]
	pop	rbp
	ret	0
??0?$mersenne_twister_engine@_K$0EA@$0BDI@$0JM@$0BP@$0?EKPNJAKFFGJJOGBH@$0BN@$0FFFFFFFFFFFFFFFF@$0BB@$0HBNGHPPPONKGAAAA@$0CF@$0?IBBCAAAAAAAAA@$0CL@$0FIFBPECNEMJFHPCN@@std@@QEAA@_K@Z ENDP ; std::mersenne_twister_engine<unsigned __int64,64,312,156,31,-5403634167711393303,29,6148914691236517205,17,8202884508482404352,37,-2270628950310912,43,6364136223846793005>::mersenne_twister_engine<unsigned __int64,64,312,156,31,-5403634167711393303,29,6148914691236517205,17,8202884508482404352,37,-2270628950310912,43,6364136223846793005>
_TEXT	ENDS
; Function compile flags: /Odtp /RTCu /ZI
; File c:\program files (x86)\microsoft visual studio 14.0\vc\include\random
;	COMDAT ?seed@?$mersenne_twister@_K$0EA@$0BDI@$0JM@$0BP@$0?EKPNJAKFFGJJOGBH@$0BN@$0BB@$0HBNGHPPPONKGAAAA@$0CF@$0?IBBCAAAAAAAAA@$0CL@@std@@QEAAX_K0@Z
_TEXT	SEGMENT
_Prev$ = 0
_Ix$1 = 8
tv85 = 80
this$ = 112
_X0$ = 120
_Fx$ = 128
?seed@?$mersenne_twister@_K$0EA@$0BDI@$0JM@$0BP@$0?EKPNJAKFFGJJOGBH@$0BN@$0BB@$0HBNGHPPPONKGAAAA@$0CF@$0?IBBCAAAAAAAAA@$0CL@@std@@QEAAX_K0@Z PROC ; std::mersenne_twister<unsigned __int64,64,312,156,31,-5403634167711393303,29,17,8202884508482404352,37,-2270628950310912,43>::seed, COMDAT

; 1308 : 		{	// set initial values from specified value

$LN6:
	mov	QWORD PTR [rsp+24], r8
	mov	QWORD PTR [rsp+16], rdx
	mov	QWORD PTR [rsp+8], rcx
	push	rbp
	sub	rsp, 96					; 00000060H
	mov	rbp, rsp

; 1309 : 		_Ty _Prev = this->_Ax[0] = _X0 & _WMSK;

	mov	eax, 8
	imul	rax, rax, 0
	mov	rcx, QWORD PTR this$[rbp]
	mov	rdx, QWORD PTR _X0$[rbp]
	mov	QWORD PTR [rcx+rax+8], rdx
	mov	rax, QWORD PTR _X0$[rbp]
	mov	QWORD PTR _Prev$[rbp], rax

; 1310 : 		for (int _Ix = 1; _Ix < _Nx; ++_Ix)

	mov	DWORD PTR _Ix$1[rbp], 1
	jmp	SHORT $LN4@seed
$LN2@seed:
	mov	eax, DWORD PTR _Ix$1[rbp]
	inc	eax
	mov	DWORD PTR _Ix$1[rbp], eax
$LN4@seed:
	cmp	DWORD PTR _Ix$1[rbp], 312		; 00000138H
	jge	SHORT $LN3@seed

; 1311 : 			_Prev = this->_Ax[_Ix] =

	movsxd	rax, DWORD PTR _Ix$1[rbp]
	mov	rcx, QWORD PTR _Prev$[rbp]
	shr	rcx, 62					; 0000003eH
	mov	rdx, QWORD PTR _Prev$[rbp]
	xor	rdx, rcx
	mov	rcx, rdx
	mov	rdx, QWORD PTR _Fx$[rbp]
	imul	rdx, rcx
	mov	rcx, rdx
	add	rax, rcx
	mov	QWORD PTR tv85[rbp], rax
	movsxd	rax, DWORD PTR _Ix$1[rbp]
	mov	rcx, QWORD PTR this$[rbp]
	mov	rdx, QWORD PTR tv85[rbp]
	mov	QWORD PTR [rcx+rax*8+8], rdx
	mov	rax, QWORD PTR tv85[rbp]
	mov	QWORD PTR _Prev$[rbp], rax
	jmp	SHORT $LN2@seed
$LN3@seed:

; 1312 : 				(_Ix + _Fx * (_Prev ^ (_Prev >> (_Wx - 2)))) & _WMSK;
; 1313 : 		this->_Idx = _Nx;

	mov	rax, QWORD PTR this$[rbp]
	mov	DWORD PTR [rax], 312			; 00000138H

; 1314 : 		}

	lea	rsp, QWORD PTR [rbp+96]
	pop	rbp
	ret	0
?seed@?$mersenne_twister@_K$0EA@$0BDI@$0JM@$0BP@$0?EKPNJAKFFGJJOGBH@$0BN@$0BB@$0HBNGHPPPONKGAAAA@$0CF@$0?IBBCAAAAAAAAA@$0CL@@std@@QEAAX_K0@Z ENDP ; std::mersenne_twister<unsigned __int64,64,312,156,31,-5403634167711393303,29,17,8202884508482404352,37,-2270628950310912,43>::seed
_TEXT	ENDS
; Function compile flags: /Odtp /RTCu /ZI
; File c:\program files (x86)\microsoft visual studio 14.0\vc\include\random
;	COMDAT ??0?$mersenne_twister@_K$0EA@$0BDI@$0JM@$0BP@$0?EKPNJAKFFGJJOGBH@$0BN@$0BB@$0HBNGHPPPONKGAAAA@$0CF@$0?IBBCAAAAAAAAA@$0CL@@std@@QEAA@_K00@Z
_TEXT	SEGMENT
this$ = 80
_X0$ = 88
_Dxarg$ = 96
_Fxarg$ = 104
??0?$mersenne_twister@_K$0EA@$0BDI@$0JM@$0BP@$0?EKPNJAKFFGJJOGBH@$0BN@$0BB@$0HBNGHPPPONKGAAAA@$0CF@$0?IBBCAAAAAAAAA@$0CL@@std@@QEAA@_K00@Z PROC ; std::mersenne_twister<unsigned __int64,64,312,156,31,-5403634167711393303,29,17,8202884508482404352,37,-2270628950310912,43>::mersenne_twister<unsigned __int64,64,312,156,31,-5403634167711393303,29,17,8202884508482404352,37,-2270628950310912,43>, COMDAT

; 1294 : 		{	// construct with specified seed

$LN3:
	mov	QWORD PTR [rsp+32], r9
	mov	QWORD PTR [rsp+24], r8
	mov	QWORD PTR [rsp+16], rdx
	mov	QWORD PTR [rsp+8], rcx
	push	rbp
	sub	rsp, 96					; 00000060H
	lea	rbp, QWORD PTR [rsp+32]

; 1293 : 		: _Dxval(_Dxarg)

	mov	rax, QWORD PTR this$[rbp]
	mov	rcx, QWORD PTR _Dxarg$[rbp]
	mov	QWORD PTR [rax+5000], rcx

; 1295 : 		seed(_X0, _Fxarg);

	mov	r8, QWORD PTR _Fxarg$[rbp]
	mov	rdx, QWORD PTR _X0$[rbp]
	mov	rcx, QWORD PTR this$[rbp]
	call	?seed@?$mersenne_twister@_K$0EA@$0BDI@$0JM@$0BP@$0?EKPNJAKFFGJJOGBH@$0BN@$0BB@$0HBNGHPPPONKGAAAA@$0CF@$0?IBBCAAAAAAAAA@$0CL@@std@@QEAAX_K0@Z ; std::mersenne_twister<unsigned __int64,64,312,156,31,-5403634167711393303,29,17,8202884508482404352,37,-2270628950310912,43>::seed

; 1296 : 		}

	mov	rax, QWORD PTR this$[rbp]
	lea	rsp, QWORD PTR [rbp+64]
	pop	rbp
	ret	0
??0?$mersenne_twister@_K$0EA@$0BDI@$0JM@$0BP@$0?EKPNJAKFFGJJOGBH@$0BN@$0BB@$0HBNGHPPPONKGAAAA@$0CF@$0?IBBCAAAAAAAAA@$0CL@@std@@QEAA@_K00@Z ENDP ; std::mersenne_twister<unsigned __int64,64,312,156,31,-5403634167711393303,29,17,8202884508482404352,37,-2270628950310912,43>::mersenne_twister<unsigned __int64,64,312,156,31,-5403634167711393303,29,17,8202884508482404352,37,-2270628950310912,43>
_TEXT	ENDS
; Function compile flags: /Odtp /RTCu /ZI
; File c:\users\airp\source\repos\epi3\epi3\const.h
;	COMDAT ??__EANZ@@YAXXZ
text$di	SEGMENT
??__EANZ@@YAXXZ PROC					; `dynamic initializer for 'ANZ'', COMDAT

; 109  : static constexpr int ANZ = (int)((double)LZ / AREA_GRID_ORIGINAL);

	push	rbp
	sub	rsp, 64					; 00000040H
	mov	rbp, rsp
	vmovsd	xmm0, QWORD PTR __real@4059000000000000
	vdivsd	xmm0, xmm0, QWORD PTR __real@4000000000000000
	vcvttsd2si eax, xmm0
	mov	DWORD PTR ?ANZ@@3HB, eax
	lea	rsp, QWORD PTR [rbp+64]
	pop	rbp
	ret	0
??__EANZ@@YAXXZ ENDP					; `dynamic initializer for 'ANZ''
text$di	ENDS
; Function compile flags: /Odtp /RTCu /ZI
; File c:\users\airp\source\repos\epi3\epi3\const.h
;	COMDAT ??__EANY@@YAXXZ
text$di	SEGMENT
??__EANY@@YAXXZ PROC					; `dynamic initializer for 'ANY'', COMDAT

; 108  : static constexpr int ANY = (int)((double)LY / AREA_GRID_ORIGINAL + 0.5);

	push	rbp
	sub	rsp, 64					; 00000040H
	mov	rbp, rsp
	vmovsd	xmm0, QWORD PTR __real@4049000000000000
	vdivsd	xmm0, xmm0, QWORD PTR __real@4000000000000000
	vaddsd	xmm0, xmm0, QWORD PTR __real@3fe0000000000000
	vcvttsd2si eax, xmm0
	mov	DWORD PTR ?ANY@@3HB, eax
	lea	rsp, QWORD PTR [rbp+64]
	pop	rbp
	ret	0
??__EANY@@YAXXZ ENDP					; `dynamic initializer for 'ANY''
text$di	ENDS
; Function compile flags: /Odtp /RTCu /ZI
; File c:\users\airp\source\repos\epi3\epi3\const.h
;	COMDAT ??__EANX@@YAXXZ
text$di	SEGMENT
??__EANX@@YAXXZ PROC					; `dynamic initializer for 'ANX'', COMDAT

; 107  : static constexpr int ANX = (int)((double)LX / AREA_GRID_ORIGINAL + 0.5);

	push	rbp
	sub	rsp, 64					; 00000040H
	mov	rbp, rsp
	vmovsd	xmm0, QWORD PTR __real@4049000000000000
	vdivsd	xmm0, xmm0, QWORD PTR __real@4000000000000000
	vaddsd	xmm0, xmm0, QWORD PTR __real@3fe0000000000000
	vcvttsd2si eax, xmm0
	mov	DWORD PTR ?ANX@@3HB, eax
	lea	rsp, QWORD PTR [rbp+64]
	pop	rbp
	ret	0
??__EANX@@YAXXZ ENDP					; `dynamic initializer for 'ANX''
text$di	ENDS
; Function compile flags: /Odtp /RTCu /ZI
; File c:\program files (x86)\microsoft visual studio 14.0\vc\include\memory
;	COMDAT ?_Decwref@_Ref_count_base@std@@QEAAXXZ
_TEXT	SEGMENT
this$ = 80
?_Decwref@_Ref_count_base@std@@QEAAXXZ PROC		; std::_Ref_count_base::_Decwref, COMDAT

; 118  : 		{	// decrement weak reference count

$LN4:
	mov	QWORD PTR [rsp+8], rcx
	push	rbp
	sub	rsp, 96					; 00000060H
	lea	rbp, QWORD PTR [rsp+32]

; 119  : 		if (_MT_DECR(_Mtx, _Weaks) == 0)

	mov	rax, QWORD PTR this$[rbp]
	add	rax, 12
	mov	ecx, -1
	lock xadd DWORD PTR [rax], ecx
	dec	ecx
	mov	eax, ecx
	test	eax, eax
	jne	SHORT $LN2@Decwref

; 120  : 			_Delete_this();

	mov	rax, QWORD PTR this$[rbp]
	mov	rax, QWORD PTR [rax]
	mov	rcx, QWORD PTR this$[rbp]
	call	QWORD PTR [rax+8]
$LN2@Decwref:

; 121  : 		}

	lea	rsp, QWORD PTR [rbp+64]
	pop	rbp
	ret	0
?_Decwref@_Ref_count_base@std@@QEAAXXZ ENDP		; std::_Ref_count_base::_Decwref
_TEXT	ENDS
; Function compile flags: /Odtp /RTCu /ZI
; File c:\program files (x86)\microsoft visual studio 14.0\vc\include\memory
;	COMDAT ?_Decref@_Ref_count_base@std@@QEAAXXZ
_TEXT	SEGMENT
this$ = 80
?_Decref@_Ref_count_base@std@@QEAAXXZ PROC		; std::_Ref_count_base::_Decref, COMDAT

; 109  : 		{	// decrement use count

$LN4:
	mov	QWORD PTR [rsp+8], rcx
	push	rbp
	sub	rsp, 96					; 00000060H
	lea	rbp, QWORD PTR [rsp+32]

; 110  : 		if (_MT_DECR(_Mtx, _Uses) == 0)

	mov	rax, QWORD PTR this$[rbp]
	add	rax, 8
	mov	ecx, -1
	lock xadd DWORD PTR [rax], ecx
	dec	ecx
	mov	eax, ecx
	test	eax, eax
	jne	SHORT $LN2@Decref

; 111  : 			{	// destroy managed resource, decrement weak reference count
; 112  : 			_Destroy();

	mov	rax, QWORD PTR this$[rbp]
	mov	rax, QWORD PTR [rax]
	mov	rcx, QWORD PTR this$[rbp]
	call	QWORD PTR [rax]

; 113  : 			_Decwref();

	mov	rcx, QWORD PTR this$[rbp]
	call	?_Decwref@_Ref_count_base@std@@QEAAXXZ	; std::_Ref_count_base::_Decwref
$LN2@Decref:

; 114  : 			}
; 115  : 		}

	lea	rsp, QWORD PTR [rbp+64]
	pop	rbp
	ret	0
?_Decref@_Ref_count_base@std@@QEAAXXZ ENDP		; std::_Ref_count_base::_Decref
_TEXT	ENDS
; Function compile flags: /Odtp /RTCu /ZI
; File c:\program files (x86)\microsoft visual studio 14.0\vc\include\memory
;	COMDAT ?_Incref@_Ref_count_base@std@@QEAAXXZ
_TEXT	SEGMENT
this$ = 80
?_Incref@_Ref_count_base@std@@QEAAXXZ PROC		; std::_Ref_count_base::_Incref, COMDAT

; 99   : 		{	// increment use count

$LN3:
	mov	QWORD PTR [rsp+8], rcx
	push	rbp
	sub	rsp, 64					; 00000040H
	mov	rbp, rsp

; 100  : 		_MT_INCR(_Mtx, _Uses);

	mov	rax, QWORD PTR this$[rbp]
	add	rax, 8
	lock inc DWORD PTR [rax]

; 101  : 		}

	lea	rsp, QWORD PTR [rbp+64]
	pop	rbp
	ret	0
?_Incref@_Ref_count_base@std@@QEAAXXZ ENDP		; std::_Ref_count_base::_Incref
_TEXT	ENDS
; Function compile flags: /Odtp /RTCu /ZI
; File c:\program files (x86)\microsoft visual studio 14.0\vc\include\xutility
;	COMDAT ?_Orphan_me@_Iterator_base12@std@@QEAAXXZ
_TEXT	SEGMENT
_Pnext$1 = 0
this$ = 96
?_Orphan_me@_Iterator_base12@std@@QEAAXXZ PROC		; std::_Iterator_base12::_Orphan_me, COMDAT

; 192  : 		{	// cut ties with parent

$LN7:
	mov	QWORD PTR [rsp+8], rcx
	push	rbp
	sub	rsp, 112				; 00000070H
	lea	rbp, QWORD PTR [rsp+32]

; 193  :  #if _ITERATOR_DEBUG_LEVEL == 2
; 194  : 		if (_Myproxy != 0)

	mov	rax, QWORD PTR this$[rbp]
	cmp	QWORD PTR [rax], 0
	je	SHORT $LN4@Orphan_me

; 195  : 			{	// adopted, remove self from list
; 196  : 			_Iterator_base12 **_Pnext = &_Myproxy->_Myfirstiter;

	mov	rax, QWORD PTR this$[rbp]
	mov	rax, QWORD PTR [rax]
	add	rax, 8
	mov	QWORD PTR _Pnext$1[rbp], rax
$LN2@Orphan_me:

; 197  : 			while (*_Pnext != 0 && *_Pnext != this)

	mov	rax, QWORD PTR _Pnext$1[rbp]
	cmp	QWORD PTR [rax], 0
	je	SHORT $LN3@Orphan_me
	mov	rax, QWORD PTR _Pnext$1[rbp]
	mov	rcx, QWORD PTR this$[rbp]
	cmp	QWORD PTR [rax], rcx
	je	SHORT $LN3@Orphan_me

; 198  : 				_Pnext = &(*_Pnext)->_Mynextiter;

	mov	rax, QWORD PTR _Pnext$1[rbp]
	mov	rax, QWORD PTR [rax]
	add	rax, 8
	mov	QWORD PTR _Pnext$1[rbp], rax
	jmp	SHORT $LN2@Orphan_me
$LN3@Orphan_me:

; 199  : 
; 200  : 			if (*_Pnext == 0)

	mov	rax, QWORD PTR _Pnext$1[rbp]
	cmp	QWORD PTR [rax], 0
	jne	SHORT $LN5@Orphan_me

; 201  : 				_DEBUG_ERROR("ITERATOR LIST CORRUPTED!");

	mov	r8d, 201				; 000000c9H
	lea	rdx, OFFSET FLAT:??_C@_1JA@MHADJNIL@?$AAc?$AA?3?$AA?2?$AAp?$AAr?$AAo?$AAg?$AAr?$AAa?$AAm?$AA?5?$AAf?$AAi?$AAl?$AAe?$AAs?$AA?5?$AA?$CI?$AAx?$AA8?$AA6?$AA?$CJ?$AA?2?$AAm?$AAi?$AAc?$AAr?$AAo?$AAs?$AAo?$AAf?$AAt@
	lea	rcx, OFFSET FLAT:??_C@_1DC@POOIKBAO@?$AAI?$AAT?$AAE?$AAR?$AAA?$AAT?$AAO?$AAR?$AA?5?$AAL?$AAI?$AAS?$AAT?$AA?5?$AAC?$AAO?$AAR?$AAR?$AAU?$AAP?$AAT?$AAE?$AAD?$AA?$CB?$AA?$AA@
	call	QWORD PTR __imp_?_Debug_message@std@@YAXPEB_W0I@Z
$LN5@Orphan_me:

; 202  : 			*_Pnext = _Mynextiter;

	mov	rax, QWORD PTR _Pnext$1[rbp]
	mov	rcx, QWORD PTR this$[rbp]
	mov	rcx, QWORD PTR [rcx+8]
	mov	QWORD PTR [rax], rcx

; 203  : 			_Myproxy = 0;

	mov	rax, QWORD PTR this$[rbp]
	mov	QWORD PTR [rax], 0
$LN4@Orphan_me:

; 204  : 			}
; 205  :  #endif /* _ITERATOR_DEBUG_LEVEL == 2 */
; 206  : 		}

	lea	rsp, QWORD PTR [rbp+80]
	pop	rbp
	ret	0
?_Orphan_me@_Iterator_base12@std@@QEAAXXZ ENDP		; std::_Iterator_base12::_Orphan_me
_TEXT	ENDS
; Function compile flags: /Odtp /RTCu /ZI
; File c:\program files (x86)\microsoft visual studio 14.0\vc\include\xutility
;	COMDAT ?_Getcont@_Iterator_base12@std@@QEBAPEBU_Container_base12@2@XZ
_TEXT	SEGMENT
tv68 = 64
this$ = 96
?_Getcont@_Iterator_base12@std@@QEBAPEBU_Container_base12@2@XZ PROC ; std::_Iterator_base12::_Getcont, COMDAT

; 182  : 		{	// get owning container

$LN5:
	mov	QWORD PTR [rsp+8], rcx
	push	rbp
	sub	rsp, 80					; 00000050H
	mov	rbp, rsp

; 183  : 		return (_Myproxy == 0 ? 0 : _Myproxy->_Mycont);

	mov	rax, QWORD PTR this$[rbp]
	cmp	QWORD PTR [rax], 0
	jne	SHORT $LN3@Getcont
	mov	QWORD PTR tv68[rbp], 0
	jmp	SHORT $LN4@Getcont
$LN3@Getcont:
	mov	rax, QWORD PTR this$[rbp]
	mov	rax, QWORD PTR [rax]
	mov	rax, QWORD PTR [rax]
	mov	QWORD PTR tv68[rbp], rax
$LN4@Getcont:
	mov	rax, QWORD PTR tv68[rbp]

; 184  : 		}

