; Listing generated by Microsoft (R) Optimizing Compiler Version 19.00.23506.0 

include listing.inc

INCLUDELIB MSVCRTD
INCLUDELIB OLDNAMES

_BSS	SEGMENT
?BASAL@@3HA DD	01H DUP (?)				; BASAL
_BSS	ENDS
_DATA	SEGMENT
?SYSTEM@@3HA DD	01H					; SYSTEM
?WHOLE@@3HA DD	01H					; WHOLE
_DATA	ENDS
PUBLIC	?static_error_check@@YAXXZ			; static_error_check
PUBLIC	__real@3fe0000000000000
PUBLIC	__real@4000000000000000
PUBLIC	__real@4033ffffffffffff
PUBLIC	__real@4049000000000000
PUBLIC	__real@4059000000000000
PUBLIC	__real@40770da3ac10c971
EXTRN	_RTC_InitBase:PROC
EXTRN	_RTC_Shutdown:PROC
EXTRN	_fltused:DWORD
_BSS	SEGMENT
?ANX@@3HB DD	01H DUP (?)				; ANX
?ANY@@3HB DD	01H DUP (?)				; ANY
?ANZ@@3HB DD	01H DUP (?)				; ANZ
_BSS	ENDS
;	COMDAT pdata
pdata	SEGMENT
$pdata$??__EANX@@YAXXZ DD imagerel ??__EANX@@YAXXZ
	DD	imagerel ??__EANX@@YAXXZ+49
	DD	imagerel $unwind$??__EANX@@YAXXZ
pdata	ENDS
;	COMDAT pdata
pdata	SEGMENT
$pdata$??__EANY@@YAXXZ DD imagerel ??__EANY@@YAXXZ
	DD	imagerel ??__EANY@@YAXXZ+49
	DD	imagerel $unwind$??__EANY@@YAXXZ
pdata	ENDS
;	COMDAT pdata
pdata	SEGMENT
$pdata$??__EANZ@@YAXXZ DD imagerel ??__EANZ@@YAXXZ
	DD	imagerel ??__EANZ@@YAXXZ+41
	DD	imagerel $unwind$??__EANZ@@YAXXZ
pdata	ENDS
;	COMDAT pdata
pdata	SEGMENT
$pdata$?static_error_check@@YAXXZ DD imagerel $LN3
	DD	imagerel $LN3+41
	DD	imagerel $unwind$?static_error_check@@YAXXZ
pdata	ENDS
CRT$XCU	SEGMENT
?ANX$initializer$@@3P6AXXZEA DQ FLAT:??__EANX@@YAXXZ	; ANX$initializer$
CRT$XCU	ENDS
;	COMDAT __real@40770da3ac10c971
CONST	SEGMENT
__real@40770da3ac10c971 DQ 040770da3ac10c971r	; 368.852
CONST	ENDS
;	COMDAT __real@4059000000000000
CONST	SEGMENT
__real@4059000000000000 DQ 04059000000000000r	; 100
CONST	ENDS
;	COMDAT __real@4049000000000000
CONST	SEGMENT
__real@4049000000000000 DQ 04049000000000000r	; 50
CONST	ENDS
;	COMDAT __real@4033ffffffffffff
CONST	SEGMENT
__real@4033ffffffffffff DQ 04033ffffffffffffr	; 20
CONST	ENDS
;	COMDAT __real@4000000000000000
CONST	SEGMENT
__real@4000000000000000 DQ 04000000000000000r	; 2
CONST	ENDS
;	COMDAT __real@3fe0000000000000
CONST	SEGMENT
__real@3fe0000000000000 DQ 03fe0000000000000r	; 0.5
CONST	ENDS
;	COMDAT rtc$TMZ
rtc$TMZ	SEGMENT
_RTC_Shutdown.rtc$TMZ DQ FLAT:_RTC_Shutdown
rtc$TMZ	ENDS
;	COMDAT rtc$IMZ
rtc$IMZ	SEGMENT
_RTC_InitBase.rtc$IMZ DQ FLAT:_RTC_InitBase
rtc$IMZ	ENDS
;	COMDAT xdata
xdata	SEGMENT
$unwind$?static_error_check@@YAXXZ DD 05030901H
	DD	092060309H
	DD	05002H
xdata	ENDS
;	COMDAT xdata
xdata	SEGMENT
$unwind$??__EANZ@@YAXXZ DD 05030901H
	DD	072060309H
	DD	05002H
xdata	ENDS
;	COMDAT xdata
xdata	SEGMENT
$unwind$??__EANY@@YAXXZ DD 05030901H
	DD	072060309H
	DD	05002H
xdata	ENDS
;	COMDAT xdata
xdata	SEGMENT
$unwind$??__EANX@@YAXXZ DD 05030901H
	DD	072060309H
	DD	05002H
xdata	ENDS
CRT$XCU	SEGMENT
?ANY$initializer$@@3P6AXXZEA DQ FLAT:??__EANY@@YAXXZ	; ANY$initializer$
CRT$XCU	ENDS
CRT$XCU	SEGMENT
?ANZ$initializer$@@3P6AXXZEA DQ FLAT:??__EANZ@@YAXXZ	; ANZ$initializer$
CRT$XCU	ENDS
; Function compile flags: /Odtp /RTCu /ZI
; File c:\users\airp\source\repos\epi\epi3\epi3\const.cpp
;	COMDAT ?static_error_check@@YAXXZ
_TEXT	SEGMENT
tdiv$ = 0
tseparate$ = 8
?static_error_check@@YAXXZ PROC				; static_error_check, COMDAT

; 5    : void static_error_check() {

$LN3:
	push	rbp
	sub	rsp, 80					; 00000050H
	mov	rbp, rsp

; 6    : 	static_assert(constabs(dx - dh) <= EPS && constabs(dy - dh) <= EPS && constabs(dz - dh) <= EPS,
; 7    : 		"error:grid size must be near dh * dh * dh\n");
; 8    : 
; 9    : 	constexpr double tdiv = agki_max * (1.0 - stoch_div_time_ratio) / (eps_kb * u0);

	vmovsd	xmm0, QWORD PTR __real@40770da3ac10c971
	vmovsd	QWORD PTR tdiv$[rbp], xmm0

; 10   : 	constexpr double tseparate = 2 * R_max / eps_L;

	vmovsd	xmm0, QWORD PTR __real@4033ffffffffffff
	vmovsd	QWORD PTR tseparate$[rbp], xmm0

; 11   : 	static_assert(tdiv >= tseparate, "error: division period must be greater than the time for the completion of cell division\n");
; 12   : }

	lea	rsp, QWORD PTR [rbp+80]
	pop	rbp
	ret	0
?static_error_check@@YAXXZ ENDP				; static_error_check
_TEXT	ENDS
; Function compile flags: /Odtp /RTCu /ZI
; File c:\users\airp\source\repos\epi\epi3\epi3\const.h
;	COMDAT ??__EANZ@@YAXXZ
text$di	SEGMENT
??__EANZ@@YAXXZ PROC					; `dynamic initializer for 'ANZ'', COMDAT

; 109  : static constexpr int ANZ = (int)((double)LZ / AREA_GRID_ORIGINAL);

	push	rbp
	sub	rsp, 64					; 00000040H
	mov	rbp, rsp
	vmovsd	xmm0, QWORD PTR __real@4059000000000000
	vdivsd	xmm0, xmm0, QWORD PTR __real@4000000000000000
	vcvttsd2si eax, xmm0
	mov	DWORD PTR ?ANZ@@3HB, eax
	lea	rsp, QWORD PTR [rbp+64]
	pop	rbp
	ret	0
??__EANZ@@YAXXZ ENDP					; `dynamic initializer for 'ANZ''
text$di	ENDS
; Function compile flags: /Odtp /RTCu /ZI
; File c:\users\airp\source\repos\epi\epi3\epi3\const.h
;	COMDAT ??__EANY@@YAXXZ
text$di	SEGMENT
??__EANY@@YAXXZ PROC					; `dynamic initializer for 'ANY'', COMDAT

; 108  : static constexpr int ANY = (int)((double)LY / AREA_GRID_ORIGINAL + 0.5);

	push	rbp
	sub	rsp, 64					; 00000040H
	mov	rbp, rsp
	vmovsd	xmm0, QWORD PTR __real@4049000000000000
	vdivsd	xmm0, xmm0, QWORD PTR __real@4000000000000000
	vaddsd	xmm0, xmm0, QWORD PTR __real@3fe0000000000000
	vcvttsd2si eax, xmm0
	mov	DWORD PTR ?ANY@@3HB, eax
	lea	rsp, QWORD PTR [rbp+64]
	pop	rbp
	ret	0
??__EANY@@YAXXZ ENDP					; `dynamic initializer for 'ANY''
text$di	ENDS
; Function compile flags: /Odtp /RTCu /ZI
; File c:\users\airp\source\repos\epi\epi3\epi3\const.h
;	COMDAT ??__EANX@@YAXXZ
text$di	SEGMENT
??__EANX@@YAXXZ PROC					; `dynamic initializer for 'ANX'', COMDAT

; 107  : static constexpr int ANX = (int)((double)LX / AREA_GRID_ORIGINAL + 0.5);

	push	rbp
	sub	rsp, 64					; 00000040H
	mov	rbp, rsp
	vmovsd	xmm0, QWORD PTR __real@4049000000000000
	vdivsd	xmm0, xmm0, QWORD PTR __real@4000000000000000
	vaddsd	xmm0, xmm0, QWORD PTR __real@3fe0000000000000
	vcvttsd2si eax, xmm0
	mov	DWORD PTR ?ANX@@3HB, eax
	lea	rsp, QWORD PTR [rbp+64]
	pop	rbp
	ret	0
??__EANX@@YAXXZ ENDP					; `dynamic initializer for 'ANX''
text$di	ENDS
END
