; Listing generated by Microsoft (R) Optimizing Compiler Version 19.00.23506.0 

include listing.inc

INCLUDELIB MSVCRTD
INCLUDELIB OLDNAMES

_BSS	SEGMENT
?BASAL@@3HA DD	01H DUP (?)				; BASAL
?rng_initalized@@3_NA DB 01H DUP (?)			; rng_initalized
_BSS	ENDS
_DATA	SEGMENT
?SYSTEM@@3HA DD	01H					; SYSTEM
?WHOLE@@3HA DD	01H					; WHOLE
_DATA	ENDS
PUBLIC	?__empty_global_delete@@YAXPEAX@Z		; __empty_global_delete
PUBLIC	?__empty_global_delete@@YAXPEAX_K@Z		; __empty_global_delete
PUBLIC	?max@?$numeric_limits@N@std@@SANXZ		; std::numeric_limits<double>::max
PUBLIC	??2@YAPEAX_KPEAX@Z				; operator new
PUBLIC	?length@?$char_traits@D@std@@SA_KPEBD@Z		; std::char_traits<char>::length
PUBLIC	?copy@?$char_traits@D@std@@SAPEADPEADPEBD_K@Z	; std::char_traits<char>::copy
PUBLIC	?move@?$char_traits@D@std@@SAPEADPEADPEBD_K@Z	; std::char_traits<char>::move
PUBLIC	?assign@?$char_traits@D@std@@SAXAEADAEBD@Z	; std::char_traits<char>::assign
PUBLIC	??0_Container_proxy@std@@QEAA@XZ		; std::_Container_proxy::_Container_proxy
PUBLIC	??0_Container_base12@std@@QEAA@XZ		; std::_Container_base12::_Container_base12
PUBLIC	??1_Container_base12@std@@QEAA@XZ		; std::_Container_base12::~_Container_base12
PUBLIC	?_Getpfirst@_Container_base12@std@@QEBAPEAPEAU_Iterator_base12@2@XZ ; std::_Container_base12::_Getpfirst
PUBLIC	?_Orphan_all@_Container_base12@std@@QEAAXXZ	; std::_Container_base12::_Orphan_all
PUBLIC	??0_Iterator_base12@std@@QEAA@XZ		; std::_Iterator_base12::_Iterator_base12
PUBLIC	??0_Iterator_base12@std@@QEAA@AEBU01@@Z		; std::_Iterator_base12::_Iterator_base12
PUBLIC	??4_Iterator_base12@std@@QEAAAEAU01@AEBU01@@Z	; std::_Iterator_base12::operator=
PUBLIC	??1_Iterator_base12@std@@QEAA@XZ		; std::_Iterator_base12::~_Iterator_base12
PUBLIC	?_Adopt@_Iterator_base12@std@@QEAAXPEBU_Container_base12@2@@Z ; std::_Iterator_base12::_Adopt
PUBLIC	?_Clrcont@_Iterator_base12@std@@QEAAXXZ		; std::_Iterator_base12::_Clrcont
PUBLIC	?_Getpnext@_Iterator_base12@std@@QEAAPEAPEAU12@XZ ; std::_Iterator_base12::_Getpnext
PUBLIC	?_Orphan_me@_Iterator_base12@std@@QEAAXXZ	; std::_Iterator_base12::_Orphan_me
PUBLIC	?_Allocate@std@@YAPEAX_K0_N@Z			; std::_Allocate
PUBLIC	?_Deallocate@std@@YAXPEAX_K1@Z			; std::_Deallocate
PUBLIC	??0?$allocator@D@std@@QEAA@XZ			; std::allocator<char>::allocator<char>
PUBLIC	??0?$allocator@D@std@@QEAA@AEBV01@@Z		; std::allocator<char>::allocator<char>
PUBLIC	?deallocate@?$allocator@D@std@@QEAAXPEAD_K@Z	; std::allocator<char>::deallocate
PUBLIC	?allocate@?$allocator@D@std@@QEAAPEAD_K@Z	; std::allocator<char>::allocate
PUBLIC	?max_size@?$allocator@D@std@@QEBA_KXZ		; std::allocator<char>::max_size
PUBLIC	?max_size@?$allocator_traits@V?$allocator@D@std@@@std@@SA_KAEBV?$allocator@D@2@@Z ; std::allocator_traits<std::allocator<char> >::max_size
PUBLIC	??0?$_Wrap_alloc@V?$allocator@D@std@@@std@@QEAA@AEBV?$allocator@D@1@@Z ; std::_Wrap_alloc<std::allocator<char> >::_Wrap_alloc<std::allocator<char> >
PUBLIC	?allocate@?$_Wrap_alloc@V?$allocator@D@std@@@std@@QEAAPEAD_K@Z ; std::_Wrap_alloc<std::allocator<char> >::allocate
PUBLIC	?deallocate@?$_Wrap_alloc@V?$allocator@D@std@@@std@@QEAAXPEAD_K@Z ; std::_Wrap_alloc<std::allocator<char> >::deallocate
PUBLIC	?max_size@?$_Wrap_alloc@V?$allocator@D@std@@@std@@QEBA_KU_Nil@2@@Z ; std::_Wrap_alloc<std::allocator<char> >::max_size
PUBLIC	??0?$_String_val@U?$_Simple_types@D@std@@@std@@QEAA@XZ ; std::_String_val<std::_Simple_types<char> >::_String_val<std::_Simple_types<char> >
PUBLIC	?_Myptr@?$_String_val@U?$_Simple_types@D@std@@@std@@QEAAPEADXZ ; std::_String_val<std::_Simple_types<char> >::_Myptr
PUBLIC	?_Myptr@?$_String_val@U?$_Simple_types@D@std@@@std@@QEBAPEBDXZ ; std::_String_val<std::_Simple_types<char> >::_Myptr
PUBLIC	??1?$_String_val@U?$_Simple_types@D@std@@@std@@QEAA@XZ ; std::_String_val<std::_Simple_types<char> >::~_String_val<std::_Simple_types<char> >
PUBLIC	?_Myptr@?$_String_alloc@U?$_String_base_types@DV?$allocator@D@std@@@std@@@std@@QEAAPEADXZ ; std::_String_alloc<std::_String_base_types<char,std::allocator<char> > >::_Myptr
PUBLIC	?_Myptr@?$_String_alloc@U?$_String_base_types@DV?$allocator@D@std@@@std@@@std@@QEBAPEBDXZ ; std::_String_alloc<std::_String_base_types<char,std::allocator<char> > >::_Myptr
PUBLIC	??0?$_String_alloc@U?$_String_base_types@DV?$allocator@D@std@@@std@@@std@@QEAA@AEBV?$allocator@D@1@@Z ; std::_String_alloc<std::_String_base_types<char,std::allocator<char> > >::_String_alloc<std::_String_base_types<char,std::allocator<char> > >
PUBLIC	??1?$_String_alloc@U?$_String_base_types@DV?$allocator@D@std@@@std@@@std@@QEAA@XZ ; std::_String_alloc<std::_String_base_types<char,std::allocator<char> > >::~_String_alloc<std::_String_base_types<char,std::allocator<char> > >
PUBLIC	?_Alloc_proxy@?$_String_alloc@U?$_String_base_types@DV?$allocator@D@std@@@std@@@std@@QEAAXXZ ; std::_String_alloc<std::_String_base_types<char,std::allocator<char> > >::_Alloc_proxy
PUBLIC	?_Free_proxy@?$_String_alloc@U?$_String_base_types@DV?$allocator@D@std@@@std@@@std@@QEAAXXZ ; std::_String_alloc<std::_String_base_types<char,std::allocator<char> > >::_Free_proxy
PUBLIC	?_Myproxy@?$_String_alloc@U?$_String_base_types@DV?$allocator@D@std@@@std@@@std@@QEAAAEAPEAU_Container_proxy@2@XZ ; std::_String_alloc<std::_String_base_types<char,std::allocator<char> > >::_Myproxy
PUBLIC	?_Orphan_all@?$_String_alloc@U?$_String_base_types@DV?$allocator@D@std@@@std@@@std@@QEAAXXZ ; std::_String_alloc<std::_String_base_types<char,std::allocator<char> > >::_Orphan_all
PUBLIC	?_Getal@?$_String_alloc@U?$_String_base_types@DV?$allocator@D@std@@@std@@@std@@QEAAAEAU?$_Wrap_alloc@V?$allocator@D@std@@@2@XZ ; std::_String_alloc<std::_String_base_types<char,std::allocator<char> > >::_Getal
PUBLIC	?_Getal@?$_String_alloc@U?$_String_base_types@DV?$allocator@D@std@@@std@@@std@@QEBAAEBU?$_Wrap_alloc@V?$allocator@D@std@@@2@XZ ; std::_String_alloc<std::_String_base_types<char,std::allocator<char> > >::_Getal
PUBLIC	?_Get_data@?$_String_alloc@U?$_String_base_types@DV?$allocator@D@std@@@std@@@std@@QEAAAEAV?$_String_val@U?$_Simple_types@D@std@@@2@XZ ; std::_String_alloc<std::_String_base_types<char,std::allocator<char> > >::_Get_data
PUBLIC	?_Get_data@?$_String_alloc@U?$_String_base_types@DV?$allocator@D@std@@@std@@@std@@QEBAAEBV?$_String_val@U?$_Simple_types@D@std@@@2@XZ ; std::_String_alloc<std::_String_base_types<char,std::allocator<char> > >::_Get_data
PUBLIC	?_Bx@?$_String_alloc@U?$_String_base_types@DV?$allocator@D@std@@@std@@@std@@QEAAAEAT_Bxty@?$_String_val@U?$_Simple_types@D@std@@@2@XZ ; std::_String_alloc<std::_String_base_types<char,std::allocator<char> > >::_Bx
PUBLIC	?_Mysize@?$_String_alloc@U?$_String_base_types@DV?$allocator@D@std@@@std@@@std@@QEAAAEA_KXZ ; std::_String_alloc<std::_String_base_types<char,std::allocator<char> > >::_Mysize
PUBLIC	?_Mysize@?$_String_alloc@U?$_String_base_types@DV?$allocator@D@std@@@std@@@std@@QEBAAEB_KXZ ; std::_String_alloc<std::_String_base_types<char,std::allocator<char> > >::_Mysize
PUBLIC	?_Myres@?$_String_alloc@U?$_String_base_types@DV?$allocator@D@std@@@std@@@std@@QEAAAEA_KXZ ; std::_String_alloc<std::_String_base_types<char,std::allocator<char> > >::_Myres
PUBLIC	?_Get_first@?$_Compressed_pair@U?$_Wrap_alloc@V?$allocator@D@std@@@std@@V?$_String_val@U?$_Simple_types@D@std@@@2@$00@std@@QEAAAEAU?$_Wrap_alloc@V?$allocator@D@std@@@2@XZ ; std::_Compressed_pair<std::_Wrap_alloc<std::allocator<char> >,std::_String_val<std::_Simple_types<char> >,1>::_Get_first
PUBLIC	?_Get_first@?$_Compressed_pair@U?$_Wrap_alloc@V?$allocator@D@std@@@std@@V?$_String_val@U?$_Simple_types@D@std@@@2@$00@std@@QEBAAEBU?$_Wrap_alloc@V?$allocator@D@std@@@2@XZ ; std::_Compressed_pair<std::_Wrap_alloc<std::allocator<char> >,std::_String_val<std::_Simple_types<char> >,1>::_Get_first
PUBLIC	?_Get_second@?$_Compressed_pair@U?$_Wrap_alloc@V?$allocator@D@std@@@std@@V?$_String_val@U?$_Simple_types@D@std@@@2@$00@std@@QEAAAEAV?$_String_val@U?$_Simple_types@D@std@@@2@XZ ; std::_Compressed_pair<std::_Wrap_alloc<std::allocator<char> >,std::_String_val<std::_Simple_types<char> >,1>::_Get_second
PUBLIC	?_Get_second@?$_Compressed_pair@U?$_Wrap_alloc@V?$allocator@D@std@@@std@@V?$_String_val@U?$_Simple_types@D@std@@@2@$00@std@@QEBAAEBV?$_String_val@U?$_Simple_types@D@std@@@2@XZ ; std::_Compressed_pair<std::_Wrap_alloc<std::allocator<char> >,std::_String_val<std::_Simple_types<char> >,1>::_Get_second
PUBLIC	??1?$_Compressed_pair@U?$_Wrap_alloc@V?$allocator@D@std@@@std@@V?$_String_val@U?$_Simple_types@D@std@@@2@$00@std@@QEAA@XZ ; std::_Compressed_pair<std::_Wrap_alloc<std::allocator<char> >,std::_String_val<std::_Simple_types<char> >,1>::~_Compressed_pair<std::_Wrap_alloc<std::allocator<char> >,std::_String_val<std::_Simple_types<char> >,1>
PUBLIC	??0?$basic_string@DU?$char_traits@D@std@@V?$allocator@D@2@@std@@QEAA@PEBD@Z ; std::basic_string<char,std::char_traits<char>,std::allocator<char> >::basic_string<char,std::char_traits<char>,std::allocator<char> >
PUBLIC	??1?$basic_string@DU?$char_traits@D@std@@V?$allocator@D@2@@std@@QEAA@XZ ; std::basic_string<char,std::char_traits<char>,std::allocator<char> >::~basic_string<char,std::char_traits<char>,std::allocator<char> >
PUBLIC	?assign@?$basic_string@DU?$char_traits@D@std@@V?$allocator@D@2@@std@@QEAAAEAV12@AEBV12@_K1@Z ; std::basic_string<char,std::char_traits<char>,std::allocator<char> >::assign
PUBLIC	?assign@?$basic_string@DU?$char_traits@D@std@@V?$allocator@D@2@@std@@QEAAAEAV12@PEBD_K@Z ; std::basic_string<char,std::char_traits<char>,std::allocator<char> >::assign
PUBLIC	?assign@?$basic_string@DU?$char_traits@D@std@@V?$allocator@D@2@@std@@QEAAAEAV12@PEBD@Z ; std::basic_string<char,std::char_traits<char>,std::allocator<char> >::assign
PUBLIC	?erase@?$basic_string@DU?$char_traits@D@std@@V?$allocator@D@2@@std@@QEAAAEAV12@_K@Z ; std::basic_string<char,std::char_traits<char>,std::allocator<char> >::erase
PUBLIC	?erase@?$basic_string@DU?$char_traits@D@std@@V?$allocator@D@2@@std@@QEAAAEAV12@_K0@Z ; std::basic_string<char,std::char_traits<char>,std::allocator<char> >::erase
PUBLIC	?size@?$basic_string@DU?$char_traits@D@std@@V?$allocator@D@2@@std@@QEBA_KXZ ; std::basic_string<char,std::char_traits<char>,std::allocator<char> >::size
PUBLIC	?max_size@?$basic_string@DU?$char_traits@D@std@@V?$allocator@D@2@@std@@QEBA_KXZ ; std::basic_string<char,std::char_traits<char>,std::allocator<char> >::max_size
PUBLIC	?_Copy@?$basic_string@DU?$char_traits@D@std@@V?$allocator@D@2@@std@@QEAAX_K0@Z ; std::basic_string<char,std::char_traits<char>,std::allocator<char> >::_Copy
PUBLIC	?_Eos@?$basic_string@DU?$char_traits@D@std@@V?$allocator@D@2@@std@@QEAAX_K@Z ; std::basic_string<char,std::char_traits<char>,std::allocator<char> >::_Eos
PUBLIC	?_Grow@?$basic_string@DU?$char_traits@D@std@@V?$allocator@D@2@@std@@QEAA_N_K_N@Z ; std::basic_string<char,std::char_traits<char>,std::allocator<char> >::_Grow
PUBLIC	?_Inside@?$basic_string@DU?$char_traits@D@std@@V?$allocator@D@2@@std@@QEAA_NPEBD@Z ; std::basic_string<char,std::char_traits<char>,std::allocator<char> >::_Inside
PUBLIC	?_Tidy@?$basic_string@DU?$char_traits@D@std@@V?$allocator@D@2@@std@@QEAAX_N_K@Z ; std::basic_string<char,std::char_traits<char>,std::allocator<char> >::_Tidy
PUBLIC	?_Xlen@?$basic_string@DU?$char_traits@D@std@@V?$allocator@D@2@@std@@QEBAXXZ ; std::basic_string<char,std::char_traits<char>,std::allocator<char> >::_Xlen
PUBLIC	?_Xran@?$basic_string@DU?$char_traits@D@std@@V?$allocator@D@2@@std@@QEBAXXZ ; std::basic_string<char,std::char_traits<char>,std::allocator<char> >::_Xran
PUBLIC	?_Xor27@seed_seq@std@@AEBAII@Z			; std::seed_seq::_Xor27
PUBLIC	??0?$allocator@I@std@@QEAA@XZ			; std::allocator<unsigned int>::allocator<unsigned int>
PUBLIC	??0?$allocator@I@std@@QEAA@AEBV01@@Z		; std::allocator<unsigned int>::allocator<unsigned int>
PUBLIC	?deallocate@?$allocator@I@std@@QEAAXPEAI_K@Z	; std::allocator<unsigned int>::deallocate
PUBLIC	?allocate@?$allocator@I@std@@QEAAPEAI_K@Z	; std::allocator<unsigned int>::allocate
PUBLIC	?max_size@?$allocator@I@std@@QEBA_KXZ		; std::allocator<unsigned int>::max_size
PUBLIC	?max_size@?$allocator_traits@V?$allocator@I@std@@@std@@SA_KAEBV?$allocator@I@2@@Z ; std::allocator_traits<std::allocator<unsigned int> >::max_size
PUBLIC	??0?$_Wrap_alloc@V?$allocator@I@std@@@std@@QEAA@AEBV?$allocator@I@1@@Z ; std::_Wrap_alloc<std::allocator<unsigned int> >::_Wrap_alloc<std::allocator<unsigned int> >
PUBLIC	?allocate@?$_Wrap_alloc@V?$allocator@I@std@@@std@@QEAAPEAI_K@Z ; std::_Wrap_alloc<std::allocator<unsigned int> >::allocate
PUBLIC	?deallocate@?$_Wrap_alloc@V?$allocator@I@std@@@std@@QEAAXPEAI_K@Z ; std::_Wrap_alloc<std::allocator<unsigned int> >::deallocate
PUBLIC	?max_size@?$_Wrap_alloc@V?$allocator@I@std@@@std@@QEBA_KU_Nil@2@@Z ; std::_Wrap_alloc<std::allocator<unsigned int> >::max_size
PUBLIC	??0?$_Vector_alloc@U?$_Vec_base_types@IV?$allocator@I@std@@@std@@@std@@QEAA@AEBV?$allocator@I@1@@Z ; std::_Vector_alloc<std::_Vec_base_types<unsigned int,std::allocator<unsigned int> > >::_Vector_alloc<std::_Vec_base_types<unsigned int,std::allocator<unsigned int> > >
PUBLIC	??1?$_Vector_alloc@U?$_Vec_base_types@IV?$allocator@I@std@@@std@@@std@@QEAA@XZ ; std::_Vector_alloc<std::_Vec_base_types<unsigned int,std::allocator<unsigned int> > >::~_Vector_alloc<std::_Vec_base_types<unsigned int,std::allocator<unsigned int> > >
PUBLIC	?_Alloc_proxy@?$_Vector_alloc@U?$_Vec_base_types@IV?$allocator@I@std@@@std@@@std@@QEAAXXZ ; std::_Vector_alloc<std::_Vec_base_types<unsigned int,std::allocator<unsigned int> > >::_Alloc_proxy
PUBLIC	?_Free_proxy@?$_Vector_alloc@U?$_Vec_base_types@IV?$allocator@I@std@@@std@@@std@@QEAAXXZ ; std::_Vector_alloc<std::_Vec_base_types<unsigned int,std::allocator<unsigned int> > >::_Free_proxy
PUBLIC	?_Getpfirst@?$_Vector_alloc@U?$_Vec_base_types@IV?$allocator@I@std@@@std@@@std@@QEBAPEAPEAU_Iterator_base12@2@XZ ; std::_Vector_alloc<std::_Vec_base_types<unsigned int,std::allocator<unsigned int> > >::_Getpfirst
PUBLIC	?_Myproxy@?$_Vector_alloc@U?$_Vec_base_types@IV?$allocator@I@std@@@std@@@std@@QEAAAEAPEAU_Container_proxy@2@XZ ; std::_Vector_alloc<std::_Vec_base_types<unsigned int,std::allocator<unsigned int> > >::_Myproxy
PUBLIC	?_Orphan_all@?$_Vector_alloc@U?$_Vec_base_types@IV?$allocator@I@std@@@std@@@std@@QEAAXXZ ; std::_Vector_alloc<std::_Vec_base_types<unsigned int,std::allocator<unsigned int> > >::_Orphan_all
PUBLIC	?_Getal@?$_Vector_alloc@U?$_Vec_base_types@IV?$allocator@I@std@@@std@@@std@@QEAAAEAU?$_Wrap_alloc@V?$allocator@I@std@@@2@XZ ; std::_Vector_alloc<std::_Vec_base_types<unsigned int,std::allocator<unsigned int> > >::_Getal
PUBLIC	?_Getal@?$_Vector_alloc@U?$_Vec_base_types@IV?$allocator@I@std@@@std@@@std@@QEBAAEBU?$_Wrap_alloc@V?$allocator@I@std@@@2@XZ ; std::_Vector_alloc<std::_Vec_base_types<unsigned int,std::allocator<unsigned int> > >::_Getal
PUBLIC	?_Get_data@?$_Vector_alloc@U?$_Vec_base_types@IV?$allocator@I@std@@@std@@@std@@QEAAAEAV?$_Vector_val@U?$_Simple_types@I@std@@@2@XZ ; std::_Vector_alloc<std::_Vec_base_types<unsigned int,std::allocator<unsigned int> > >::_Get_data
PUBLIC	?_Get_data@?$_Vector_alloc@U?$_Vec_base_types@IV?$allocator@I@std@@@std@@@std@@QEBAAEBV?$_Vector_val@U?$_Simple_types@I@std@@@2@XZ ; std::_Vector_alloc<std::_Vec_base_types<unsigned int,std::allocator<unsigned int> > >::_Get_data
PUBLIC	?_Myfirst@?$_Vector_alloc@U?$_Vec_base_types@IV?$allocator@I@std@@@std@@@std@@QEAAAEAPEAIXZ ; std::_Vector_alloc<std::_Vec_base_types<unsigned int,std::allocator<unsigned int> > >::_Myfirst
PUBLIC	?_Myfirst@?$_Vector_alloc@U?$_Vec_base_types@IV?$allocator@I@std@@@std@@@std@@QEBAAEBQEAIXZ ; std::_Vector_alloc<std::_Vec_base_types<unsigned int,std::allocator<unsigned int> > >::_Myfirst
PUBLIC	?_Mylast@?$_Vector_alloc@U?$_Vec_base_types@IV?$allocator@I@std@@@std@@@std@@QEAAAEAPEAIXZ ; std::_Vector_alloc<std::_Vec_base_types<unsigned int,std::allocator<unsigned int> > >::_Mylast
PUBLIC	?_Mylast@?$_Vector_alloc@U?$_Vec_base_types@IV?$allocator@I@std@@@std@@@std@@QEBAAEBQEAIXZ ; std::_Vector_alloc<std::_Vec_base_types<unsigned int,std::allocator<unsigned int> > >::_Mylast
PUBLIC	?_Myend@?$_Vector_alloc@U?$_Vec_base_types@IV?$allocator@I@std@@@std@@@std@@QEAAAEAPEAIXZ ; std::_Vector_alloc<std::_Vec_base_types<unsigned int,std::allocator<unsigned int> > >::_Myend
PUBLIC	?_Myend@?$_Vector_alloc@U?$_Vec_base_types@IV?$allocator@I@std@@@std@@@std@@QEBAAEBQEAIXZ ; std::_Vector_alloc<std::_Vec_base_types<unsigned int,std::allocator<unsigned int> > >::_Myend
PUBLIC	??0?$_Vector_val@U?$_Simple_types@I@std@@@std@@QEAA@XZ ; std::_Vector_val<std::_Simple_types<unsigned int> >::_Vector_val<std::_Simple_types<unsigned int> >
PUBLIC	??1?$_Vector_val@U?$_Simple_types@I@std@@@std@@QEAA@XZ ; std::_Vector_val<std::_Simple_types<unsigned int> >::~_Vector_val<std::_Simple_types<unsigned int> >
PUBLIC	?_Get_first@?$_Compressed_pair@U?$_Wrap_alloc@V?$allocator@I@std@@@std@@V?$_Vector_val@U?$_Simple_types@I@std@@@2@$00@std@@QEAAAEAU?$_Wrap_alloc@V?$allocator@I@std@@@2@XZ ; std::_Compressed_pair<std::_Wrap_alloc<std::allocator<unsigned int> >,std::_Vector_val<std::_Simple_types<unsigned int> >,1>::_Get_first
PUBLIC	?_Get_first@?$_Compressed_pair@U?$_Wrap_alloc@V?$allocator@I@std@@@std@@V?$_Vector_val@U?$_Simple_types@I@std@@@2@$00@std@@QEBAAEBU?$_Wrap_alloc@V?$allocator@I@std@@@2@XZ ; std::_Compressed_pair<std::_Wrap_alloc<std::allocator<unsigned int> >,std::_Vector_val<std::_Simple_types<unsigned int> >,1>::_Get_first
PUBLIC	?_Get_second@?$_Compressed_pair@U?$_Wrap_alloc@V?$allocator@I@std@@@std@@V?$_Vector_val@U?$_Simple_types@I@std@@@2@$00@std@@QEAAAEAV?$_Vector_val@U?$_Simple_types@I@std@@@2@XZ ; std::_Compressed_pair<std::_Wrap_alloc<std::allocator<unsigned int> >,std::_Vector_val<std::_Simple_types<unsigned int> >,1>::_Get_second
PUBLIC	?_Get_second@?$_Compressed_pair@U?$_Wrap_alloc@V?$allocator@I@std@@@std@@V?$_Vector_val@U?$_Simple_types@I@std@@@2@$00@std@@QEBAAEBV?$_Vector_val@U?$_Simple_types@I@std@@@2@XZ ; std::_Compressed_pair<std::_Wrap_alloc<std::allocator<unsigned int> >,std::_Vector_val<std::_Simple_types<unsigned int> >,1>::_Get_second
PUBLIC	??1?$_Compressed_pair@U?$_Wrap_alloc@V?$allocator@I@std@@@std@@V?$_Vector_val@U?$_Simple_types@I@std@@@2@$00@std@@QEAA@XZ ; std::_Compressed_pair<std::_Wrap_alloc<std::allocator<unsigned int> >,std::_Vector_val<std::_Simple_types<unsigned int> >,1>::~_Compressed_pair<std::_Wrap_alloc<std::allocator<unsigned int> >,std::_Vector_val<std::_Simple_types<unsigned int> >,1>
PUBLIC	??0?$vector@IV?$allocator@I@std@@@std@@QEAA@XZ	; std::vector<unsigned int,std::allocator<unsigned int> >::vector<unsigned int,std::allocator<unsigned int> >
PUBLIC	??1?$vector@IV?$allocator@I@std@@@std@@QEAA@XZ	; std::vector<unsigned int,std::allocator<unsigned int> >::~vector<unsigned int,std::allocator<unsigned int> >
PUBLIC	?capacity@?$vector@IV?$allocator@I@std@@@std@@QEBA_KXZ ; std::vector<unsigned int,std::allocator<unsigned int> >::capacity
PUBLIC	?_Unused_capacity@?$vector@IV?$allocator@I@std@@@std@@QEBA_KXZ ; std::vector<unsigned int,std::allocator<unsigned int> >::_Unused_capacity
PUBLIC	?size@?$vector@IV?$allocator@I@std@@@std@@QEBA_KXZ ; std::vector<unsigned int,std::allocator<unsigned int> >::size
PUBLIC	?max_size@?$vector@IV?$allocator@I@std@@@std@@QEBA_KXZ ; std::vector<unsigned int,std::allocator<unsigned int> >::max_size
PUBLIC	??A?$vector@IV?$allocator@I@std@@@std@@QEBAAEBI_K@Z ; std::vector<unsigned int,std::allocator<unsigned int> >::operator[]
PUBLIC	?push_back@?$vector@IV?$allocator@I@std@@@std@@QEAAXAEBI@Z ; std::vector<unsigned int,std::allocator<unsigned int> >::push_back
PUBLIC	?_Destroy@?$vector@IV?$allocator@I@std@@@std@@IEAAXPEAI0@Z ; std::vector<unsigned int,std::allocator<unsigned int> >::_Destroy
PUBLIC	?_Grow_to@?$vector@IV?$allocator@I@std@@@std@@IEBA_K_K@Z ; std::vector<unsigned int,std::allocator<unsigned int> >::_Grow_to
PUBLIC	?_Inside@?$vector@IV?$allocator@I@std@@@std@@IEBA_NPEBI@Z ; std::vector<unsigned int,std::allocator<unsigned int> >::_Inside
PUBLIC	?_Reallocate@?$vector@IV?$allocator@I@std@@@std@@IEAAX_K@Z ; std::vector<unsigned int,std::allocator<unsigned int> >::_Reallocate
PUBLIC	?_Reserve@?$vector@IV?$allocator@I@std@@@std@@IEAAX_K@Z ; std::vector<unsigned int,std::allocator<unsigned int> >::_Reserve
PUBLIC	?_Tidy@?$vector@IV?$allocator@I@std@@@std@@IEAAXXZ ; std::vector<unsigned int,std::allocator<unsigned int> >::_Tidy
PUBLIC	?_Xlen@?$vector@IV?$allocator@I@std@@@std@@IEBAXXZ ; std::vector<unsigned int,std::allocator<unsigned int> >::_Xlen
PUBLIC	?_Orphan_range@?$vector@IV?$allocator@I@std@@@std@@IEBAXPEAI0@Z ; std::vector<unsigned int,std::allocator<unsigned int> >::_Orphan_range
PUBLIC	??1seed_seq@std@@QEAA@XZ			; std::seed_seq::~seed_seq
PUBLIC	?__autoclassinit2@seed_seq@std@@QEAAX_K@Z	; std::seed_seq::__autoclassinit2
PUBLIC	?_Get_data@?$_Vector_alloc@U?$_Vec_base_types@NV?$allocator@N@std@@@std@@@std@@QEBAAEBV?$_Vector_val@U?$_Simple_types@N@std@@@2@XZ ; std::_Vector_alloc<std::_Vec_base_types<double,std::allocator<double> > >::_Get_data
PUBLIC	?_Myfirst@?$_Vector_alloc@U?$_Vec_base_types@NV?$allocator@N@std@@@std@@@std@@QEBAAEBQEANXZ ; std::_Vector_alloc<std::_Vec_base_types<double,std::allocator<double> > >::_Myfirst
PUBLIC	?_Mylast@?$_Vector_alloc@U?$_Vec_base_types@NV?$allocator@N@std@@@std@@@std@@QEBAAEBQEANXZ ; std::_Vector_alloc<std::_Vec_base_types<double,std::allocator<double> > >::_Mylast
PUBLIC	?_Get_second@?$_Compressed_pair@U?$_Wrap_alloc@V?$allocator@N@std@@@std@@V?$_Vector_val@U?$_Simple_types@N@std@@@2@$00@std@@QEBAAEBV?$_Vector_val@U?$_Simple_types@N@std@@@2@XZ ; std::_Compressed_pair<std::_Wrap_alloc<std::allocator<double> >,std::_Vector_val<std::_Simple_types<double> >,1>::_Get_second
PUBLIC	?size@?$vector@NV?$allocator@N@std@@@std@@QEBA_KXZ ; std::vector<double,std::allocator<double> >::size
PUBLIC	??A?$vector@NV?$allocator@N@std@@@std@@QEBAAEBN_K@Z ; std::vector<double,std::allocator<double> >::operator[]
PUBLIC	??0random_device@std@@QEAA@AEBV?$basic_string@DU?$char_traits@D@std@@V?$allocator@D@2@@1@@Z ; std::random_device::random_device
PUBLIC	??Rrandom_device@std@@QEAAIXZ			; std::random_device::operator()
PUBLIC	??0?$mersenne_twister@_K$0EA@$0BDI@$0JM@$0BP@$0?EKPNJAKFFGJJOGBH@$0BN@$0BB@$0HBNGHPPPONKGAAAA@$0CF@$0?IBBCAAAAAAAAA@$0CL@@std@@QEAA@_K00@Z ; std::mersenne_twister<unsigned __int64,64,312,156,31,-5403634167711393303,29,17,8202884508482404352,37,-2270628950310912,43>::mersenne_twister<unsigned __int64,64,312,156,31,-5403634167711393303,29,17,8202884508482404352,37,-2270628950310912,43>
PUBLIC	?seed@?$mersenne_twister@_K$0EA@$0BDI@$0JM@$0BP@$0?EKPNJAKFFGJJOGBH@$0BN@$0BB@$0HBNGHPPPONKGAAAA@$0CF@$0?IBBCAAAAAAAAA@$0CL@@std@@QEAAX_K0@Z ; std::mersenne_twister<unsigned __int64,64,312,156,31,-5403634167711393303,29,17,8202884508482404352,37,-2270628950310912,43>::seed
PUBLIC	??R?$mersenne_twister@_K$0EA@$0BDI@$0JM@$0BP@$0?EKPNJAKFFGJJOGBH@$0BN@$0BB@$0HBNGHPPPONKGAAAA@$0CF@$0?IBBCAAAAAAAAA@$0CL@@std@@QEAA_KXZ ; std::mersenne_twister<unsigned __int64,64,312,156,31,-5403634167711393303,29,17,8202884508482404352,37,-2270628950310912,43>::operator()
PUBLIC	?_Refill_lower@?$mersenne_twister@_K$0EA@$0BDI@$0JM@$0BP@$0?EKPNJAKFFGJJOGBH@$0BN@$0BB@$0HBNGHPPPONKGAAAA@$0CF@$0?IBBCAAAAAAAAA@$0CL@@std@@IEAAXXZ ; std::mersenne_twister<unsigned __int64,64,312,156,31,-5403634167711393303,29,17,8202884508482404352,37,-2270628950310912,43>::_Refill_lower
PUBLIC	?_Refill_upper@?$mersenne_twister@_K$0EA@$0BDI@$0JM@$0BP@$0?EKPNJAKFFGJJOGBH@$0BN@$0BB@$0HBNGHPPPONKGAAAA@$0CF@$0?IBBCAAAAAAAAA@$0CL@@std@@IEAAXXZ ; std::mersenne_twister<unsigned __int64,64,312,156,31,-5403634167711393303,29,17,8202884508482404352,37,-2270628950310912,43>::_Refill_upper
PUBLIC	??0?$mersenne_twister_engine@_K$0EA@$0BDI@$0JM@$0BP@$0?EKPNJAKFFGJJOGBH@$0BN@$0FFFFFFFFFFFFFFFF@$0BB@$0HBNGHPPPONKGAAAA@$0CF@$0?IBBCAAAAAAAAA@$0CL@$0FIFBPECNEMJFHPCN@@std@@QEAA@_K@Z ; std::mersenne_twister_engine<unsigned __int64,64,312,156,31,-5403634167711393303,29,6148914691236517205,17,8202884508482404352,37,-2270628950310912,43,6364136223846793005>::mersenne_twister_engine<unsigned __int64,64,312,156,31,-5403634167711393303,29,6148914691236517205,17,8202884508482404352,37,-2270628950310912,43,6364136223846793005>
PUBLIC	?min@?$mersenne_twister_engine@_K$0EA@$0BDI@$0JM@$0BP@$0?EKPNJAKFFGJJOGBH@$0BN@$0FFFFFFFFFFFFFFFF@$0BB@$0HBNGHPPPONKGAAAA@$0CF@$0?IBBCAAAAAAAAA@$0CL@$0FIFBPECNEMJFHPCN@@std@@SA_KXZ ; std::mersenne_twister_engine<unsigned __int64,64,312,156,31,-5403634167711393303,29,6148914691236517205,17,8202884508482404352,37,-2270628950310912,43,6364136223846793005>::min
PUBLIC	?max@?$mersenne_twister_engine@_K$0EA@$0BDI@$0JM@$0BP@$0?EKPNJAKFFGJJOGBH@$0BN@$0FFFFFFFFFFFFFFFF@$0BB@$0HBNGHPPPONKGAAAA@$0CF@$0?IBBCAAAAAAAAA@$0CL@$0FIFBPECNEMJFHPCN@@std@@SA_KXZ ; std::mersenne_twister_engine<unsigned __int64,64,312,156,31,-5403634167711393303,29,6148914691236517205,17,8202884508482404352,37,-2270628950310912,43,6364136223846793005>::max
PUBLIC	??0?$uniform_real@N@std@@QEAA@NN@Z		; std::uniform_real<double>::uniform_real<double>
PUBLIC	??0param_type@?$uniform_real@N@std@@QEAA@NN@Z	; std::uniform_real<double>::param_type::param_type
PUBLIC	?_Init@param_type@?$uniform_real@N@std@@QEAAXNN@Z ; std::uniform_real<double>::param_type::_Init
PUBLIC	??0?$uniform_real_distribution@N@std@@QEAA@NN@Z	; std::uniform_real_distribution<double>::uniform_real_distribution<double>
PUBLIC	?ret_x@@YANNN@Z					; ret_x
PUBLIC	?ret_y@@YANNN@Z					; ret_y
PUBLIC	?genrand_init@@YAXXZ				; genrand_init
PUBLIC	?genrand_real@@YANXZ				; genrand_real
PUBLIC	?bend_force_sqr@@YANAEBV?$vector@NV?$allocator@N@std@@@std@@00000HHHHHHH@Z ; bend_force_sqr
PUBLIC	?begin@?$array@I$0BA@@std@@QEAA?AV?$_Array_iterator@I$0BA@@2@XZ ; std::array<unsigned int,16>::begin
PUBLIC	?end@?$array@I$0BA@@std@@QEAA?AV?$_Array_iterator@I$0BA@@2@XZ ; std::array<unsigned int,16>::end
PUBLIC	??0?$_Iterator012@Urandom_access_iterator_tag@std@@I_JPEBIAEBIU_Iterator_base12@2@@std@@QEAA@XZ ; std::_Iterator012<std::random_access_iterator_tag,unsigned int,__int64,unsigned int const * __ptr64,unsigned int const & __ptr64,std::_Iterator_base12>::_Iterator012<std::random_access_iterator_tag,unsigned int,__int64,unsigned int const * __ptr64,unsigned int const & __ptr64,std::_Iterator_base12>
PUBLIC	??1?$_Iterator012@Urandom_access_iterator_tag@std@@I_JPEBIAEBIU_Iterator_base12@2@@std@@QEAA@XZ ; std::_Iterator012<std::random_access_iterator_tag,unsigned int,__int64,unsigned int const * __ptr64,unsigned int const & __ptr64,std::_Iterator_base12>::~_Iterator012<std::random_access_iterator_tag,unsigned int,__int64,unsigned int const * __ptr64,unsigned int const & __ptr64,std::_Iterator_base12>
PUBLIC	??0?$_Iterator012@Urandom_access_iterator_tag@std@@I_JPEBIAEBIU_Iterator_base12@2@@std@@QEAA@AEBU01@@Z ; std::_Iterator012<std::random_access_iterator_tag,unsigned int,__int64,unsigned int const * __ptr64,unsigned int const & __ptr64,std::_Iterator_base12>::_Iterator012<std::random_access_iterator_tag,unsigned int,__int64,unsigned int const * __ptr64,unsigned int const & __ptr64,std::_Iterator_base12>
PUBLIC	??0?$_Array_const_iterator@I$0BA@@std@@QEAA@PEBI_K@Z ; std::_Array_const_iterator<unsigned int,16>::_Array_const_iterator<unsigned int,16>
PUBLIC	?_Unchecked@?$_Array_const_iterator@I$0BA@@std@@QEBAPEBIXZ ; std::_Array_const_iterator<unsigned int,16>::_Unchecked
PUBLIC	??D?$_Array_const_iterator@I$0BA@@std@@QEBAAEBIXZ ; std::_Array_const_iterator<unsigned int,16>::operator*
PUBLIC	??E?$_Array_const_iterator@I$0BA@@std@@QEAAAEAV01@XZ ; std::_Array_const_iterator<unsigned int,16>::operator++
PUBLIC	??8?$_Array_const_iterator@I$0BA@@std@@QEBA_NAEBV01@@Z ; std::_Array_const_iterator<unsigned int,16>::operator==
PUBLIC	??9?$_Array_const_iterator@I$0BA@@std@@QEBA_NAEBV01@@Z ; std::_Array_const_iterator<unsigned int,16>::operator!=
PUBLIC	??M?$_Array_const_iterator@I$0BA@@std@@QEBA_NAEBV01@@Z ; std::_Array_const_iterator<unsigned int,16>::operator<
PUBLIC	?_Compat@?$_Array_const_iterator@I$0BA@@std@@QEBAXAEBV12@@Z ; std::_Array_const_iterator<unsigned int,16>::_Compat
PUBLIC	??1?$_Array_const_iterator@I$0BA@@std@@QEAA@XZ	; std::_Array_const_iterator<unsigned int,16>::~_Array_const_iterator<unsigned int,16>
PUBLIC	??0?$_Array_const_iterator@I$0BA@@std@@QEAA@AEBV01@@Z ; std::_Array_const_iterator<unsigned int,16>::_Array_const_iterator<unsigned int,16>
PUBLIC	??0?$_Array_iterator@I$0BA@@std@@QEAA@PEAI_K@Z	; std::_Array_iterator<unsigned int,16>::_Array_iterator<unsigned int,16>
PUBLIC	?_Unchecked@?$_Array_iterator@I$0BA@@std@@QEBAPEAIXZ ; std::_Array_iterator<unsigned int,16>::_Unchecked
PUBLIC	??D?$_Array_iterator@I$0BA@@std@@QEBAAEAIXZ	; std::_Array_iterator<unsigned int,16>::operator*
PUBLIC	??E?$_Array_iterator@I$0BA@@std@@QEAAAEAV01@XZ	; std::_Array_iterator<unsigned int,16>::operator++
PUBLIC	??1?$_Array_iterator@I$0BA@@std@@QEAA@XZ	; std::_Array_iterator<unsigned int,16>::~_Array_iterator<unsigned int,16>
PUBLIC	??0?$_Array_iterator@I$0BA@@std@@QEAA@AEBV01@@Z	; std::_Array_iterator<unsigned int,16>::_Array_iterator<unsigned int,16>
PUBLIC	??$ref@Vrandom_device@std@@@std@@YA?AV?$reference_wrapper@Vrandom_device@std@@@0@AEAVrandom_device@0@@Z ; std::ref<std::random_device>
PUBLIC	??0?$reference_wrapper@Vrandom_device@std@@@std@@QEAA@AEAVrandom_device@1@@Z ; std::reference_wrapper<std::random_device>::reference_wrapper<std::random_device>
PUBLIC	?get@?$reference_wrapper@Vrandom_device@std@@@std@@QEBAAEAVrandom_device@2@XZ ; std::reference_wrapper<std::random_device>::get
PUBLIC	??$generate@V?$_Array_iterator@I$0BA@@std@@V?$reference_wrapper@Vrandom_device@std@@@2@@std@@YAXV?$_Array_iterator@I$0BA@@0@0V?$reference_wrapper@Vrandom_device@std@@@0@@Z ; std::generate<std::_Array_iterator<unsigned int,16>,std::reference_wrapper<std::random_device> >
PUBLIC	??$?0V?$_Array_iterator@I$0BA@@std@@@seed_seq@std@@QEAA@V?$_Array_iterator@I$0BA@@1@0@Z ; std::seed_seq::seed_seq<std::_Array_iterator<unsigned int,16> >
PUBLIC	??$seed@Vseed_seq@std@@X@?$mersenne_twister_engine@_K$0EA@$0BDI@$0JM@$0BP@$0?EKPNJAKFFGJJOGBH@$0BN@$0FFFFFFFFFFFFFFFF@$0BB@$0HBNGHPPPONKGAAAA@$0CF@$0?IBBCAAAAAAAAA@$0CL@$0FIFBPECNEMJFHPCN@@std@@QEAAXAEAVseed_seq@1@@Z ; std::mersenne_twister_engine<unsigned __int64,64,312,156,31,-5403634167711393303,29,6148914691236517205,17,8202884508482404352,37,-2270628950310912,43,6364136223846793005>::seed<std::seed_seq,void>
PUBLIC	??$?RV?$mersenne_twister_engine@_K$0EA@$0BDI@$0JM@$0BP@$0?EKPNJAKFFGJJOGBH@$0BN@$0FFFFFFFFFFFFFFFF@$0BB@$0HBNGHPPPONKGAAAA@$0CF@$0?IBBCAAAAAAAAA@$0CL@$0FIFBPECNEMJFHPCN@@std@@@?$uniform_real@N@std@@QEBANAEAV?$mersenne_twister_engine@_K$0EA@$0BDI@$0JM@$0BP@$0?EKPNJAKFFGJJOGBH@$0BN@$0FFFFFFFFFFFFFFFF@$0BB@$0HBNGHPPPONKGAAAA@$0CF@$0?IBBCAAAAAAAAA@$0CL@$0FIFBPECNEMJFHPCN@@1@@Z ; std::uniform_real<double>::operator()<std::mersenne_twister_engine<unsigned __int64,64,312,156,31,-5403634167711393303,29,6148914691236517205,17,8202884508482404352,37,-2270628950310912,43,6364136223846793005> >
PUBLIC	??$addressof@I@std@@YAPEAIAEAI@Z		; std::addressof<unsigned int>
PUBLIC	??$_Debug_pointer@$$CBD@std@@YAXPEBDPEB_WI@Z	; std::_Debug_pointer<char const >
PUBLIC	??$?0AEBV?$allocator@I@std@@$$V@?$_Compressed_pair@U?$_Wrap_alloc@V?$allocator@I@std@@@std@@V?$_Vector_val@U?$_Simple_types@I@std@@@2@$00@std@@QEAA@U_One_then_variadic_args_t@1@AEBV?$allocator@I@1@@Z ; std::_Compressed_pair<std::_Wrap_alloc<std::allocator<unsigned int> >,std::_Vector_val<std::_Simple_types<unsigned int> >,1>::_Compressed_pair<std::_Wrap_alloc<std::allocator<unsigned int> >,std::_Vector_val<std::_Simple_types<unsigned int> >,1><std::allocator<unsigned int> const & __ptr64>
PUBLIC	??$?0AEBV?$allocator@D@std@@$$V@?$_Compressed_pair@U?$_Wrap_alloc@V?$allocator@D@std@@@std@@V?$_String_val@U?$_Simple_types@D@std@@@2@$00@std@@QEAA@U_One_then_variadic_args_t@1@AEBV?$allocator@D@1@@Z ; std::_Compressed_pair<std::_Wrap_alloc<std::allocator<char> >,std::_String_val<std::_Simple_types<char> >,1>::_Compressed_pair<std::_Wrap_alloc<std::allocator<char> >,std::_String_val<std::_Simple_types<char> >,1><std::allocator<char> const & __ptr64>
PUBLIC	??$destroy@PEAD@?$_Wrap_alloc@V?$allocator@D@std@@@std@@QEAAXPEAPEAD@Z ; std::_Wrap_alloc<std::allocator<char> >::destroy<char * __ptr64>
PUBLIC	??$addressof@D@std@@YAPEADAEAD@Z		; std::addressof<char>
PUBLIC	??$_Debug_pointer_if@$$CBD@std@@YAX_NPEBDPEB_WI@Z ; std::_Debug_pointer_if<char const >
PUBLIC	??$construct@PEADAEAPEAD@?$_Wrap_alloc@V?$allocator@D@std@@@std@@QEAAXPEAPEADAEAPEAD@Z ; std::_Wrap_alloc<std::allocator<char> >::construct<char * __ptr64,char * __ptr64 & __ptr64>
PUBLIC	?deallocate@?$allocator@U_Container_proxy@std@@@std@@QEAAXPEAU_Container_proxy@2@_K@Z ; std::allocator<std::_Container_proxy>::deallocate
PUBLIC	?allocate@?$allocator@U_Container_proxy@std@@@std@@QEAAPEAU_Container_proxy@2@_K@Z ; std::allocator<std::_Container_proxy>::allocate
PUBLIC	?allocate@?$_Wrap_alloc@V?$allocator@U_Container_proxy@std@@@std@@@std@@QEAAPEAU_Container_proxy@2@_K@Z ; std::_Wrap_alloc<std::allocator<std::_Container_proxy> >::allocate
PUBLIC	?deallocate@?$_Wrap_alloc@V?$allocator@U_Container_proxy@std@@@std@@@std@@QEAAXPEAU_Container_proxy@2@_K@Z ; std::_Wrap_alloc<std::allocator<std::_Container_proxy> >::deallocate
PUBLIC	??$?0U?$_Wrap_alloc@V?$allocator@I@std@@@std@@@?$_Wrap_alloc@V?$allocator@U_Container_proxy@std@@@std@@@std@@QEAA@AEAU?$_Wrap_alloc@V?$allocator@I@std@@@1@@Z ; std::_Wrap_alloc<std::allocator<std::_Container_proxy> >::_Wrap_alloc<std::allocator<std::_Container_proxy> ><std::_Wrap_alloc<std::allocator<unsigned int> > >
PUBLIC	??$?0I@?$allocator@U_Container_proxy@std@@@std@@QEAA@AEBV?$allocator@I@1@@Z ; std::allocator<std::_Container_proxy>::allocator<std::_Container_proxy><unsigned int>
PUBLIC	??$destroy@U_Container_proxy@std@@@?$_Wrap_alloc@V?$allocator@U_Container_proxy@std@@@std@@@std@@QEAAXPEAU_Container_proxy@1@@Z ; std::_Wrap_alloc<std::allocator<std::_Container_proxy> >::destroy<std::_Container_proxy>
PUBLIC	??$construct@U_Container_proxy@std@@U12@@?$_Wrap_alloc@V?$allocator@U_Container_proxy@std@@@std@@@std@@QEAAXPEAU_Container_proxy@1@$$QEAU21@@Z ; std::_Wrap_alloc<std::allocator<std::_Container_proxy> >::construct<std::_Container_proxy,std::_Container_proxy>
PUBLIC	??$_Destroy_range@U?$_Wrap_alloc@V?$allocator@I@std@@@std@@@std@@YAXPEAI0AEAU?$_Wrap_alloc@V?$allocator@I@std@@@0@@Z ; std::_Destroy_range<std::_Wrap_alloc<std::allocator<unsigned int> > >
PUBLIC	??$?0U?$_Wrap_alloc@V?$allocator@D@std@@@std@@@?$_Wrap_alloc@V?$allocator@U_Container_proxy@std@@@std@@@std@@QEAA@AEAU?$_Wrap_alloc@V?$allocator@D@std@@@1@@Z ; std::_Wrap_alloc<std::allocator<std::_Container_proxy> >::_Wrap_alloc<std::allocator<std::_Container_proxy> ><std::_Wrap_alloc<std::allocator<char> > >
PUBLIC	??$?0D@?$allocator@U_Container_proxy@std@@@std@@QEAA@AEBV?$allocator@D@1@@Z ; std::allocator<std::_Container_proxy>::allocator<std::_Container_proxy><char>
PUBLIC	??$_Debug_range_ptr@V?$_Array_iterator@I$0BA@@std@@V?$reference_wrapper@Vrandom_device@std@@@2@@std@@YAXV?$_Array_iterator@I$0BA@@0@0AEAV?$reference_wrapper@Vrandom_device@std@@@0@PEB_WI@Z ; std::_Debug_range_ptr<std::_Array_iterator<unsigned int,16>,std::reference_wrapper<std::random_device> >
PUBLIC	??$_Unchecked@I$0BA@@std@@YAPEAIV?$_Array_iterator@I$0BA@@0@@Z ; std::_Unchecked<unsigned int,16>
PUBLIC	??$_Generate@PEAIV?$reference_wrapper@Vrandom_device@std@@@std@@@std@@YAXPEAI0V?$reference_wrapper@Vrandom_device@std@@@0@@Z ; std::_Generate<unsigned int * __ptr64,std::reference_wrapper<std::random_device> >
PUBLIC	??$_Construct@V?$_Array_iterator@I$0BA@@std@@@seed_seq@std@@AEAAXV?$_Array_iterator@I$0BA@@1@0@Z ; std::seed_seq::_Construct<std::_Array_iterator<unsigned int,16> >
PUBLIC	??$generate@PEAK@seed_seq@std@@QEBAXPEAK0@Z	; std::seed_seq::generate<unsigned long * __ptr64>
PUBLIC	??$_Eval@V?$mersenne_twister_engine@_K$0EA@$0BDI@$0JM@$0BP@$0?EKPNJAKFFGJJOGBH@$0BN@$0FFFFFFFFFFFFFFFF@$0BB@$0HBNGHPPPONKGAAAA@$0CF@$0?IBBCAAAAAAAAA@$0CL@$0FIFBPECNEMJFHPCN@@std@@@?$uniform_real@N@std@@AEBANAEAV?$mersenne_twister_engine@_K$0EA@$0BDI@$0JM@$0BP@$0?EKPNJAKFFGJJOGBH@$0BN@$0FFFFFFFFFFFFFFFF@$0BB@$0HBNGHPPPONKGAAAA@$0CF@$0?IBBCAAAAAAAAA@$0CL@$0FIFBPECNEMJFHPCN@@1@AEBUparam_type@01@@Z ; std::uniform_real<double>::_Eval<std::mersenne_twister_engine<unsigned __int64,64,312,156,31,-5403634167711393303,29,6148914691236517205,17,8202884508482404352,37,-2270628950310912,43,6364136223846793005> >
PUBLIC	??$_Addressof@I@std@@YAPEAIAEAIU?$integral_constant@_N$0A@@0@@Z ; std::_Addressof<unsigned int>
PUBLIC	??$forward@AEBV?$allocator@I@std@@@std@@YAAEBV?$allocator@I@0@AEBV10@@Z ; std::forward<std::allocator<unsigned int> const & __ptr64>
PUBLIC	??$forward@AEBV?$allocator@D@std@@@std@@YAAEBV?$allocator@D@0@AEBV10@@Z ; std::forward<std::allocator<char> const & __ptr64>
PUBLIC	??$destroy@PEAD@?$allocator_traits@V?$allocator@D@std@@@std@@SAXAEAV?$allocator@D@1@PEAPEAD@Z ; std::allocator_traits<std::allocator<char> >::destroy<char * __ptr64>
PUBLIC	??$_Addressof@D@std@@YAPEADAEADU?$integral_constant@_N$0A@@0@@Z ; std::_Addressof<char>
PUBLIC	??$forward@AEAPEAD@std@@YAAEAPEADAEAPEAD@Z	; std::forward<char * __ptr64 & __ptr64>
PUBLIC	??$construct@PEADAEAPEAD@?$allocator_traits@V?$allocator@D@std@@@std@@SAXAEAV?$allocator@D@1@PEAPEADAEAPEAD@Z ; std::allocator_traits<std::allocator<char> >::construct<char * __ptr64,char * __ptr64 & __ptr64>
PUBLIC	??$destroy@U_Container_proxy@std@@@?$allocator_traits@V?$allocator@U_Container_proxy@std@@@std@@@std@@SAXAEAV?$allocator@U_Container_proxy@std@@@1@PEAU_Container_proxy@1@@Z ; std::allocator_traits<std::allocator<std::_Container_proxy> >::destroy<std::_Container_proxy>
PUBLIC	??$forward@U_Container_proxy@std@@@std@@YA$$QEAU_Container_proxy@0@AEAU10@@Z ; std::forward<std::_Container_proxy>
PUBLIC	??$construct@U_Container_proxy@std@@U12@@?$allocator_traits@V?$allocator@U_Container_proxy@std@@@std@@@std@@SAXAEAV?$allocator@U_Container_proxy@std@@@1@PEAU_Container_proxy@1@$$QEAU31@@Z ; std::allocator_traits<std::allocator<std::_Container_proxy> >::construct<std::_Container_proxy,std::_Container_proxy>
PUBLIC	??$_Ptr_cat@II@std@@YA?AU_Scalar_ptr_iterator_tag@0@PEAI0@Z ; std::_Ptr_cat<unsigned int,unsigned int>
PUBLIC	??$_Destroy_range@U?$_Wrap_alloc@V?$allocator@I@std@@@std@@@std@@YAXPEAI0AEAU?$_Wrap_alloc@V?$allocator@I@std@@@0@U_Scalar_ptr_iterator_tag@0@@Z ; std::_Destroy_range<std::_Wrap_alloc<std::allocator<unsigned int> > >
PUBLIC	??$addressof@Vrandom_device@std@@@std@@YAPEAVrandom_device@0@AEAV10@@Z ; std::addressof<std::random_device>
PUBLIC	??$_Iter_cat@V?$_Array_iterator@I$0BA@@std@@@std@@YA?AUrandom_access_iterator_tag@0@AEBV?$_Array_iterator@I$0BA@@0@@Z ; std::_Iter_cat<std::_Array_iterator<unsigned int,16> >
PUBLIC	??$_Debug_range_ptr2@V?$_Array_iterator@I$0BA@@std@@V?$reference_wrapper@Vrandom_device@std@@@2@@std@@YAXV?$_Array_iterator@I$0BA@@0@0AEAV?$reference_wrapper@Vrandom_device@std@@@0@PEB_WIUrandom_access_iterator_tag@0@@Z ; std::_Debug_range_ptr2<std::_Array_iterator<unsigned int,16>,std::reference_wrapper<std::random_device> >
PUBLIC	??$forward@AEAVrandom_device@std@@@std@@YAAEAVrandom_device@0@AEAV10@@Z ; std::forward<std::random_device & __ptr64>
PUBLIC	??$_Call@AEAVrandom_device@std@@$$V@_Invoker_functor@std@@SAIAEAVrandom_device@1@@Z ; std::_Invoker_functor::_Call<std::random_device & __ptr64>
PUBLIC	??$invoke@AEAVrandom_device@std@@$$V@std@@YAIAEAVrandom_device@0@@Z ; std::invoke<std::random_device & __ptr64>
PUBLIC	??$?R$$V@?$reference_wrapper@Vrandom_device@std@@@std@@QEBAIXZ ; std::reference_wrapper<std::random_device>::operator()<>
PUBLIC	??$_Val_type@PEAK@std@@YAPEAKPEAK@Z		; std::_Val_type<unsigned long * __ptr64>
PUBLIC	??$_Generate@PEAKK@seed_seq@std@@AEBAXPEAK00@Z	; std::seed_seq::_Generate<unsigned long * __ptr64,unsigned long>
PUBLIC	??$generate_canonical@N$0?0V?$mersenne_twister_engine@_K$0EA@$0BDI@$0JM@$0BP@$0?EKPNJAKFFGJJOGBH@$0BN@$0FFFFFFFFFFFFFFFF@$0BB@$0HBNGHPPPONKGAAAA@$0CF@$0?IBBCAAAAAAAAA@$0CL@$0FIFBPECNEMJFHPCN@@std@@@std@@YANAEAV?$mersenne_twister_engine@_K$0EA@$0BDI@$0JM@$0BP@$0?EKPNJAKFFGJJOGBH@$0BN@$0FFFFFFFFFFFFFFFF@$0BB@$0HBNGHPPPONKGAAAA@$0CF@$0?IBBCAAAAAAAAA@$0CL@$0FIFBPECNEMJFHPCN@@0@@Z ; std::generate_canonical<double,-1,std::mersenne_twister_engine<unsigned __int64,64,312,156,31,-5403634167711393303,29,6148914691236517205,17,8202884508482404352,37,-2270628950310912,43,6364136223846793005> >
PUBLIC	??$destroy@PEAD@?$allocator@D@std@@QEAAXPEAPEAD@Z ; std::allocator<char>::destroy<char * __ptr64>
PUBLIC	??$construct@PEADAEAPEAD@?$allocator@D@std@@QEAAXPEAPEADAEAPEAD@Z ; std::allocator<char>::construct<char * __ptr64,char * __ptr64 & __ptr64>
PUBLIC	??$destroy@U_Container_proxy@std@@@?$allocator@U_Container_proxy@std@@@std@@QEAAXPEAU_Container_proxy@1@@Z ; std::allocator<std::_Container_proxy>::destroy<std::_Container_proxy>
PUBLIC	??$construct@U_Container_proxy@std@@U12@@?$allocator@U_Container_proxy@std@@@std@@QEAAXPEAU_Container_proxy@1@$$QEAU21@@Z ; std::allocator<std::_Container_proxy>::construct<std::_Container_proxy,std::_Container_proxy>
PUBLIC	??$_Addressof@Vrandom_device@std@@@std@@YAPEAVrandom_device@0@AEAV10@U?$integral_constant@_N$0A@@0@@Z ; std::_Addressof<std::random_device>
PUBLIC	??$addressof@$$CBI@std@@YAPEBIAEBI@Z		; std::addressof<unsigned int const >
PUBLIC	??$construct@IAEAI@?$_Wrap_alloc@V?$allocator@I@std@@@std@@QEAAXPEAIAEAI@Z ; std::_Wrap_alloc<std::allocator<unsigned int> >::construct<unsigned int,unsigned int & __ptr64>
PUBLIC	??$construct@IAEBI@?$_Wrap_alloc@V?$allocator@I@std@@@std@@QEAAXPEAIAEBI@Z ; std::_Wrap_alloc<std::allocator<unsigned int> >::construct<unsigned int,unsigned int const & __ptr64>
PUBLIC	??$_Umove@PEAI@?$vector@IV?$allocator@I@std@@@std@@IEAAPEAIPEAI00@Z ; std::vector<unsigned int,std::allocator<unsigned int> >::_Umove<unsigned int * __ptr64>
PUBLIC	??$_Debug_pointer@V?$_Array_iterator@I$0BA@@std@@@std@@YAXAEAV?$_Array_iterator@I$0BA@@0@PEB_WI@Z ; std::_Debug_pointer<std::_Array_iterator<unsigned int,16> >
PUBLIC	??$_Debug_pointer@V?$reference_wrapper@Vrandom_device@std@@@std@@@std@@YAXAEAV?$reference_wrapper@Vrandom_device@std@@@0@PEB_WI@Z ; std::_Debug_pointer<std::reference_wrapper<std::random_device> >
PUBLIC	??$_Addressof@$$CBI@std@@YAPEBIAEBIU?$integral_constant@_N$0A@@0@@Z ; std::_Addressof<unsigned int const >
PUBLIC	??$forward@AEAI@std@@YAAEAIAEAI@Z		; std::forward<unsigned int & __ptr64>
PUBLIC	??$construct@IAEAI@?$allocator_traits@V?$allocator@I@std@@@std@@SAXAEAV?$allocator@I@1@PEAIAEAI@Z ; std::allocator_traits<std::allocator<unsigned int> >::construct<unsigned int,unsigned int & __ptr64>
PUBLIC	??$forward@AEBI@std@@YAAEBIAEBI@Z		; std::forward<unsigned int const & __ptr64>
PUBLIC	??$construct@IAEBI@?$allocator_traits@V?$allocator@I@std@@@std@@SAXAEAV?$allocator@I@1@PEAIAEBI@Z ; std::allocator_traits<std::allocator<unsigned int> >::construct<unsigned int,unsigned int const & __ptr64>
PUBLIC	??$_Uninitialized_move@PEAIPEAIU?$_Wrap_alloc@V?$allocator@I@std@@@std@@@std@@YAPEAIPEAI00AEAU?$_Wrap_alloc@V?$allocator@I@std@@@0@@Z ; std::_Uninitialized_move<unsigned int * __ptr64,unsigned int * __ptr64,std::_Wrap_alloc<std::allocator<unsigned int> > >
PUBLIC	??$construct@IAEAI@?$allocator@I@std@@QEAAXPEAIAEAI@Z ; std::allocator<unsigned int>::construct<unsigned int,unsigned int & __ptr64>
PUBLIC	??$construct@IAEBI@?$allocator@I@std@@QEAAXPEAIAEBI@Z ; std::allocator<unsigned int>::construct<unsigned int,unsigned int const & __ptr64>
PUBLIC	??$_Unchecked@PEAI@std@@YAPEAIPEAI@Z		; std::_Unchecked<unsigned int * __ptr64>
PUBLIC	??$_Uninit_move@PEAIPEAIU?$_Wrap_alloc@V?$allocator@I@std@@@std@@@std@@YAPEAIPEAI00AEAU?$_Wrap_alloc@V?$allocator@I@std@@@0@@Z ; std::_Uninit_move<unsigned int * __ptr64,unsigned int * __ptr64,std::_Wrap_alloc<std::allocator<unsigned int> > >
PUBLIC	??$_Rechecked@PEAIPEAI@std@@YAAEAPEAIAEAPEAIPEAI@Z ; std::_Rechecked<unsigned int * __ptr64,unsigned int * __ptr64>
PUBLIC	??$_Val_type@PEAI@std@@YAPEAIPEAI@Z		; std::_Val_type<unsigned int * __ptr64>
PUBLIC	??$_Uninit_move@III@std@@YAPEAIPEAI00AEAU?$_Wrap_alloc@V?$allocator@I@std@@@0@0U_Scalar_ptr_iterator_tag@0@@Z ; std::_Uninit_move<unsigned int,unsigned int,unsigned int>
PUBLIC	??$_Debug_range_ptr@PEAIPEAI@std@@YAXPEAI0AEAPEAIPEB_WI@Z ; std::_Debug_range_ptr<unsigned int * __ptr64,unsigned int * __ptr64>
PUBLIC	??$_Iter_cat@PEAI@std@@YA?AUrandom_access_iterator_tag@0@AEBQEAI@Z ; std::_Iter_cat<unsigned int * __ptr64>
PUBLIC	??$_Debug_range_ptr2@PEAIPEAI@std@@YAXPEAI0AEAPEAIPEB_WIUrandom_access_iterator_tag@0@@Z ; std::_Debug_range_ptr2<unsigned int * __ptr64,unsigned int * __ptr64>
PUBLIC	??$_Debug_pointer@I@std@@YAXPEAIPEB_WI@Z	; std::_Debug_pointer<unsigned int>
PUBLIC	??_C@_1JA@MHADJNIL@?$AAc?$AA?3?$AA?2?$AAp?$AAr?$AAo?$AAg?$AAr?$AAa?$AAm?$AA?5?$AAf?$AAi?$AAl?$AAe?$AAs?$AA?5?$AA?$CI?$AAx?$AA8?$AA6?$AA?$CJ?$AA?2?$AAm?$AAi?$AAc?$AAr?$AAo?$AAs?$AAo?$AAf?$AAt@ ; `string'
PUBLIC	??_C@_1DC@POOIKBAO@?$AAI?$AAT?$AAE?$AAR?$AAA?$AAT?$AAO?$AAR?$AA?5?$AAL?$AAI?$AAS?$AAT?$AA?5?$AAC?$AAO?$AAR?$AAR?$AAU?$AAP?$AAT?$AAE?$AAD?$AA?$CB?$AA?$AA@ ; `string'
PUBLIC	?__LINE__Var@?0??_Allocate@std@@YAPEAX_K0_N@Z@4JA ; `std::_Allocate'::`1'::__LINE__Var
PUBLIC	??_C@_0BE@LMNLACIC@_Ptr_container?5?$CB?$DN?50?$AA@ ; `string'
PUBLIC	??_C@_1DG@HGDKEBPG@?$AA?$CC?$AA_?$AAP?$AAt?$AAr?$AA_?$AAc?$AAo?$AAn?$AAt?$AAa?$AAi?$AAn?$AAe?$AAr?$AA?5?$AA?$CB?$AA?$DN?$AA?5?$AA0?$AA?$CC?$AA?5?$AA?$CG?$AA?$CG?$AA?5?$AA0?$AA?$AA@ ; `string'
PUBLIC	??_C@_17CNPHIMPH@?$AA?$CF?$AAl?$AAs?$AA?$AA@	; `string'
PUBLIC	??_C@_1JA@DKOIEICI@?$AAc?$AA?3?$AA?2?$AAp?$AAr?$AAo?$AAg?$AAr?$AAa?$AAm?$AA?5?$AAf?$AAi?$AAl?$AAe?$AAs?$AA?5?$AA?$CI?$AAx?$AA8?$AA6?$AA?$CJ?$AA?2?$AAm?$AAi?$AAc?$AAr?$AAo?$AAs?$AAo?$AAf?$AAt@ ; `string'
PUBLIC	??_C@_1BO@NKFMJPA@?$AAs?$AAt?$AAd?$AA?3?$AA?3?$AA_?$AAA?$AAl?$AAl?$AAo?$AAc?$AAa?$AAt?$AAe?$AA?$AA@ ; `string'
PUBLIC	??_C@_1CG@JNLFBNGN@?$AA?$CC?$AAi?$AAn?$AAv?$AAa?$AAl?$AAi?$AAd?$AA?5?$AAa?$AAr?$AAg?$AAu?$AAm?$AAe?$AAn?$AAt?$AA?$CC?$AA?$AA@ ; `string'
PUBLIC	??_C@_09GLJCAGLP@_Ptr?5?$CB?$DN?50?$AA@		; `string'
PUBLIC	??_C@_1CC@GKJLLHIM@?$AA?$CC?$AA_?$AAP?$AAt?$AAr?$AA?5?$AA?$CB?$AA?$DN?$AA?5?$AA0?$AA?$CC?$AA?5?$AA?$CG?$AA?$CG?$AA?5?$AA0?$AA?$AA@ ; `string'
PUBLIC	?__LINE__Var@?0??_Deallocate@std@@YAXPEAX_K1@Z@4JA ; `std::_Deallocate'::`1'::__LINE__Var
PUBLIC	??_C@_0BN@HMCJOMKN@_Count?5?$DM?$DN?5?$CIsize_t?$CJ?$CI?91?$CJ?5?1?5_Sz?$AA@ ; `string'
PUBLIC	??_C@_1EI@MLOBABC@?$AA?$CC?$AA_?$AAC?$AAo?$AAu?$AAn?$AAt?$AA?5?$AA?$DM?$AA?$DN?$AA?5?$AA?$CI?$AAs?$AAi?$AAz?$AAe?$AA_?$AAt?$AA?$CJ?$AA?$CI?$AA?9?$AA1?$AA?$CJ?$AA?5?$AA?1?$AA?5?$AA_?$AAS?$AAz?$AA?$CC?$AA?5?$AA?$CG@ ; `string'
PUBLIC	??_C@_1CC@LOFJFFDB@?$AAs?$AAt?$AAd?$AA?3?$AA?3?$AA_?$AAD?$AAe?$AAa?$AAl?$AAl?$AAo?$AAc?$AAa?$AAt?$AAe?$AA?$AA@ ; `string'
PUBLIC	??_C@_0DD@GBGGGKGG@?$CI_Ptr_user?5?$CG?5?$CI_BIG_ALLOCATION_AL@ ; `string'
PUBLIC	??_C@_1HE@CDMBFOKC@?$AA?$CC?$AA?$CI?$AA_?$AAP?$AAt?$AAr?$AA_?$AAu?$AAs?$AAe?$AAr?$AA?5?$AA?$CG?$AA?5?$AA?$CI?$AA_?$AAB?$AAI?$AAG?$AA_?$AAA?$AAL?$AAL?$AAO?$AAC?$AAA?$AAT?$AAI?$AAO?$AAN?$AA_?$AAA@ ; `string'
PUBLIC	??_C@_0EI@NOJHEJCJ@reinterpret_cast?$DMuintptr_t?5?$CK?$DO?$CI_P@ ; `string'
PUBLIC	??_C@_1JO@EKLKIEHP@?$AA?$CC?$AAr?$AAe?$AAi?$AAn?$AAt?$AAe?$AAr?$AAp?$AAr?$AAe?$AAt?$AA_?$AAc?$AAa?$AAs?$AAt?$AA?$DM?$AAu?$AAi?$AAn?$AAt?$AAp?$AAt?$AAr?$AA_?$AAt?$AA?5?$AA?$CK?$AA?$DO?$AA?$CI?$AA_@ ; `string'
PUBLIC	??_C@_0BL@OCKMEJON@_Ptr_container?5?$DM?5_Ptr_user?$AA@ ; `string'
PUBLIC	??_C@_1EE@PDHAHDDC@?$AA?$CC?$AA_?$AAP?$AAt?$AAr?$AA_?$AAc?$AAo?$AAn?$AAt?$AAa?$AAi?$AAn?$AAe?$AAr?$AA?5?$AA?$DM?$AA?5?$AA_?$AAP?$AAt?$AAr?$AA_?$AAu?$AAs?$AAe?$AAr?$AA?$CC?$AA?5?$AA?$CG?$AA?$CG?$AA?5@ ; `string'
PUBLIC	??_C@_0DB@GLFJLNCE@2?5?$CK?5sizeof?$CIvoid?5?$CK?$CJ?5?$DM?$DN?5_Ptr_user?5@ ; `string'
PUBLIC	??_C@_1HA@NAPGMHAO@?$AA?$CC?$AA2?$AA?5?$AA?$CK?$AA?5?$AAs?$AAi?$AAz?$AAe?$AAo?$AAf?$AA?$CI?$AAv?$AAo?$AAi?$AAd?$AA?5?$AA?$CK?$AA?$CJ?$AA?5?$AA?$DM?$AA?$DN?$AA?5?$AA_?$AAP?$AAt?$AAr?$AA_?$AAu?$AAs?$AAe?$AAr@ ; `string'
PUBLIC	??_C@_0CN@BLHJCAL@_Ptr_user?5?9?5_Ptr_container?5?$DM?$DN?5_N@ ; `string'
PUBLIC	??_C@_1GI@DHJGPFNI@?$AA?$CC?$AA_?$AAP?$AAt?$AAr?$AA_?$AAu?$AAs?$AAe?$AAr?$AA?5?$AA?9?$AA?5?$AA_?$AAP?$AAt?$AAr?$AA_?$AAc?$AAo?$AAn?$AAt?$AAa?$AAi?$AAn?$AAe?$AAr?$AA?5?$AA?$DM?$AA?$DN?$AA?5?$AA_@ ; `string'
PUBLIC	??_C@_00CNPNBAHC@?$AA@				; `string'
PUBLIC	?__LINE__Var@?0??genrand_real@@YANXZ@4JA	; `genrand_real'::`1'::__LINE__Var
PUBLIC	??_C@_1FO@DAPDKFEE@?$AAc?$AA?3?$AA?2?$AAu?$AAs?$AAe?$AAr?$AAs?$AA?2?$AAa?$AAi?$AAr?$AAp?$AA?2?$AAs?$AAo?$AAu?$AAr?$AAc?$AAe?$AA?2?$AAr?$AAe?$AAp?$AAo?$AAs?$AA?2?$AAe?$AAp?$AAi?$AA3?$AA?2@ ; `string'
PUBLIC	??_C@_1BO@HKDOOBLC@?$AAr?$AAn?$AAg?$AA_?$AAi?$AAn?$AAi?$AAt?$AAa?$AAl?$AAi?$AAz?$AAe?$AAd?$AA?$AA@ ; `string'
PUBLIC	??_C@_1IM@NCODKBJH@?$AAc?$AA?3?$AA?2?$AAp?$AAr?$AAo?$AAg?$AAr?$AAa?$AAm?$AA?5?$AAf?$AAi?$AAl?$AAe?$AAs?$AA?5?$AA?$CI?$AAx?$AA8?$AA6?$AA?$CJ?$AA?2?$AAm?$AAi?$AAc?$AAr?$AAo?$AAs?$AAo?$AAf?$AAt@ ; `string'
PUBLIC	??_C@_1DM@LHGCHCBA@?$AAv?$AAe?$AAc?$AAt?$AAo?$AAr?$AA?5?$AAs?$AAu?$AAb?$AAs?$AAc?$AAr?$AAi?$AAp?$AAt?$AA?5?$AAo?$AAu?$AAt?$AA?5?$AAo?$AAf?$AA?5?$AAr?$AAa?$AAn?$AAg?$AAe?$AA?$AA@ ; `string'
PUBLIC	??_C@_0CE@OFMIGAMM@Standard?5C?$CL?$CL?5Libraries?5Out?5of?5Ra@ ; `string'
PUBLIC	??_C@_1FG@IBPIFFN@?$AA?$CC?$AAS?$AAt?$AAa?$AAn?$AAd?$AAa?$AAr?$AAd?$AA?5?$AAC?$AA?$CL?$AA?$CL?$AA?5?$AAL?$AAi?$AAb?$AAr?$AAa?$AAr?$AAi?$AAe?$AAs?$AA?5?$AAO?$AAu?$AAt?$AA?5?$AAo?$AAf?$AA?5?$AAR@ ; `string'
PUBLIC	??_C@_1HO@GLEAPAMD@?$AAs?$AAt?$AAd?$AA?3?$AA?3?$AAv?$AAe?$AAc?$AAt?$AAo?$AAr?$AA?$DM?$AAd?$AAo?$AAu?$AAb?$AAl?$AAe?$AA?0?$AAc?$AAl?$AAa?$AAs?$AAs?$AA?5?$AAs?$AAt?$AAd?$AA?3?$AA?3?$AAa?$AAl@ ; `string'
PUBLIC	??_C@_1BO@MEPPHOO@?$AA?$CC?$AAo?$AAu?$AAt?$AA?5?$AAo?$AAf?$AA?5?$AAr?$AAa?$AAn?$AAg?$AAe?$AA?$CC?$AA?$AA@ ; `string'
PUBLIC	??_C@_1IO@EADHKMNI@?$AAc?$AA?3?$AA?2?$AAp?$AAr?$AAo?$AAg?$AAr?$AAa?$AAm?$AA?5?$AAf?$AAi?$AAl?$AAe?$AAs?$AA?5?$AA?$CI?$AAx?$AA8?$AA6?$AA?$CJ?$AA?2?$AAm?$AAi?$AAc?$AAr?$AAo?$AAs?$AAo?$AAf?$AAt@ ; `string'
PUBLIC	??_C@_0BI@CFPLBAOH@invalid?5string?5position?$AA@ ; `string'
PUBLIC	??_C@_0BA@JFNIOLAK@string?5too?5long?$AA@	; `string'
PUBLIC	??_C@_0HM@GHBBOBBO@c?3?2program?5files?5?$CIx86?$CJ?2microsoft@ ; `string'
PUBLIC	??_C@_1JC@ELNBGKIG@?$AAc?$AA?3?$AA?2?$AAp?$AAr?$AAo?$AAg?$AAr?$AAa?$AAm?$AA?5?$AAf?$AAi?$AAl?$AAe?$AAs?$AA?5?$AA?$CI?$AAx?$AA8?$AA6?$AA?$CJ?$AA?2?$AAm?$AAi?$AAc?$AAr?$AAo?$AAs?$AAo?$AAf?$AAt@ ; `string'
PUBLIC	??_C@_1CK@EOPGIILJ@?$AAi?$AAn?$AAv?$AAa?$AAl?$AAi?$AAd?$AA?5?$AAn?$AAu?$AAl?$AAl?$AA?5?$AAp?$AAo?$AAi?$AAn?$AAt?$AAe?$AAr?$AA?$AA@ ; `string'
PUBLIC	??_C@_1CO@DGLIKNHI@?$AAi?$AAn?$AAv?$AAa?$AAl?$AAi?$AAd?$AA?5?$AAi?$AAt?$AAe?$AAr?$AAa?$AAt?$AAo?$AAr?$AA?5?$AAr?$AAa?$AAn?$AAg?$AAe?$AA?$AA@ ; `string'
PUBLIC	??_C@_1EC@CPHNALLJ@?$AAa?$AAr?$AAr?$AAa?$AAy?$AA?5?$AAi?$AAt?$AAe?$AAr?$AAa?$AAt?$AAo?$AAr?$AA?5?$AAn?$AAo?$AAt?$AA?5?$AAi?$AAn?$AAc?$AAr?$AAe?$AAm?$AAe?$AAn?$AAt?$AAa?$AAb?$AAl?$AAe@ ; `string'
PUBLIC	??_C@_1HC@JIHCMHAL@?$AAs?$AAt?$AAd?$AA?3?$AA?3?$AA_?$AAA?$AAr?$AAr?$AAa?$AAy?$AA_?$AAc?$AAo?$AAn?$AAs?$AAt?$AA_?$AAi?$AAt?$AAe?$AAr?$AAa?$AAt?$AAo?$AAr?$AA?$DM?$AAu?$AAn?$AAs?$AAi?$AAg@ ; `string'
PUBLIC	??_C@_1EE@OHAMEJNE@?$AAa?$AAr?$AAr?$AAa?$AAy?$AA?5?$AAi?$AAt?$AAe?$AAr?$AAa?$AAt?$AAo?$AAr?$AA?5?$AAn?$AAo?$AAt?$AA?5?$AAd?$AAe?$AAr?$AAe?$AAf?$AAe?$AAr?$AAe?$AAn?$AAc?$AAa?$AAb?$AAl@ ; `string'
PUBLIC	??_C@_1HA@CDJJKAOM@?$AAs?$AAt?$AAd?$AA?3?$AA?3?$AA_?$AAA?$AAr?$AAr?$AAa?$AAy?$AA_?$AAc?$AAo?$AAn?$AAs?$AAt?$AA_?$AAi?$AAt?$AAe?$AAr?$AAa?$AAt?$AAo?$AAr?$AA?$DM?$AAu?$AAn?$AAs?$AAi?$AAg@ ; `string'
PUBLIC	??_C@_1DK@DIFJPLMN@?$AAa?$AAr?$AAr?$AAa?$AAy?$AA?5?$AAi?$AAt?$AAe?$AAr?$AAa?$AAt?$AAo?$AAr?$AAs?$AA?5?$AAi?$AAn?$AAc?$AAo?$AAm?$AAp?$AAa?$AAt?$AAi?$AAb?$AAl?$AAe?$AA?$AA@ ; `string'
PUBLIC	??_C@_0CI@FNPHFCCM@Standard?5C?$CL?$CL?5Libraries?5Invalid?5A@ ; `string'
PUBLIC	??_C@_1FO@GJIHNDLM@?$AA?$CC?$AAS?$AAt?$AAa?$AAn?$AAd?$AAa?$AAr?$AAd?$AA?5?$AAC?$AA?$CL?$AA?$CL?$AA?5?$AAL?$AAi?$AAb?$AAr?$AAa?$AAr?$AAi?$AAe?$AAs?$AA?5?$AAI?$AAn?$AAv?$AAa?$AAl?$AAi?$AAd?$AA?5@ ; `string'
PUBLIC	??_C@_1GK@BCGDDFPP@?$AAs?$AAt?$AAd?$AA?3?$AA?3?$AA_?$AAA?$AAr?$AAr?$AAa?$AAy?$AA_?$AAc?$AAo?$AAn?$AAs?$AAt?$AA_?$AAi?$AAt?$AAe?$AAr?$AAa?$AAt?$AAo?$AAr?$AA?$DM?$AAu?$AAn?$AAs?$AAi?$AAg@ ; `string'
PUBLIC	??_C@_0BD@OLBABOEK@vector?$DMT?$DO?5too?5long?$AA@ ; `string'
PUBLIC	??_C@_1JG@ILDNFCDK@?$AAs?$AAt?$AAd?$AA?3?$AA?3?$AAv?$AAe?$AAc?$AAt?$AAo?$AAr?$AA?$DM?$AAu?$AAn?$AAs?$AAi?$AAg?$AAn?$AAe?$AAd?$AA?5?$AAi?$AAn?$AAt?$AA?0?$AAc?$AAl?$AAa?$AAs?$AAs?$AA?5?$AAs@ ; `string'
PUBLIC	??_C@_1IO@KOLLFFAJ@?$AAc?$AA?3?$AA?2?$AAp?$AAr?$AAo?$AAg?$AAr?$AAa?$AAm?$AA?5?$AAf?$AAi?$AAl?$AAe?$AAs?$AA?5?$AA?$CI?$AAx?$AA8?$AA6?$AA?$CJ?$AA?2?$AAm?$AAi?$AAc?$AAr?$AAo?$AAs?$AAo?$AAf?$AAt@ ; `string'
PUBLIC	__real@0000000000000000
PUBLIC	__real@3fe0000000000000
PUBLIC	__real@3ff0000000000000
PUBLIC	__real@4000000000000000
PUBLIC	__real@4049000000000000
PUBLIC	__real@4059000000000000
PUBLIC	__real@43f0000000000000
PUBLIC	__real@7fefffffffffffff
PUBLIC	__xmm@80000000000000008000000000000000
EXTRN	??2@YAPEAX_K@Z:PROC				; operator new
EXTRN	??3@YAXPEAX@Z:PROC				; operator delete
EXTRN	__imp__invalid_parameter:PROC
EXTRN	__imp_??0_Lockit@std@@QEAA@H@Z:PROC
EXTRN	__imp_??1_Lockit@std@@QEAA@XZ:PROC
EXTRN	fabs:PROC
EXTRN	__imp_ceil:PROC
EXTRN	__imp_log2:PROC
EXTRN	memcpy:PROC
EXTRN	__imp_memmove:PROC
EXTRN	strlen:PROC
EXTRN	__imp__CrtDbgReportW:PROC
EXTRN	__imp_?_Debug_message@std@@YAXPEB_W0I@Z:PROC
EXTRN	__imp_?_Xbad_alloc@std@@YAXXZ:PROC
EXTRN	__imp_?_Xlength_error@std@@YAXPEBD@Z:PROC
EXTRN	__imp_?_Xout_of_range@std@@YAXPEBD@Z:PROC
EXTRN	__imp_?_Rng_abort@std@@YAXPEBD@Z:PROC
EXTRN	__imp_?_Random_device@std@@YAIXZ:PROC
EXTRN	__imp__wassert:PROC
EXTRN	_CxxThrowException:PROC
EXTRN	_RTC_InitBase:PROC
EXTRN	_RTC_Shutdown:PROC
EXTRN	__CxxFrameHandler3:PROC
EXTRN	__GSHandlerCheck:PROC
EXTRN	__GSHandlerCheck_EH:PROC
EXTRN	__security_check_cookie:PROC
EXTRN	__security_cookie:QWORD
EXTRN	_fltused:DWORD
_BSS	SEGMENT
	ALIGN	4

?ANX@@3HB DD	01H DUP (?)				; ANX
?ANY@@3HB DD	01H DUP (?)				; ANY
?ANZ@@3HB DD	01H DUP (?)				; ANZ
?mt@@3V?$mersenne_twister_engine@_K$0EA@$0BDI@$0JM@$0BP@$0?EKPNJAKFFGJJOGBH@$0BN@$0FFFFFFFFFFFFFFFF@$0BB@$0HBNGHPPPONKGAAAA@$0CF@$0?IBBCAAAAAAAAA@$0CL@$0FIFBPECNEMJFHPCN@@std@@A DB 01390H DUP (?) ; mt
?rng_real_dist@@3V?$uniform_real_distribution@N@std@@A DB 010H DUP (?) ; rng_real_dist
_BSS	ENDS
;	COMDAT pdata
pdata	SEGMENT
$pdata$?__empty_global_delete@@YAXPEAX@Z DD imagerel $LN3
	DD	imagerel $LN3+19
	DD	imagerel $unwind$?__empty_global_delete@@YAXPEAX@Z
pdata	ENDS
;	COMDAT pdata
pdata	SEGMENT
$pdata$?__empty_global_delete@@YAXPEAX_K@Z DD imagerel $LN3
	DD	imagerel $LN3+24
	DD	imagerel $unwind$?__empty_global_delete@@YAXPEAX_K@Z
pdata	ENDS
;	COMDAT pdata
pdata	SEGMENT
$pdata$?max@?$numeric_limits@N@std@@SANXZ DD imagerel $LN3
	DD	imagerel $LN3+23
	DD	imagerel $unwind$?max@?$numeric_limits@N@std@@SANXZ
pdata	ENDS
;	COMDAT pdata
pdata	SEGMENT
$pdata$??2@YAPEAX_KPEAX@Z DD imagerel $LN3
	DD	imagerel $LN3+28
	DD	imagerel $unwind$??2@YAPEAX_KPEAX@Z
pdata	ENDS
;	COMDAT pdata
pdata	SEGMENT
$pdata$?length@?$char_traits@D@std@@SA_KPEBD@Z DD imagerel $LN5
	DD	imagerel $LN5+59
	DD	imagerel $unwind$?length@?$char_traits@D@std@@SA_KPEBD@Z
pdata	ENDS
;	COMDAT pdata
pdata	SEGMENT
$pdata$?copy@?$char_traits@D@std@@SAPEADPEADPEBD_K@Z DD imagerel $LN5
	DD	imagerel $LN5+73
	DD	imagerel $unwind$?copy@?$char_traits@D@std@@SAPEADPEADPEBD_K@Z
pdata	ENDS
;	COMDAT pdata
pdata	SEGMENT
$pdata$?move@?$char_traits@D@std@@SAPEADPEADPEBD_K@Z DD imagerel $LN5
	DD	imagerel $LN5+74
	DD	imagerel $unwind$?move@?$char_traits@D@std@@SAPEADPEADPEBD_K@Z
pdata	ENDS
;	COMDAT pdata
pdata	SEGMENT
$pdata$?assign@?$char_traits@D@std@@SAXAEADAEBD@Z DD imagerel $LN3
	DD	imagerel $LN3+37
	DD	imagerel $unwind$?assign@?$char_traits@D@std@@SAXAEADAEBD@Z
pdata	ENDS
;	COMDAT pdata
pdata	SEGMENT
$pdata$??0_Container_proxy@std@@QEAA@XZ DD imagerel $LN3
	DD	imagerel $LN3+46
	DD	imagerel $unwind$??0_Container_proxy@std@@QEAA@XZ
pdata	ENDS
;	COMDAT pdata
pdata	SEGMENT
$pdata$??0_Container_base12@std@@QEAA@XZ DD imagerel $LN3
	DD	imagerel $LN3+34
	DD	imagerel $unwind$??0_Container_base12@std@@QEAA@XZ
pdata	ENDS
;	COMDAT pdata
pdata	SEGMENT
$pdata$??1_Container_base12@std@@QEAA@XZ DD imagerel $LN3
	DD	imagerel $LN3+39
	DD	imagerel $unwind$??1_Container_base12@std@@QEAA@XZ
pdata	ENDS
;	COMDAT pdata
pdata	SEGMENT
$pdata$?_Getpfirst@_Container_base12@std@@QEBAPEAPEAU_Iterator_base12@2@XZ DD imagerel $LN5
	DD	imagerel $LN5+58
	DD	imagerel $unwind$?_Getpfirst@_Container_base12@std@@QEBAPEAPEAU_Iterator_base12@2@XZ
pdata	ENDS
;	COMDAT pdata
pdata	SEGMENT
$pdata$?_Orphan_all@_Container_base12@std@@QEAAXXZ DD imagerel $LN8
	DD	imagerel $LN8+161
	DD	imagerel $unwind$?_Orphan_all@_Container_base12@std@@QEAAXXZ
pdata	ENDS
;	COMDAT pdata
pdata	SEGMENT
$pdata$??0_Iterator_base12@std@@QEAA@XZ DD imagerel $LN3
	DD	imagerel $LN3+46
	DD	imagerel $unwind$??0_Iterator_base12@std@@QEAA@XZ
pdata	ENDS
;	COMDAT pdata
pdata	SEGMENT
$pdata$??0_Iterator_base12@std@@QEAA@AEBU01@@Z DD imagerel $LN3
	DD	imagerel $LN3+66
	DD	imagerel $unwind$??0_Iterator_base12@std@@QEAA@AEBU01@@Z
pdata	ENDS
;	COMDAT pdata
pdata	SEGMENT
$pdata$??4_Iterator_base12@std@@QEAAAEAU01@AEBU01@@Z DD imagerel $LN8
	DD	imagerel $LN8+152
	DD	imagerel $unwind$??4_Iterator_base12@std@@QEAAAEAU01@AEBU01@@Z
pdata	ENDS
;	COMDAT pdata
pdata	SEGMENT
$pdata$?dtor$0@?0???4_Iterator_base12@std@@QEAAAEAU01@AEBU01@@Z@4HA DD imagerel ?dtor$0@?0???4_Iterator_base12@std@@QEAAAEAU01@AEBU01@@Z@4HA
	DD	imagerel ?dtor$0@?0???4_Iterator_base12@std@@QEAAAEAU01@AEBU01@@Z@4HA+26
	DD	imagerel $unwind$?dtor$0@?0???4_Iterator_base12@std@@QEAAAEAU01@AEBU01@@Z@4HA
pdata	ENDS
;	COMDAT pdata
pdata	SEGMENT
$pdata$??1_Iterator_base12@std@@QEAA@XZ DD imagerel $LN3
	DD	imagerel $LN3+96
	DD	imagerel $unwind$??1_Iterator_base12@std@@QEAA@XZ
pdata	ENDS
;	COMDAT pdata
pdata	SEGMENT
$pdata$?_Adopt@_Iterator_base12@std@@QEAAXPEBU_Container_base12@2@@Z DD imagerel $LN8
	DD	imagerel $LN8+230
	DD	imagerel $unwind$?_Adopt@_Iterator_base12@std@@QEAAXPEBU_Container_base12@2@@Z
pdata	ENDS
;	COMDAT pdata
pdata	SEGMENT
$pdata$?dtor$0@?0??_Adopt@_Iterator_base12@std@@QEAAXPEBU_Container_base12@2@@Z@4HA DD imagerel ?dtor$0@?0??_Adopt@_Iterator_base12@std@@QEAAXPEBU_Container_base12@2@@Z@4HA
	DD	imagerel ?dtor$0@?0??_Adopt@_Iterator_base12@std@@QEAAXPEBU_Container_base12@2@@Z@4HA+26
	DD	imagerel $unwind$?dtor$0@?0??_Adopt@_Iterator_base12@std@@QEAAXPEBU_Container_base12@2@@Z@4HA
pdata	ENDS
;	COMDAT pdata
pdata	SEGMENT
$pdata$?dtor$1@?0??_Adopt@_Iterator_base12@std@@QEAAXPEBU_Container_base12@2@@Z@4HA DD imagerel ?dtor$1@?0??_Adopt@_Iterator_base12@std@@QEAAXPEBU_Container_base12@2@@Z@4HA
	DD	imagerel ?dtor$1@?0??_Adopt@_Iterator_base12@std@@QEAAXPEBU_Container_base12@2@@Z@4HA+26
	DD	imagerel $unwind$?dtor$1@?0??_Adopt@_Iterator_base12@std@@QEAAXPEBU_Container_base12@2@@Z@4HA
pdata	ENDS
;	COMDAT pdata
pdata	SEGMENT
$pdata$?_Clrcont@_Iterator_base12@std@@QEAAXXZ DD imagerel $LN3
	DD	imagerel $LN3+30
	DD	imagerel $unwind$?_Clrcont@_Iterator_base12@std@@QEAAXXZ
pdata	ENDS
;	COMDAT pdata
pdata	SEGMENT
$pdata$?_Getpnext@_Iterator_base12@std@@QEAAPEAPEAU12@XZ DD imagerel $LN3
	DD	imagerel $LN3+27
	DD	imagerel $unwind$?_Getpnext@_Iterator_base12@std@@QEAAPEAPEAU12@XZ
pdata	ENDS
;	COMDAT pdata
pdata	SEGMENT
$pdata$?_Orphan_me@_Iterator_base12@std@@QEAAXXZ DD imagerel $LN7
	DD	imagerel $LN7+148
	DD	imagerel $unwind$?_Orphan_me@_Iterator_base12@std@@QEAAXXZ
pdata	ENDS
;	COMDAT pdata
pdata	SEGMENT
$pdata$?_Allocate@std@@YAPEAX_K0_N@Z DD imagerel $LN14
	DD	imagerel $LN14+536
	DD	imagerel $unwind$?_Allocate@std@@YAPEAX_K0_N@Z
pdata	ENDS
;	COMDAT pdata
pdata	SEGMENT
$pdata$?_Deallocate@std@@YAXPEAX_K1@Z DD imagerel $LN22
	DD	imagerel $LN22+1036
	DD	imagerel $unwind$?_Deallocate@std@@YAXPEAX_K1@Z
pdata	ENDS
;	COMDAT pdata
pdata	SEGMENT
$pdata$??0?$allocator@D@std@@QEAA@XZ DD imagerel $LN3
	DD	imagerel $LN3+23
	DD	imagerel $unwind$??0?$allocator@D@std@@QEAA@XZ
pdata	ENDS
;	COMDAT pdata
pdata	SEGMENT
$pdata$??0?$allocator@D@std@@QEAA@AEBV01@@Z DD imagerel $LN3
	DD	imagerel $LN3+28
	DD	imagerel $unwind$??0?$allocator@D@std@@QEAA@AEBV01@@Z
pdata	ENDS
;	COMDAT pdata
pdata	SEGMENT
$pdata$?deallocate@?$allocator@D@std@@QEAAXPEAD_K@Z DD imagerel $LN3
	DD	imagerel $LN3+50
	DD	imagerel $unwind$?deallocate@?$allocator@D@std@@QEAAXPEAD_K@Z
pdata	ENDS
;	COMDAT pdata
pdata	SEGMENT
$pdata$?allocate@?$allocator@D@std@@QEAAPEAD_K@Z DD imagerel $LN3
	DD	imagerel $LN3+43
	DD	imagerel $unwind$?allocate@?$allocator@D@std@@QEAAPEAD_K@Z
pdata	ENDS
;	COMDAT pdata
pdata	SEGMENT
$pdata$?max_size@?$allocator@D@std@@QEBA_KXZ DD imagerel $LN3
	DD	imagerel $LN3+26
	DD	imagerel $unwind$?max_size@?$allocator@D@std@@QEBA_KXZ
pdata	ENDS
;	COMDAT pdata
pdata	SEGMENT
$pdata$?max_size@?$allocator_traits@V?$allocator@D@std@@@std@@SA_KAEBV?$allocator@D@2@@Z DD imagerel $LN3
	DD	imagerel $LN3+30
	DD	imagerel $unwind$?max_size@?$allocator_traits@V?$allocator@D@std@@@std@@SA_KAEBV?$allocator@D@2@@Z
pdata	ENDS
;	COMDAT pdata
pdata	SEGMENT
$pdata$??0?$_Wrap_alloc@V?$allocator@D@std@@@std@@QEAA@AEBV?$allocator@D@1@@Z DD imagerel $LN3
	DD	imagerel $LN3+43
	DD	imagerel $unwind$??0?$_Wrap_alloc@V?$allocator@D@std@@@std@@QEAA@AEBV?$allocator@D@1@@Z
pdata	ENDS
;	COMDAT pdata
pdata	SEGMENT
$pdata$?allocate@?$_Wrap_alloc@V?$allocator@D@std@@@std@@QEAAPEAD_K@Z DD imagerel $LN3
	DD	imagerel $LN3+39
	DD	imagerel $unwind$?allocate@?$_Wrap_alloc@V?$allocator@D@std@@@std@@QEAAPEAD_K@Z
pdata	ENDS
;	COMDAT pdata
pdata	SEGMENT
$pdata$?deallocate@?$_Wrap_alloc@V?$allocator@D@std@@@std@@QEAAXPEAD_K@Z DD imagerel $LN3
	DD	imagerel $LN3+48
	DD	imagerel $unwind$?deallocate@?$_Wrap_alloc@V?$allocator@D@std@@@std@@QEAAXPEAD_K@Z
pdata	ENDS
;	COMDAT pdata
pdata	SEGMENT
$pdata$?max_size@?$_Wrap_alloc@V?$allocator@D@std@@@std@@QEBA_KU_Nil@2@@Z DD imagerel $LN3
	DD	imagerel $LN3+34
	DD	imagerel $unwind$?max_size@?$_Wrap_alloc@V?$allocator@D@std@@@std@@QEBA_KU_Nil@2@@Z
pdata	ENDS
;	COMDAT pdata
pdata	SEGMENT
$pdata$??0?$_String_val@U?$_Simple_types@D@std@@@std@@QEAA@XZ DD imagerel $LN4
	DD	imagerel $LN4+58
	DD	imagerel $unwind$??0?$_String_val@U?$_Simple_types@D@std@@@std@@QEAA@XZ
pdata	ENDS
;	COMDAT pdata
pdata	SEGMENT
$pdata$?_Myptr@?$_String_val@U?$_Simple_types@D@std@@@std@@QEAAPEADXZ DD imagerel $LN5
	DD	imagerel $LN5+67
	DD	imagerel $unwind$?_Myptr@?$_String_val@U?$_Simple_types@D@std@@@std@@QEAAPEADXZ
pdata	ENDS
;	COMDAT pdata
pdata	SEGMENT
$pdata$?_Myptr@?$_String_val@U?$_Simple_types@D@std@@@std@@QEBAPEBDXZ DD imagerel $LN5
	DD	imagerel $LN5+67
	DD	imagerel $unwind$?_Myptr@?$_String_val@U?$_Simple_types@D@std@@@std@@QEBAPEBDXZ
pdata	ENDS
;	COMDAT pdata
pdata	SEGMENT
$pdata$??1?$_String_val@U?$_Simple_types@D@std@@@std@@QEAA@XZ DD imagerel $LN3
	DD	imagerel $LN3+30
	DD	imagerel $unwind$??1?$_String_val@U?$_Simple_types@D@std@@@std@@QEAA@XZ
pdata	ENDS
;	COMDAT pdata
pdata	SEGMENT
$pdata$?_Myptr@?$_String_alloc@U?$_String_base_types@DV?$allocator@D@std@@@std@@@std@@QEAAPEADXZ DD imagerel $LN3
	DD	imagerel $LN3+38
	DD	imagerel $unwind$?_Myptr@?$_String_alloc@U?$_String_base_types@DV?$allocator@D@std@@@std@@@std@@QEAAPEADXZ
pdata	ENDS
;	COMDAT pdata
pdata	SEGMENT
$pdata$?_Myptr@?$_String_alloc@U?$_String_base_types@DV?$allocator@D@std@@@std@@@std@@QEBAPEBDXZ DD imagerel $LN3
	DD	imagerel $LN3+38
	DD	imagerel $unwind$?_Myptr@?$_String_alloc@U?$_String_base_types@DV?$allocator@D@std@@@std@@@std@@QEBAPEBDXZ
pdata	ENDS
;	COMDAT pdata
pdata	SEGMENT
$pdata$??0?$_String_alloc@U?$_String_base_types@DV?$allocator@D@std@@@std@@@std@@QEAA@AEBV?$allocator@D@1@@Z DD imagerel $LN4
	DD	imagerel $LN4+69
	DD	imagerel $unwind$??0?$_String_alloc@U?$_String_base_types@DV?$allocator@D@std@@@std@@@std@@QEAA@AEBV?$allocator@D@1@@Z
pdata	ENDS
;	COMDAT pdata
pdata	SEGMENT
$pdata$?dtor$0@?0???0?$_String_alloc@U?$_String_base_types@DV?$allocator@D@std@@@std@@@std@@QEAA@AEBV?$allocator@D@1@@Z@4HA DD imagerel ?dtor$0@?0???0?$_String_alloc@U?$_String_base_types@DV?$allocator@D@std@@@std@@@std@@QEAA@AEBV?$allocator@D@1@@Z@4HA
	DD	imagerel ?dtor$0@?0???0?$_String_alloc@U?$_String_base_types@DV?$allocator@D@std@@@std@@@std@@QEAA@AEBV?$allocator@D@1@@Z@4HA+25
	DD	imagerel $unwind$?dtor$0@?0???0?$_String_alloc@U?$_String_base_types@DV?$allocator@D@std@@@std@@@std@@QEAA@AEBV?$allocator@D@1@@Z@4HA
pdata	ENDS
;	COMDAT pdata
pdata	SEGMENT
$pdata$??1?$_String_alloc@U?$_String_base_types@DV?$allocator@D@std@@@std@@@std@@QEAA@XZ DD imagerel $LN3
	DD	imagerel $LN3+52
	DD	imagerel $unwind$??1?$_String_alloc@U?$_String_base_types@DV?$allocator@D@std@@@std@@@std@@QEAA@XZ
pdata	ENDS
;	COMDAT pdata
pdata	SEGMENT
$pdata$?_Alloc_proxy@?$_String_alloc@U?$_String_base_types@DV?$allocator@D@std@@@std@@@std@@QEAAXXZ DD imagerel $LN3
	DD	imagerel $LN3+193
	DD	imagerel $unwind$?_Alloc_proxy@?$_String_alloc@U?$_String_base_types@DV?$allocator@D@std@@@std@@@std@@QEAAXXZ
pdata	ENDS
;	COMDAT pdata
pdata	SEGMENT
$pdata$?_Free_proxy@?$_String_alloc@U?$_String_base_types@DV?$allocator@D@std@@@std@@@std@@QEAAXXZ DD imagerel $LN3
	DD	imagerel $LN3+141
	DD	imagerel $unwind$?_Free_proxy@?$_String_alloc@U?$_String_base_types@DV?$allocator@D@std@@@std@@@std@@QEAAXXZ
pdata	ENDS
;	COMDAT pdata
pdata	SEGMENT
$pdata$?_Myproxy@?$_String_alloc@U?$_String_base_types@DV?$allocator@D@std@@@std@@@std@@QEAAAEAPEAU_Container_proxy@2@XZ DD imagerel $LN3
	DD	imagerel $LN3+30
	DD	imagerel $unwind$?_Myproxy@?$_String_alloc@U?$_String_base_types@DV?$allocator@D@std@@@std@@@std@@QEAAAEAPEAU_Container_proxy@2@XZ
pdata	ENDS
;	COMDAT pdata
pdata	SEGMENT
$pdata$?_Orphan_all@?$_String_alloc@U?$_String_base_types@DV?$allocator@D@std@@@std@@@std@@QEAAXXZ DD imagerel $LN3
	DD	imagerel $LN3+38
	DD	imagerel $unwind$?_Orphan_all@?$_String_alloc@U?$_String_base_types@DV?$allocator@D@std@@@std@@@std@@QEAAXXZ
pdata	ENDS
;	COMDAT pdata
pdata	SEGMENT
$pdata$?_Getal@?$_String_alloc@U?$_String_base_types@DV?$allocator@D@std@@@std@@@std@@QEAAAEAU?$_Wrap_alloc@V?$allocator@D@std@@@2@XZ DD imagerel $LN3
	DD	imagerel $LN3+33
	DD	imagerel $unwind$?_Getal@?$_String_alloc@U?$_String_base_types@DV?$allocator@D@std@@@std@@@std@@QEAAAEAU?$_Wrap_alloc@V?$allocator@D@std@@@2@XZ
pdata	ENDS
;	COMDAT pdata
pdata	SEGMENT
$pdata$?_Getal@?$_String_alloc@U?$_String_base_types@DV?$allocator@D@std@@@std@@@std@@QEBAAEBU?$_Wrap_alloc@V?$allocator@D@std@@@2@XZ DD imagerel $LN3
	DD	imagerel $LN3+33
	DD	imagerel $unwind$?_Getal@?$_String_alloc@U?$_String_base_types@DV?$allocator@D@std@@@std@@@std@@QEBAAEBU?$_Wrap_alloc@V?$allocator@D@std@@@2@XZ
pdata	ENDS
;	COMDAT pdata
pdata	SEGMENT
$pdata$?_Get_data@?$_String_alloc@U?$_String_base_types@DV?$allocator@D@std@@@std@@@std@@QEAAAEAV?$_String_val@U?$_Simple_types@D@std@@@2@XZ DD imagerel $LN3
	DD	imagerel $LN3+33
	DD	imagerel $unwind$?_Get_data@?$_String_alloc@U?$_String_base_types@DV?$allocator@D@std@@@std@@@std@@QEAAAEAV?$_String_val@U?$_Simple_types@D@std@@@2@XZ
pdata	ENDS
;	COMDAT pdata
pdata	SEGMENT
$pdata$?_Get_data@?$_String_alloc@U?$_String_base_types@DV?$allocator@D@std@@@std@@@std@@QEBAAEBV?$_String_val@U?$_Simple_types@D@std@@@2@XZ DD imagerel $LN3
	DD	imagerel $LN3+33
	DD	imagerel $unwind$?_Get_data@?$_String_alloc@U?$_String_base_types@DV?$allocator@D@std@@@std@@@std@@QEBAAEBV?$_String_val@U?$_Simple_types@D@std@@@2@XZ
pdata	ENDS
;	COMDAT pdata
pdata	SEGMENT
$pdata$?_Bx@?$_String_alloc@U?$_String_base_types@DV?$allocator@D@std@@@std@@@std@@QEAAAEAT_Bxty@?$_String_val@U?$_Simple_types@D@std@@@2@XZ DD imagerel $LN3
	DD	imagerel $LN3+34
	DD	imagerel $unwind$?_Bx@?$_String_alloc@U?$_String_base_types@DV?$allocator@D@std@@@std@@@std@@QEAAAEAT_Bxty@?$_String_val@U?$_Simple_types@D@std@@@2@XZ
pdata	ENDS
;	COMDAT pdata
pdata	SEGMENT
$pdata$?_Mysize@?$_String_alloc@U?$_String_base_types@DV?$allocator@D@std@@@std@@@std@@QEAAAEA_KXZ DD imagerel $LN3
	DD	imagerel $LN3+34
	DD	imagerel $unwind$?_Mysize@?$_String_alloc@U?$_String_base_types@DV?$allocator@D@std@@@std@@@std@@QEAAAEA_KXZ
pdata	ENDS
;	COMDAT pdata
pdata	SEGMENT
$pdata$?_Mysize@?$_String_alloc@U?$_String_base_types@DV?$allocator@D@std@@@std@@@std@@QEBAAEB_KXZ DD imagerel $LN3
	DD	imagerel $LN3+34
	DD	imagerel $unwind$?_Mysize@?$_String_alloc@U?$_String_base_types@DV?$allocator@D@std@@@std@@@std@@QEBAAEB_KXZ
pdata	ENDS
;	COMDAT pdata
pdata	SEGMENT
$pdata$?_Myres@?$_String_alloc@U?$_String_base_types@DV?$allocator@D@std@@@std@@@std@@QEAAAEA_KXZ DD imagerel $LN3
	DD	imagerel $LN3+34
	DD	imagerel $unwind$?_Myres@?$_String_alloc@U?$_String_base_types@DV?$allocator@D@std@@@std@@@std@@QEAAAEA_KXZ
pdata	ENDS
;	COMDAT pdata
pdata	SEGMENT
$pdata$?_Get_first@?$_Compressed_pair@U?$_Wrap_alloc@V?$allocator@D@std@@@std@@V?$_String_val@U?$_Simple_types@D@std@@@2@$00@std@@QEAAAEAU?$_Wrap_alloc@V?$allocator@D@std@@@2@XZ DD imagerel $LN3
	DD	imagerel $LN3+23
	DD	imagerel $unwind$?_Get_first@?$_Compressed_pair@U?$_Wrap_alloc@V?$allocator@D@std@@@std@@V?$_String_val@U?$_Simple_types@D@std@@@2@$00@std@@QEAAAEAU?$_Wrap_alloc@V?$allocator@D@std@@@2@XZ
pdata	ENDS
;	COMDAT pdata
pdata	SEGMENT
$pdata$?_Get_first@?$_Compressed_pair@U?$_Wrap_alloc@V?$allocator@D@std@@@std@@V?$_String_val@U?$_Simple_types@D@std@@@2@$00@std@@QEBAAEBU?$_Wrap_alloc@V?$allocator@D@std@@@2@XZ DD imagerel $LN3
	DD	imagerel $LN3+23
	DD	imagerel $unwind$?_Get_first@?$_Compressed_pair@U?$_Wrap_alloc@V?$allocator@D@std@@@std@@V?$_String_val@U?$_Simple_types@D@std@@@2@$00@std@@QEBAAEBU?$_Wrap_alloc@V?$allocator@D@std@@@2@XZ
pdata	ENDS
;	COMDAT pdata
pdata	SEGMENT
$pdata$?_Get_second@?$_Compressed_pair@U?$_Wrap_alloc@V?$allocator@D@std@@@std@@V?$_String_val@U?$_Simple_types@D@std@@@2@$00@std@@QEAAAEAV?$_String_val@U?$_Simple_types@D@std@@@2@XZ DD imagerel $LN3
	DD	imagerel $LN3+23
	DD	imagerel $unwind$?_Get_second@?$_Compressed_pair@U?$_Wrap_alloc@V?$allocator@D@std@@@std@@V?$_String_val@U?$_Simple_types@D@std@@@2@$00@std@@QEAAAEAV?$_String_val@U?$_Simple_types@D@std@@@2@XZ
pdata	ENDS
;	COMDAT pdata
pdata	SEGMENT
$pdata$?_Get_second@?$_Compressed_pair@U?$_Wrap_alloc@V?$allocator@D@std@@@std@@V?$_String_val@U?$_Simple_types@D@std@@@2@$00@std@@QEBAAEBV?$_String_val@U?$_Simple_types@D@std@@@2@XZ DD imagerel $LN3
	DD	imagerel $LN3+23
	DD	imagerel $unwind$?_Get_second@?$_Compressed_pair@U?$_Wrap_alloc@V?$allocator@D@std@@@std@@V?$_String_val@U?$_Simple_types@D@std@@@2@$00@std@@QEBAAEBV?$_String_val@U?$_Simple_types@D@std@@@2@XZ
pdata	ENDS
;	COMDAT pdata
pdata	SEGMENT
$pdata$??1?$_Compressed_pair@U?$_Wrap_alloc@V?$allocator@D@std@@@std@@V?$_String_val@U?$_Simple_types@D@std@@@2@$00@std@@QEAA@XZ DD imagerel $LN3
	DD	imagerel $LN3+33
	DD	imagerel $unwind$??1?$_Compressed_pair@U?$_Wrap_alloc@V?$allocator@D@std@@@std@@V?$_String_val@U?$_Simple_types@D@std@@@2@$00@std@@QEAA@XZ
pdata	ENDS
;	COMDAT pdata
pdata	SEGMENT
$pdata$??0?$basic_string@DU?$char_traits@D@std@@V?$allocator@D@2@@std@@QEAA@PEBD@Z DD imagerel $LN4
	DD	imagerel $LN4+88
	DD	imagerel $unwind$??0?$basic_string@DU?$char_traits@D@std@@V?$allocator@D@2@@std@@QEAA@PEBD@Z
pdata	ENDS
;	COMDAT pdata
pdata	SEGMENT
$pdata$?dtor$0@?0???0?$basic_string@DU?$char_traits@D@std@@V?$allocator@D@2@@std@@QEAA@PEBD@Z@4HA DD imagerel ?dtor$0@?0???0?$basic_string@DU?$char_traits@D@std@@V?$allocator@D@2@@std@@QEAA@PEBD@Z@4HA
	DD	imagerel ?dtor$0@?0???0?$basic_string@DU?$char_traits@D@std@@V?$allocator@D@2@@std@@QEAA@PEBD@Z@4HA+25
	DD	imagerel $unwind$?dtor$0@?0???0?$basic_string@DU?$char_traits@D@std@@V?$allocator@D@2@@std@@QEAA@PEBD@Z@4HA
pdata	ENDS
;	COMDAT pdata
pdata	SEGMENT
$pdata$??1?$basic_string@DU?$char_traits@D@std@@V?$allocator@D@2@@std@@QEAA@XZ DD imagerel $LN3
	DD	imagerel $LN3+54
	DD	imagerel $unwind$??1?$basic_string@DU?$char_traits@D@std@@V?$allocator@D@2@@std@@QEAA@XZ
pdata	ENDS
;	COMDAT pdata
pdata	SEGMENT
$pdata$?assign@?$basic_string@DU?$char_traits@D@std@@V?$allocator@D@2@@std@@QEAAAEAV12@AEBV12@_K1@Z DD imagerel $LN8
	DD	imagerel $LN8+233
	DD	imagerel $unwind$?assign@?$basic_string@DU?$char_traits@D@std@@V?$allocator@D@2@@std@@QEAAAEAV12@AEBV12@_K1@Z
pdata	ENDS
;	COMDAT pdata
pdata	SEGMENT
$pdata$?assign@?$basic_string@DU?$char_traits@D@std@@V?$allocator@D@2@@std@@QEAAAEAV12@PEBD_K@Z DD imagerel $LN7
	DD	imagerel $LN7+200
	DD	imagerel $unwind$?assign@?$basic_string@DU?$char_traits@D@std@@V?$allocator@D@2@@std@@QEAAAEAV12@PEBD_K@Z
pdata	ENDS
;	COMDAT pdata
pdata	SEGMENT
$pdata$?assign@?$basic_string@DU?$char_traits@D@std@@V?$allocator@D@2@@std@@QEAAAEAV12@PEBD@Z DD imagerel $LN3
	DD	imagerel $LN3+73
	DD	imagerel $unwind$?assign@?$basic_string@DU?$char_traits@D@std@@V?$allocator@D@2@@std@@QEAAAEAV12@PEBD@Z
pdata	ENDS
;	COMDAT pdata
pdata	SEGMENT
$pdata$?erase@?$basic_string@DU?$char_traits@D@std@@V?$allocator@D@2@@std@@QEAAAEAV12@_K@Z DD imagerel $LN4
	DD	imagerel $LN4+70
	DD	imagerel $unwind$?erase@?$basic_string@DU?$char_traits@D@std@@V?$allocator@D@2@@std@@QEAAAEAV12@_K@Z
pdata	ENDS
;	COMDAT pdata
pdata	SEGMENT
$pdata$?erase@?$basic_string@DU?$char_traits@D@std@@V?$allocator@D@2@@std@@QEAAAEAV12@_K0@Z DD imagerel $LN7
	DD	imagerel $LN7+205
	DD	imagerel $unwind$?erase@?$basic_string@DU?$char_traits@D@std@@V?$allocator@D@2@@std@@QEAAAEAV12@_K0@Z
pdata	ENDS
;	COMDAT pdata
pdata	SEGMENT
$pdata$?size@?$basic_string@DU?$char_traits@D@std@@V?$allocator@D@2@@std@@QEBA_KXZ DD imagerel $LN3
	DD	imagerel $LN3+33
	DD	imagerel $unwind$?size@?$basic_string@DU?$char_traits@D@std@@V?$allocator@D@2@@std@@QEBA_KXZ
pdata	ENDS
;	COMDAT pdata
pdata	SEGMENT
$pdata$?max_size@?$basic_string@DU?$char_traits@D@std@@V?$allocator@D@2@@std@@QEBA_KXZ DD imagerel $LN5
	DD	imagerel $LN5+81
	DD	imagerel $unwind$?max_size@?$basic_string@DU?$char_traits@D@std@@V?$allocator@D@2@@std@@QEBA_KXZ
pdata	ENDS
;	COMDAT pdata
pdata	SEGMENT
$pdata$?_Copy@?$basic_string@DU?$char_traits@D@std@@V?$allocator@D@2@@std@@QEAAX_K0@Z DD imagerel $LN23
	DD	imagerel $LN23+515
	DD	imagerel $unwind$?_Copy@?$basic_string@DU?$char_traits@D@std@@V?$allocator@D@2@@std@@QEAAX_K0@Z
pdata	ENDS
;	COMDAT pdata
pdata	SEGMENT
$pdata$?catch$1@?0??_Copy@?$basic_string@DU?$char_traits@D@std@@V?$allocator@D@2@@std@@QEAAX_K0@Z@4HA DD imagerel ?catch$1@?0??_Copy@?$basic_string@DU?$char_traits@D@std@@V?$allocator@D@2@@std@@QEAAX_K0@Z@4HA
	DD	imagerel ?catch$1@?0??_Copy@?$basic_string@DU?$char_traits@D@std@@V?$allocator@D@2@@std@@QEAAX_K0@Z@4HA+91
	DD	imagerel $unwind$?catch$1@?0??_Copy@?$basic_string@DU?$char_traits@D@std@@V?$allocator@D@2@@std@@QEAAX_K0@Z@4HA
pdata	ENDS
;	COMDAT pdata
pdata	SEGMENT
$pdata$?catch$0@?0??_Copy@?$basic_string@DU?$char_traits@D@std@@V?$allocator@D@2@@std@@QEAAX_K0@Z@4HA DD imagerel ?catch$0@?0??_Copy@?$basic_string@DU?$char_traits@D@std@@V?$allocator@D@2@@std@@QEAAX_K0@Z@4HA
	DD	imagerel ?catch$0@?0??_Copy@?$basic_string@DU?$char_traits@D@std@@V?$allocator@D@2@@std@@QEAAX_K0@Z@4HA+55
	DD	imagerel $unwind$?catch$0@?0??_Copy@?$basic_string@DU?$char_traits@D@std@@V?$allocator@D@2@@std@@QEAAX_K0@Z@4HA
pdata	ENDS
;	COMDAT pdata
pdata	SEGMENT
$pdata$?_Eos@?$basic_string@DU?$char_traits@D@std@@V?$allocator@D@2@@std@@QEAAX_K@Z DD imagerel $LN3
	DD	imagerel $LN3+74
	DD	imagerel $unwind$?_Eos@?$basic_string@DU?$char_traits@D@std@@V?$allocator@D@2@@std@@QEAAX_K@Z
pdata	ENDS
;	COMDAT pdata
pdata	SEGMENT
$pdata$?_Grow@?$basic_string@DU?$char_traits@D@std@@V?$allocator@D@2@@std@@QEAA_N_K_N@Z DD imagerel $LN13
	DD	imagerel $LN13+221
	DD	imagerel $unwind$?_Grow@?$basic_string@DU?$char_traits@D@std@@V?$allocator@D@2@@std@@QEAA_N_K_N@Z
pdata	ENDS
;	COMDAT pdata
pdata	SEGMENT
$pdata$?_Inside@?$basic_string@DU?$char_traits@D@std@@V?$allocator@D@2@@std@@QEAA_NPEBD@Z DD imagerel $LN6
	DD	imagerel $LN6+94
	DD	imagerel $unwind$?_Inside@?$basic_string@DU?$char_traits@D@std@@V?$allocator@D@2@@std@@QEAA_NPEBD@Z
pdata	ENDS
;	COMDAT pdata
pdata	SEGMENT
$pdata$?_Tidy@?$basic_string@DU?$char_traits@D@std@@V?$allocator@D@2@@std@@QEAAX_N_K@Z DD imagerel $LN7
	DD	imagerel $LN7+239
	DD	imagerel $unwind$?_Tidy@?$basic_string@DU?$char_traits@D@std@@V?$allocator@D@2@@std@@QEAAX_N_K@Z
pdata	ENDS
;	COMDAT pdata
pdata	SEGMENT
$pdata$?_Xlen@?$basic_string@DU?$char_traits@D@std@@V?$allocator@D@2@@std@@QEBAXXZ DD imagerel $LN3
	DD	imagerel $LN3+34
	DD	imagerel $unwind$?_Xlen@?$basic_string@DU?$char_traits@D@std@@V?$allocator@D@2@@std@@QEBAXXZ
pdata	ENDS
;	COMDAT pdata
pdata	SEGMENT
$pdata$?_Xran@?$basic_string@DU?$char_traits@D@std@@V?$allocator@D@2@@std@@QEBAXXZ DD imagerel $LN3
	DD	imagerel $LN3+34
	DD	imagerel $unwind$?_Xran@?$basic_string@DU?$char_traits@D@std@@V?$allocator@D@2@@std@@QEBAXXZ
pdata	ENDS
;	COMDAT pdata
pdata	SEGMENT
$pdata$??__EANX@@YAXXZ DD imagerel ??__EANX@@YAXXZ
	DD	imagerel ??__EANX@@YAXXZ+49
	DD	imagerel $unwind$??__EANX@@YAXXZ
pdata	ENDS
;	COMDAT pdata
pdata	SEGMENT
$pdata$??__EANY@@YAXXZ DD imagerel ??__EANY@@YAXXZ
	DD	imagerel ??__EANY@@YAXXZ+49
	DD	imagerel $unwind$??__EANY@@YAXXZ
pdata	ENDS
;	COMDAT pdata
pdata	SEGMENT
$pdata$??__EANZ@@YAXXZ DD imagerel ??__EANZ@@YAXXZ
	DD	imagerel ??__EANZ@@YAXXZ+41
	DD	imagerel $unwind$??__EANZ@@YAXXZ
pdata	ENDS
;	COMDAT pdata
pdata	SEGMENT
$pdata$?_Xor27@seed_seq@std@@AEBAII@Z DD imagerel $LN3
	DD	imagerel $LN3+36
	DD	imagerel $unwind$?_Xor27@seed_seq@std@@AEBAII@Z
pdata	ENDS
;	COMDAT pdata
pdata	SEGMENT
$pdata$??0?$allocator@I@std@@QEAA@XZ DD imagerel $LN3
	DD	imagerel $LN3+23
	DD	imagerel $unwind$??0?$allocator@I@std@@QEAA@XZ
pdata	ENDS
;	COMDAT pdata
pdata	SEGMENT
$pdata$??0?$allocator@I@std@@QEAA@AEBV01@@Z DD imagerel $LN3
	DD	imagerel $LN3+28
	DD	imagerel $unwind$??0?$allocator@I@std@@QEAA@AEBV01@@Z
pdata	ENDS
;	COMDAT pdata
pdata	SEGMENT
$pdata$?deallocate@?$allocator@I@std@@QEAAXPEAI_K@Z DD imagerel $LN3
	DD	imagerel $LN3+50
	DD	imagerel $unwind$?deallocate@?$allocator@I@std@@QEAAXPEAI_K@Z
pdata	ENDS
;	COMDAT pdata
pdata	SEGMENT
$pdata$?allocate@?$allocator@I@std@@QEAAPEAI_K@Z DD imagerel $LN3
	DD	imagerel $LN3+43
	DD	imagerel $unwind$?allocate@?$allocator@I@std@@QEAAPEAI_K@Z
pdata	ENDS
;	COMDAT pdata
pdata	SEGMENT
$pdata$?max_size@?$allocator@I@std@@QEBA_KXZ DD imagerel $LN3
	DD	imagerel $LN3+29
	DD	imagerel $unwind$?max_size@?$allocator@I@std@@QEBA_KXZ
pdata	ENDS
;	COMDAT pdata
pdata	SEGMENT
$pdata$?max_size@?$allocator_traits@V?$allocator@I@std@@@std@@SA_KAEBV?$allocator@I@2@@Z DD imagerel $LN3
	DD	imagerel $LN3+30
	DD	imagerel $unwind$?max_size@?$allocator_traits@V?$allocator@I@std@@@std@@SA_KAEBV?$allocator@I@2@@Z
pdata	ENDS
;	COMDAT pdata
pdata	SEGMENT
$pdata$??0?$_Wrap_alloc@V?$allocator@I@std@@@std@@QEAA@AEBV?$allocator@I@1@@Z DD imagerel $LN3
	DD	imagerel $LN3+43
	DD	imagerel $unwind$??0?$_Wrap_alloc@V?$allocator@I@std@@@std@@QEAA@AEBV?$allocator@I@1@@Z
pdata	ENDS
;	COMDAT pdata
pdata	SEGMENT
$pdata$?allocate@?$_Wrap_alloc@V?$allocator@I@std@@@std@@QEAAPEAI_K@Z DD imagerel $LN3
	DD	imagerel $LN3+39
	DD	imagerel $unwind$?allocate@?$_Wrap_alloc@V?$allocator@I@std@@@std@@QEAAPEAI_K@Z
pdata	ENDS
;	COMDAT pdata
pdata	SEGMENT
$pdata$?deallocate@?$_Wrap_alloc@V?$allocator@I@std@@@std@@QEAAXPEAI_K@Z DD imagerel $LN3
	DD	imagerel $LN3+48
	DD	imagerel $unwind$?deallocate@?$_Wrap_alloc@V?$allocator@I@std@@@std@@QEAAXPEAI_K@Z
pdata	ENDS
;	COMDAT pdata
pdata	SEGMENT
$pdata$?max_size@?$_Wrap_alloc@V?$allocator@I@std@@@std@@QEBA_KU_Nil@2@@Z DD imagerel $LN3
	DD	imagerel $LN3+34
	DD	imagerel $unwind$?max_size@?$_Wrap_alloc@V?$allocator@I@std@@@std@@QEBA_KU_Nil@2@@Z
pdata	ENDS
;	COMDAT pdata
pdata	SEGMENT
$pdata$??0?$_Vector_alloc@U?$_Vec_base_types@IV?$allocator@I@std@@@std@@@std@@QEAA@AEBV?$allocator@I@1@@Z DD imagerel $LN4
	DD	imagerel $LN4+69
	DD	imagerel $unwind$??0?$_Vector_alloc@U?$_Vec_base_types@IV?$allocator@I@std@@@std@@@std@@QEAA@AEBV?$allocator@I@1@@Z
pdata	ENDS
;	COMDAT pdata
pdata	SEGMENT
$pdata$?dtor$0@?0???0?$_Vector_alloc@U?$_Vec_base_types@IV?$allocator@I@std@@@std@@@std@@QEAA@AEBV?$allocator@I@1@@Z@4HA DD imagerel ?dtor$0@?0???0?$_Vector_alloc@U?$_Vec_base_types@IV?$allocator@I@std@@@std@@@std@@QEAA@AEBV?$allocator@I@1@@Z@4HA
	DD	imagerel ?dtor$0@?0???0?$_Vector_alloc@U?$_Vec_base_types@IV?$allocator@I@std@@@std@@@std@@QEAA@AEBV?$allocator@I@1@@Z@4HA+25
	DD	imagerel $unwind$?dtor$0@?0???0?$_Vector_alloc@U?$_Vec_base_types@IV?$allocator@I@std@@@std@@@std@@QEAA@AEBV?$allocator@I@1@@Z@4HA
pdata	ENDS
;	COMDAT pdata
pdata	SEGMENT
$pdata$??1?$_Vector_alloc@U?$_Vec_base_types@IV?$allocator@I@std@@@std@@@std@@QEAA@XZ DD imagerel $LN3
	DD	imagerel $LN3+52
	DD	imagerel $unwind$??1?$_Vector_alloc@U?$_Vec_base_types@IV?$allocator@I@std@@@std@@@std@@QEAA@XZ
pdata	ENDS
;	COMDAT pdata
pdata	SEGMENT
$pdata$?_Alloc_proxy@?$_Vector_alloc@U?$_Vec_base_types@IV?$allocator@I@std@@@std@@@std@@QEAAXXZ DD imagerel $LN3
	DD	imagerel $LN3+193
	DD	imagerel $unwind$?_Alloc_proxy@?$_Vector_alloc@U?$_Vec_base_types@IV?$allocator@I@std@@@std@@@std@@QEAAXXZ
pdata	ENDS
;	COMDAT pdata
pdata	SEGMENT
$pdata$?_Free_proxy@?$_Vector_alloc@U?$_Vec_base_types@IV?$allocator@I@std@@@std@@@std@@QEAAXXZ DD imagerel $LN3
	DD	imagerel $LN3+141
	DD	imagerel $unwind$?_Free_proxy@?$_Vector_alloc@U?$_Vec_base_types@IV?$allocator@I@std@@@std@@@std@@QEAAXXZ
pdata	ENDS
;	COMDAT pdata
pdata	SEGMENT
$pdata$?_Getpfirst@?$_Vector_alloc@U?$_Vec_base_types@IV?$allocator@I@std@@@std@@@std@@QEBAPEAPEAU_Iterator_base12@2@XZ DD imagerel $LN3
	DD	imagerel $LN3+38
	DD	imagerel $unwind$?_Getpfirst@?$_Vector_alloc@U?$_Vec_base_types@IV?$allocator@I@std@@@std@@@std@@QEBAPEAPEAU_Iterator_base12@2@XZ
pdata	ENDS
;	COMDAT pdata
pdata	SEGMENT
$pdata$?_Myproxy@?$_Vector_alloc@U?$_Vec_base_types@IV?$allocator@I@std@@@std@@@std@@QEAAAEAPEAU_Container_proxy@2@XZ DD imagerel $LN3
	DD	imagerel $LN3+30
	DD	imagerel $unwind$?_Myproxy@?$_Vector_alloc@U?$_Vec_base_types@IV?$allocator@I@std@@@std@@@std@@QEAAAEAPEAU_Container_proxy@2@XZ
pdata	ENDS
;	COMDAT pdata
pdata	SEGMENT
$pdata$?_Orphan_all@?$_Vector_alloc@U?$_Vec_base_types@IV?$allocator@I@std@@@std@@@std@@QEAAXXZ DD imagerel $LN3
	DD	imagerel $LN3+38
	DD	imagerel $unwind$?_Orphan_all@?$_Vector_alloc@U?$_Vec_base_types@IV?$allocator@I@std@@@std@@@std@@QEAAXXZ
pdata	ENDS
;	COMDAT pdata
pdata	SEGMENT
$pdata$?_Getal@?$_Vector_alloc@U?$_Vec_base_types@IV?$allocator@I@std@@@std@@@std@@QEAAAEAU?$_Wrap_alloc@V?$allocator@I@std@@@2@XZ DD imagerel $LN3
	DD	imagerel $LN3+33
	DD	imagerel $unwind$?_Getal@?$_Vector_alloc@U?$_Vec_base_types@IV?$allocator@I@std@@@std@@@std@@QEAAAEAU?$_Wrap_alloc@V?$allocator@I@std@@@2@XZ
pdata	ENDS
;	COMDAT pdata
pdata	SEGMENT
$pdata$?_Getal@?$_Vector_alloc@U?$_Vec_base_types@IV?$allocator@I@std@@@std@@@std@@QEBAAEBU?$_Wrap_alloc@V?$allocator@I@std@@@2@XZ DD imagerel $LN3
	DD	imagerel $LN3+33
	DD	imagerel $unwind$?_Getal@?$_Vector_alloc@U?$_Vec_base_types@IV?$allocator@I@std@@@std@@@std@@QEBAAEBU?$_Wrap_alloc@V?$allocator@I@std@@@2@XZ
pdata	ENDS
;	COMDAT pdata
pdata	SEGMENT
$pdata$?_Get_data@?$_Vector_alloc@U?$_Vec_base_types@IV?$allocator@I@std@@@std@@@std@@QEAAAEAV?$_Vector_val@U?$_Simple_types@I@std@@@2@XZ DD imagerel $LN3
	DD	imagerel $LN3+33
	DD	imagerel $unwind$?_Get_data@?$_Vector_alloc@U?$_Vec_base_types@IV?$allocator@I@std@@@std@@@std@@QEAAAEAV?$_Vector_val@U?$_Simple_types@I@std@@@2@XZ
pdata	ENDS
;	COMDAT pdata
pdata	SEGMENT
$pdata$?_Get_data@?$_Vector_alloc@U?$_Vec_base_types@IV?$allocator@I@std@@@std@@@std@@QEBAAEBV?$_Vector_val@U?$_Simple_types@I@std@@@2@XZ DD imagerel $LN3
	DD	imagerel $LN3+33
	DD	imagerel $unwind$?_Get_data@?$_Vector_alloc@U?$_Vec_base_types@IV?$allocator@I@std@@@std@@@std@@QEBAAEBV?$_Vector_val@U?$_Simple_types@I@std@@@2@XZ
pdata	ENDS
;	COMDAT pdata
pdata	SEGMENT
$pdata$?_Myfirst@?$_Vector_alloc@U?$_Vec_base_types@IV?$allocator@I@std@@@std@@@std@@QEAAAEAPEAIXZ DD imagerel $LN3
	DD	imagerel $LN3+34
	DD	imagerel $unwind$?_Myfirst@?$_Vector_alloc@U?$_Vec_base_types@IV?$allocator@I@std@@@std@@@std@@QEAAAEAPEAIXZ
pdata	ENDS
;	COMDAT pdata
pdata	SEGMENT
$pdata$?_Myfirst@?$_Vector_alloc@U?$_Vec_base_types@IV?$allocator@I@std@@@std@@@std@@QEBAAEBQEAIXZ DD imagerel $LN3
	DD	imagerel $LN3+34
	DD	imagerel $unwind$?_Myfirst@?$_Vector_alloc@U?$_Vec_base_types@IV?$allocator@I@std@@@std@@@std@@QEBAAEBQEAIXZ
pdata	ENDS
;	COMDAT pdata
pdata	SEGMENT
$pdata$?_Mylast@?$_Vector_alloc@U?$_Vec_base_types@IV?$allocator@I@std@@@std@@@std@@QEAAAEAPEAIXZ DD imagerel $LN3
	DD	imagerel $LN3+34
	DD	imagerel $unwind$?_Mylast@?$_Vector_alloc@U?$_Vec_base_types@IV?$allocator@I@std@@@std@@@std@@QEAAAEAPEAIXZ
pdata	ENDS
;	COMDAT pdata
pdata	SEGMENT
$pdata$?_Mylast@?$_Vector_alloc@U?$_Vec_base_types@IV?$allocator@I@std@@@std@@@std@@QEBAAEBQEAIXZ DD imagerel $LN3
	DD	imagerel $LN3+34
	DD	imagerel $unwind$?_Mylast@?$_Vector_alloc@U?$_Vec_base_types@IV?$allocator@I@std@@@std@@@std@@QEBAAEBQEAIXZ
pdata	ENDS
;	COMDAT pdata
pdata	SEGMENT
$pdata$?_Myend@?$_Vector_alloc@U?$_Vec_base_types@IV?$allocator@I@std@@@std@@@std@@QEAAAEAPEAIXZ DD imagerel $LN3
	DD	imagerel $LN3+34
	DD	imagerel $unwind$?_Myend@?$_Vector_alloc@U?$_Vec_base_types@IV?$allocator@I@std@@@std@@@std@@QEAAAEAPEAIXZ
pdata	ENDS
;	COMDAT pdata
pdata	SEGMENT
$pdata$?_Myend@?$_Vector_alloc@U?$_Vec_base_types@IV?$allocator@I@std@@@std@@@std@@QEBAAEBQEAIXZ DD imagerel $LN3
	DD	imagerel $LN3+34
	DD	imagerel $unwind$?_Myend@?$_Vector_alloc@U?$_Vec_base_types@IV?$allocator@I@std@@@std@@@std@@QEBAAEBQEAIXZ
pdata	ENDS
;	COMDAT pdata
pdata	SEGMENT
$pdata$??0?$_Vector_val@U?$_Simple_types@I@std@@@std@@QEAA@XZ DD imagerel $LN4
	DD	imagerel $LN4+70
	DD	imagerel $unwind$??0?$_Vector_val@U?$_Simple_types@I@std@@@std@@QEAA@XZ
pdata	ENDS
;	COMDAT pdata
pdata	SEGMENT
$pdata$??1?$_Vector_val@U?$_Simple_types@I@std@@@std@@QEAA@XZ DD imagerel $LN3
	DD	imagerel $LN3+30
	DD	imagerel $unwind$??1?$_Vector_val@U?$_Simple_types@I@std@@@std@@QEAA@XZ
pdata	ENDS
;	COMDAT pdata
pdata	SEGMENT
$pdata$?_Get_first@?$_Compressed_pair@U?$_Wrap_alloc@V?$allocator@I@std@@@std@@V?$_Vector_val@U?$_Simple_types@I@std@@@2@$00@std@@QEAAAEAU?$_Wrap_alloc@V?$allocator@I@std@@@2@XZ DD imagerel $LN3
	DD	imagerel $LN3+23
	DD	imagerel $unwind$?_Get_first@?$_Compressed_pair@U?$_Wrap_alloc@V?$allocator@I@std@@@std@@V?$_Vector_val@U?$_Simple_types@I@std@@@2@$00@std@@QEAAAEAU?$_Wrap_alloc@V?$allocator@I@std@@@2@XZ
pdata	ENDS
;	COMDAT pdata
pdata	SEGMENT
$pdata$?_Get_first@?$_Compressed_pair@U?$_Wrap_alloc@V?$allocator@I@std@@@std@@V?$_Vector_val@U?$_Simple_types@I@std@@@2@$00@std@@QEBAAEBU?$_Wrap_alloc@V?$allocator@I@std@@@2@XZ DD imagerel $LN3
	DD	imagerel $LN3+23
	DD	imagerel $unwind$?_Get_first@?$_Compressed_pair@U?$_Wrap_alloc@V?$allocator@I@std@@@std@@V?$_Vector_val@U?$_Simple_types@I@std@@@2@$00@std@@QEBAAEBU?$_Wrap_alloc@V?$allocator@I@std@@@2@XZ
pdata	ENDS
;	COMDAT pdata
pdata	SEGMENT
$pdata$?_Get_second@?$_Compressed_pair@U?$_Wrap_alloc@V?$allocator@I@std@@@std@@V?$_Vector_val@U?$_Simple_types@I@std@@@2@$00@std@@QEAAAEAV?$_Vector_val@U?$_Simple_types@I@std@@@2@XZ DD imagerel $LN3
	DD	imagerel $LN3+23
	DD	imagerel $unwind$?_Get_second@?$_Compressed_pair@U?$_Wrap_alloc@V?$allocator@I@std@@@std@@V?$_Vector_val@U?$_Simple_types@I@std@@@2@$00@std@@QEAAAEAV?$_Vector_val@U?$_Simple_types@I@std@@@2@XZ
pdata	ENDS
;	COMDAT pdata
pdata	SEGMENT
$pdata$?_Get_second@?$_Compressed_pair@U?$_Wrap_alloc@V?$allocator@I@std@@@std@@V?$_Vector_val@U?$_Simple_types@I@std@@@2@$00@std@@QEBAAEBV?$_Vector_val@U?$_Simple_types@I@std@@@2@XZ DD imagerel $LN3
	DD	imagerel $LN3+23
	DD	imagerel $unwind$?_Get_second@?$_Compressed_pair@U?$_Wrap_alloc@V?$allocator@I@std@@@std@@V?$_Vector_val@U?$_Simple_types@I@std@@@2@$00@std@@QEBAAEBV?$_Vector_val@U?$_Simple_types@I@std@@@2@XZ
pdata	ENDS
;	COMDAT pdata
pdata	SEGMENT
$pdata$??1?$_Compressed_pair@U?$_Wrap_alloc@V?$allocator@I@std@@@std@@V?$_Vector_val@U?$_Simple_types@I@std@@@2@$00@std@@QEAA@XZ DD imagerel $LN3
	DD	imagerel $LN3+33
	DD	imagerel $unwind$??1?$_Compressed_pair@U?$_Wrap_alloc@V?$allocator@I@std@@@std@@V?$_Vector_val@U?$_Simple_types@I@std@@@2@$00@std@@QEAA@XZ
pdata	ENDS
;	COMDAT pdata
pdata	SEGMENT
$pdata$??0?$vector@IV?$allocator@I@std@@@std@@QEAA@XZ DD imagerel $LN3
	DD	imagerel $LN3+56
	DD	imagerel $unwind$??0?$vector@IV?$allocator@I@std@@@std@@QEAA@XZ
pdata	ENDS
;	COMDAT pdata
pdata	SEGMENT
$pdata$??1?$vector@IV?$allocator@I@std@@@std@@QEAA@XZ DD imagerel $LN3
	DD	imagerel $LN3+49
	DD	imagerel $unwind$??1?$vector@IV?$allocator@I@std@@@std@@QEAA@XZ
pdata	ENDS
;	COMDAT pdata
pdata	SEGMENT
$pdata$?capacity@?$vector@IV?$allocator@I@std@@@std@@QEBA_KXZ DD imagerel $LN3
	DD	imagerel $LN3+63
	DD	imagerel $unwind$?capacity@?$vector@IV?$allocator@I@std@@@std@@QEBA_KXZ
pdata	ENDS
;	COMDAT pdata
pdata	SEGMENT
$pdata$?_Unused_capacity@?$vector@IV?$allocator@I@std@@@std@@QEBA_KXZ DD imagerel $LN3
	DD	imagerel $LN3+63
	DD	imagerel $unwind$?_Unused_capacity@?$vector@IV?$allocator@I@std@@@std@@QEBA_KXZ
pdata	ENDS
;	COMDAT pdata
pdata	SEGMENT
$pdata$?size@?$vector@IV?$allocator@I@std@@@std@@QEBA_KXZ DD imagerel $LN3
	DD	imagerel $LN3+63
	DD	imagerel $unwind$?size@?$vector@IV?$allocator@I@std@@@std@@QEBA_KXZ
pdata	ENDS
;	COMDAT pdata
pdata	SEGMENT
$pdata$?max_size@?$vector@IV?$allocator@I@std@@@std@@QEBA_KXZ DD imagerel $LN3
	DD	imagerel $LN3+42
	DD	imagerel $unwind$?max_size@?$vector@IV?$allocator@I@std@@@std@@QEBA_KXZ
pdata	ENDS
;	COMDAT pdata
pdata	SEGMENT
$pdata$??A?$vector@IV?$allocator@I@std@@@std@@QEBAAEBI_K@Z DD imagerel $LN6
	DD	imagerel $LN6+210
	DD	imagerel $unwind$??A?$vector@IV?$allocator@I@std@@@std@@QEBAAEBI_K@Z
pdata	ENDS
;	COMDAT pdata
pdata	SEGMENT
$pdata$?push_back@?$vector@IV?$allocator@I@std@@@std@@QEAAXAEBI@Z DD imagerel $LN7
	DD	imagerel $LN7+455
	DD	imagerel $unwind$?push_back@?$vector@IV?$allocator@I@std@@@std@@QEAAXAEBI@Z
pdata	ENDS
;	COMDAT pdata
pdata	SEGMENT
$pdata$?_Destroy@?$vector@IV?$allocator@I@std@@@std@@IEAAXPEAI0@Z DD imagerel $LN3
	DD	imagerel $LN3+56
	DD	imagerel $unwind$?_Destroy@?$vector@IV?$allocator@I@std@@@std@@IEAAXPEAI0@Z
pdata	ENDS
;	COMDAT pdata
pdata	SEGMENT
$pdata$?_Grow_to@?$vector@IV?$allocator@I@std@@@std@@IEBA_K_K@Z DD imagerel $LN6
	DD	imagerel $LN6+153
	DD	imagerel $unwind$?_Grow_to@?$vector@IV?$allocator@I@std@@@std@@IEBA_K_K@Z
pdata	ENDS
;	COMDAT pdata
pdata	SEGMENT
$pdata$?_Inside@?$vector@IV?$allocator@I@std@@@std@@IEBA_NPEBI@Z DD imagerel $LN5
	DD	imagerel $LN5+82
	DD	imagerel $unwind$?_Inside@?$vector@IV?$allocator@I@std@@@std@@IEBA_NPEBI@Z
pdata	ENDS
;	COMDAT pdata
pdata	SEGMENT
$pdata$?_Reallocate@?$vector@IV?$allocator@I@std@@@std@@IEAAX_K@Z DD imagerel $LN11
	DD	imagerel $LN11+416
	DD	imagerel $unwind$?_Reallocate@?$vector@IV?$allocator@I@std@@@std@@IEAAX_K@Z
pdata	ENDS
;	COMDAT pdata
pdata	SEGMENT
$pdata$?catch$0@?0??_Reallocate@?$vector@IV?$allocator@I@std@@@std@@IEAAX_K@Z@4HA DD imagerel ?catch$0@?0??_Reallocate@?$vector@IV?$allocator@I@std@@@std@@IEAAX_K@Z@4HA
	DD	imagerel ?catch$0@?0??_Reallocate@?$vector@IV?$allocator@I@std@@@std@@IEAAX_K@Z@4HA+69
	DD	imagerel $unwind$?catch$0@?0??_Reallocate@?$vector@IV?$allocator@I@std@@@std@@IEAAX_K@Z@4HA
pdata	ENDS
;	COMDAT pdata
pdata	SEGMENT
$pdata$?_Reserve@?$vector@IV?$allocator@I@std@@@std@@IEAAX_K@Z DD imagerel $LN5
	DD	imagerel $LN5+125
	DD	imagerel $unwind$?_Reserve@?$vector@IV?$allocator@I@std@@@std@@IEAAX_K@Z
pdata	ENDS
;	COMDAT pdata
pdata	SEGMENT
$pdata$?_Tidy@?$vector@IV?$allocator@I@std@@@std@@IEAAXXZ DD imagerel $LN4
	DD	imagerel $LN4+231
	DD	imagerel $unwind$?_Tidy@?$vector@IV?$allocator@I@std@@@std@@IEAAXXZ
pdata	ENDS
;	COMDAT pdata
pdata	SEGMENT
$pdata$?_Xlen@?$vector@IV?$allocator@I@std@@@std@@IEBAXXZ DD imagerel $LN3
	DD	imagerel $LN3+34
	DD	imagerel $unwind$?_Xlen@?$vector@IV?$allocator@I@std@@@std@@IEBAXXZ
pdata	ENDS
;	COMDAT pdata
pdata	SEGMENT
$pdata$?_Orphan_range@?$vector@IV?$allocator@I@std@@@std@@IEBAXPEAI0@Z DD imagerel $LN10
	DD	imagerel $LN10+215
	DD	imagerel $unwind$?_Orphan_range@?$vector@IV?$allocator@I@std@@@std@@IEBAXPEAI0@Z
pdata	ENDS
;	COMDAT pdata
pdata	SEGMENT
$pdata$?dtor$0@?0??_Orphan_range@?$vector@IV?$allocator@I@std@@@std@@IEBAXPEAI0@Z@4HA DD imagerel ?dtor$0@?0??_Orphan_range@?$vector@IV?$allocator@I@std@@@std@@IEBAXPEAI0@Z@4HA
	DD	imagerel ?dtor$0@?0??_Orphan_range@?$vector@IV?$allocator@I@std@@@std@@IEBAXPEAI0@Z@4HA+26
	DD	imagerel $unwind$?dtor$0@?0??_Orphan_range@?$vector@IV?$allocator@I@std@@@std@@IEBAXPEAI0@Z@4HA
pdata	ENDS
;	COMDAT pdata
pdata	SEGMENT
$pdata$??1seed_seq@std@@QEAA@XZ DD imagerel $LN3
	DD	imagerel $LN3+33
	DD	imagerel $unwind$??1seed_seq@std@@QEAA@XZ
pdata	ENDS
;	COMDAT pdata
pdata	SEGMENT
$pdata$?__autoclassinit2@seed_seq@std@@QEAAX_K@Z DD imagerel $LN3
	DD	imagerel $LN3+38
	DD	imagerel $unwind$?__autoclassinit2@seed_seq@std@@QEAAX_K@Z
pdata	ENDS
;	COMDAT pdata
pdata	SEGMENT
$pdata$?_Get_data@?$_Vector_alloc@U?$_Vec_base_types@NV?$allocator@N@std@@@std@@@std@@QEBAAEBV?$_Vector_val@U?$_Simple_types@N@std@@@2@XZ DD imagerel $LN3
	DD	imagerel $LN3+33
	DD	imagerel $unwind$?_Get_data@?$_Vector_alloc@U?$_Vec_base_types@NV?$allocator@N@std@@@std@@@std@@QEBAAEBV?$_Vector_val@U?$_Simple_types@N@std@@@2@XZ
pdata	ENDS
;	COMDAT pdata
pdata	SEGMENT
$pdata$?_Myfirst@?$_Vector_alloc@U?$_Vec_base_types@NV?$allocator@N@std@@@std@@@std@@QEBAAEBQEANXZ DD imagerel $LN3
	DD	imagerel $LN3+34
	DD	imagerel $unwind$?_Myfirst@?$_Vector_alloc@U?$_Vec_base_types@NV?$allocator@N@std@@@std@@@std@@QEBAAEBQEANXZ
pdata	ENDS
;	COMDAT pdata
pdata	SEGMENT
$pdata$?_Mylast@?$_Vector_alloc@U?$_Vec_base_types@NV?$allocator@N@std@@@std@@@std@@QEBAAEBQEANXZ DD imagerel $LN3
	DD	imagerel $LN3+34
	DD	imagerel $unwind$?_Mylast@?$_Vector_alloc@U?$_Vec_base_types@NV?$allocator@N@std@@@std@@@std@@QEBAAEBQEANXZ
pdata	ENDS
;	COMDAT pdata
pdata	SEGMENT
$pdata$?_Get_second@?$_Compressed_pair@U?$_Wrap_alloc@V?$allocator@N@std@@@std@@V?$_Vector_val@U?$_Simple_types@N@std@@@2@$00@std@@QEBAAEBV?$_Vector_val@U?$_Simple_types@N@std@@@2@XZ DD imagerel $LN3
	DD	imagerel $LN3+23
	DD	imagerel $unwind$?_Get_second@?$_Compressed_pair@U?$_Wrap_alloc@V?$allocator@N@std@@@std@@V?$_Vector_val@U?$_Simple_types@N@std@@@2@$00@std@@QEBAAEBV?$_Vector_val@U?$_Simple_types@N@std@@@2@XZ
pdata	ENDS
;	COMDAT pdata
pdata	SEGMENT
$pdata$?size@?$vector@NV?$allocator@N@std@@@std@@QEBA_KXZ DD imagerel $LN3
	DD	imagerel $LN3+63
	DD	imagerel $unwind$?size@?$vector@NV?$allocator@N@std@@@std@@QEBA_KXZ
pdata	ENDS
;	COMDAT pdata
pdata	SEGMENT
$pdata$??A?$vector@NV?$allocator@N@std@@@std@@QEBAAEBN_K@Z DD imagerel $LN6
	DD	imagerel $LN6+210
	DD	imagerel $unwind$??A?$vector@NV?$allocator@N@std@@@std@@QEBAAEBN_K@Z
pdata	ENDS
;	COMDAT pdata
pdata	SEGMENT
$pdata$??0random_device@std@@QEAA@AEBV?$basic_string@DU?$char_traits@D@std@@V?$allocator@D@2@@1@@Z DD imagerel $LN3
	DD	imagerel $LN3+39
	DD	imagerel $unwind$??0random_device@std@@QEAA@AEBV?$basic_string@DU?$char_traits@D@std@@V?$allocator@D@2@@1@@Z
pdata	ENDS
;	COMDAT pdata
pdata	SEGMENT
$pdata$??Rrandom_device@std@@QEAAIXZ DD imagerel $LN3
	DD	imagerel $LN3+27
	DD	imagerel $unwind$??Rrandom_device@std@@QEAAIXZ
pdata	ENDS
;	COMDAT pdata
pdata	SEGMENT
$pdata$??0?$mersenne_twister@_K$0EA@$0BDI@$0JM@$0BP@$0?EKPNJAKFFGJJOGBH@$0BN@$0BB@$0HBNGHPPPONKGAAAA@$0CF@$0?IBBCAAAAAAAAA@$0CL@@std@@QEAA@_K00@Z DD imagerel $LN3
	DD	imagerel $LN3+72
	DD	imagerel $unwind$??0?$mersenne_twister@_K$0EA@$0BDI@$0JM@$0BP@$0?EKPNJAKFFGJJOGBH@$0BN@$0BB@$0HBNGHPPPONKGAAAA@$0CF@$0?IBBCAAAAAAAAA@$0CL@@std@@QEAA@_K00@Z
pdata	ENDS
;	COMDAT pdata
pdata	SEGMENT
$pdata$?seed@?$mersenne_twister@_K$0EA@$0BDI@$0JM@$0BP@$0?EKPNJAKFFGJJOGBH@$0BN@$0BB@$0HBNGHPPPONKGAAAA@$0CF@$0?IBBCAAAAAAAAA@$0CL@@std@@QEAAX_K0@Z DD imagerel $LN6
	DD	imagerel $LN6+165
	DD	imagerel $unwind$?seed@?$mersenne_twister@_K$0EA@$0BDI@$0JM@$0BP@$0?EKPNJAKFFGJJOGBH@$0BN@$0BB@$0HBNGHPPPONKGAAAA@$0CF@$0?IBBCAAAAAAAAA@$0CL@@std@@QEAAX_K0@Z
pdata	ENDS
;	COMDAT pdata
pdata	SEGMENT
$pdata$??R?$mersenne_twister@_K$0EA@$0BDI@$0JM@$0BP@$0?EKPNJAKFFGJJOGBH@$0BN@$0BB@$0HBNGHPPPONKGAAAA@$0CF@$0?IBBCAAAAAAAAA@$0CL@@std@@QEAA_KXZ DD imagerel $LN6
	DD	imagerel $LN6+227
	DD	imagerel $unwind$??R?$mersenne_twister@_K$0EA@$0BDI@$0JM@$0BP@$0?EKPNJAKFFGJJOGBH@$0BN@$0BB@$0HBNGHPPPONKGAAAA@$0CF@$0?IBBCAAAAAAAAA@$0CL@@std@@QEAA_KXZ
pdata	ENDS
;	COMDAT pdata
pdata	SEGMENT
$pdata$?_Refill_lower@?$mersenne_twister@_K$0EA@$0BDI@$0JM@$0BP@$0?EKPNJAKFFGJJOGBH@$0BN@$0BB@$0HBNGHPPPONKGAAAA@$0CF@$0?IBBCAAAAAAAAA@$0CL@@std@@IEAAXXZ DD imagerel $LN15
	DD	imagerel $LN15+554
	DD	imagerel $unwind$?_Refill_lower@?$mersenne_twister@_K$0EA@$0BDI@$0JM@$0BP@$0?EKPNJAKFFGJJOGBH@$0BN@$0BB@$0HBNGHPPPONKGAAAA@$0CF@$0?IBBCAAAAAAAAA@$0CL@@std@@IEAAXXZ
pdata	ENDS
;	COMDAT pdata
pdata	SEGMENT
$pdata$?_Refill_upper@?$mersenne_twister@_K$0EA@$0BDI@$0JM@$0BP@$0?EKPNJAKFFGJJOGBH@$0BN@$0BB@$0HBNGHPPPONKGAAAA@$0CF@$0?IBBCAAAAAAAAA@$0CL@@std@@IEAAXXZ DD imagerel $LN8
	DD	imagerel $LN8+196
	DD	imagerel $unwind$?_Refill_upper@?$mersenne_twister@_K$0EA@$0BDI@$0JM@$0BP@$0?EKPNJAKFFGJJOGBH@$0BN@$0BB@$0HBNGHPPPONKGAAAA@$0CF@$0?IBBCAAAAAAAAA@$0CL@@std@@IEAAXXZ
pdata	ENDS
;	COMDAT pdata
pdata	SEGMENT
$pdata$??0?$mersenne_twister_engine@_K$0EA@$0BDI@$0JM@$0BP@$0?EKPNJAKFFGJJOGBH@$0BN@$0FFFFFFFFFFFFFFFF@$0BB@$0HBNGHPPPONKGAAAA@$0CF@$0?IBBCAAAAAAAAA@$0CL@$0FIFBPECNEMJFHPCN@@std@@QEAA@_K@Z DD imagerel $LN3
	DD	imagerel $LN3+63
	DD	imagerel $unwind$??0?$mersenne_twister_engine@_K$0EA@$0BDI@$0JM@$0BP@$0?EKPNJAKFFGJJOGBH@$0BN@$0FFFFFFFFFFFFFFFF@$0BB@$0HBNGHPPPONKGAAAA@$0CF@$0?IBBCAAAAAAAAA@$0CL@$0FIFBPECNEMJFHPCN@@std@@QEAA@_K@Z
pdata	ENDS
;	COMDAT pdata
pdata	SEGMENT
$pdata$?min@?$mersenne_twister_engine@_K$0EA@$0BDI@$0JM@$0BP@$0?EKPNJAKFFGJJOGBH@$0BN@$0FFFFFFFFFFFFFFFF@$0BB@$0HBNGHPPPONKGAAAA@$0CF@$0?IBBCAAAAAAAAA@$0CL@$0FIFBPECNEMJFHPCN@@std@@SA_KXZ DD imagerel $LN3
	DD	imagerel $LN3+17
	DD	imagerel $unwind$?min@?$mersenne_twister_engine@_K$0EA@$0BDI@$0JM@$0BP@$0?EKPNJAKFFGJJOGBH@$0BN@$0FFFFFFFFFFFFFFFF@$0BB@$0HBNGHPPPONKGAAAA@$0CF@$0?IBBCAAAAAAAAA@$0CL@$0FIFBPECNEMJFHPCN@@std@@SA_KXZ
pdata	ENDS
;	COMDAT pdata
pdata	SEGMENT
$pdata$?max@?$mersenne_twister_engine@_K$0EA@$0BDI@$0JM@$0BP@$0?EKPNJAKFFGJJOGBH@$0BN@$0FFFFFFFFFFFFFFFF@$0BB@$0HBNGHPPPONKGAAAA@$0CF@$0?IBBCAAAAAAAAA@$0CL@$0FIFBPECNEMJFHPCN@@std@@SA_KXZ DD imagerel $LN3
	DD	imagerel $LN3+22
	DD	imagerel $unwind$?max@?$mersenne_twister_engine@_K$0EA@$0BDI@$0JM@$0BP@$0?EKPNJAKFFGJJOGBH@$0BN@$0FFFFFFFFFFFFFFFF@$0BB@$0HBNGHPPPONKGAAAA@$0CF@$0?IBBCAAAAAAAAA@$0CL@$0FIFBPECNEMJFHPCN@@std@@SA_KXZ
pdata	ENDS
;	COMDAT pdata
pdata	SEGMENT
$pdata$??__Emt@@YAXXZ DD imagerel ??__Emt@@YAXXZ
	DD	imagerel ??__Emt@@YAXXZ+34
	DD	imagerel $unwind$??__Emt@@YAXXZ
pdata	ENDS
;	COMDAT pdata
pdata	SEGMENT
$pdata$??0?$uniform_real@N@std@@QEAA@NN@Z DD imagerel $LN3
	DD	imagerel $LN3+59
	DD	imagerel $unwind$??0?$uniform_real@N@std@@QEAA@NN@Z
pdata	ENDS
;	COMDAT pdata
pdata	SEGMENT
$pdata$??0param_type@?$uniform_real@N@std@@QEAA@NN@Z DD imagerel $LN3
	DD	imagerel $LN3+56
	DD	imagerel $unwind$??0param_type@?$uniform_real@N@std@@QEAA@NN@Z
pdata	ENDS
;	COMDAT pdata
pdata	SEGMENT
$pdata$?_Init@param_type@?$uniform_real@N@std@@QEAAXNN@Z DD imagerel $LN6
	DD	imagerel $LN6+123
	DD	imagerel $unwind$?_Init@param_type@?$uniform_real@N@std@@QEAAXNN@Z
pdata	ENDS
;	COMDAT pdata
pdata	SEGMENT
$pdata$??0?$uniform_real_distribution@N@std@@QEAA@NN@Z DD imagerel $LN3
	DD	imagerel $LN3+56
	DD	imagerel $unwind$??0?$uniform_real_distribution@N@std@@QEAA@NN@Z
pdata	ENDS
;	COMDAT pdata
pdata	SEGMENT
$pdata$??__Erng_real_dist@@YAXXZ DD imagerel ??__Erng_real_dist@@YAXXZ
	DD	imagerel ??__Erng_real_dist@@YAXXZ+41
	DD	imagerel $unwind$??__Erng_real_dist@@YAXXZ
pdata	ENDS
;	COMDAT pdata
pdata	SEGMENT
$pdata$?ret_x@@YANNN@Z DD imagerel $LN5
	DD	imagerel $LN5+223
	DD	imagerel $unwind$?ret_x@@YANNN@Z
pdata	ENDS
;	COMDAT pdata
pdata	SEGMENT
$pdata$?ret_y@@YANNN@Z DD imagerel $LN5
	DD	imagerel $LN5+223
	DD	imagerel $unwind$?ret_y@@YANNN@Z
pdata	ENDS
;	COMDAT pdata
pdata	SEGMENT
$pdata$?genrand_init@@YAXXZ DD imagerel $LN9
	DD	imagerel $LN9+385
	DD	imagerel $unwind$?genrand_init@@YAXXZ
pdata	ENDS
;	COMDAT pdata
pdata	SEGMENT
$pdata$?dtor$0@?0??genrand_init@@YAXXZ@4HA DD imagerel ?dtor$0@?0??genrand_init@@YAXXZ@4HA
	DD	imagerel ?dtor$0@?0??genrand_init@@YAXXZ@4HA+28
	DD	imagerel $unwind$?dtor$0@?0??genrand_init@@YAXXZ@4HA
pdata	ENDS
;	COMDAT pdata
pdata	SEGMENT
$pdata$?dtor$5@?0??genrand_init@@YAXXZ@4HA DD imagerel ?dtor$5@?0??genrand_init@@YAXXZ@4HA
	DD	imagerel ?dtor$5@?0??genrand_init@@YAXXZ@4HA+25
	DD	imagerel $unwind$?dtor$5@?0??genrand_init@@YAXXZ@4HA
pdata	ENDS
;	COMDAT pdata
pdata	SEGMENT
$pdata$?genrand_real@@YANXZ DD imagerel $LN4
	DD	imagerel $LN4+80
	DD	imagerel $unwind$?genrand_real@@YANXZ
pdata	ENDS
;	COMDAT pdata
pdata	SEGMENT
$pdata$?bend_force_sqr@@YANAEBV?$vector@NV?$allocator@N@std@@@std@@00000HHHHHHH@Z DD imagerel $LN3
	DD	imagerel $LN3+1710
	DD	imagerel $unwind$?bend_force_sqr@@YANAEBV?$vector@NV?$allocator@N@std@@@std@@00000HHHHHHH@Z
pdata	ENDS
;	COMDAT pdata
pdata	SEGMENT
$pdata$?begin@?$array@I$0BA@@std@@QEAA?AV?$_Array_iterator@I$0BA@@2@XZ DD imagerel $LN3
	DD	imagerel $LN3+82
	DD	imagerel $unwind$?begin@?$array@I$0BA@@std@@QEAA?AV?$_Array_iterator@I$0BA@@2@XZ
pdata	ENDS
;	COMDAT pdata
pdata	SEGMENT
$pdata$?end@?$array@I$0BA@@std@@QEAA?AV?$_Array_iterator@I$0BA@@2@XZ DD imagerel $LN3
	DD	imagerel $LN3+85
	DD	imagerel $unwind$?end@?$array@I$0BA@@std@@QEAA?AV?$_Array_iterator@I$0BA@@2@XZ
pdata	ENDS
;	COMDAT pdata
pdata	SEGMENT
$pdata$??0?$_Iterator012@Urandom_access_iterator_tag@std@@I_JPEBIAEBIU_Iterator_base12@2@@std@@QEAA@XZ DD imagerel $LN4
	DD	imagerel $LN4+34
	DD	imagerel $unwind$??0?$_Iterator012@Urandom_access_iterator_tag@std@@I_JPEBIAEBIU_Iterator_base12@2@@std@@QEAA@XZ
pdata	ENDS
;	COMDAT pdata
pdata	SEGMENT
$pdata$??1?$_Iterator012@Urandom_access_iterator_tag@std@@I_JPEBIAEBIU_Iterator_base12@2@@std@@QEAA@XZ DD imagerel $LN3
	DD	imagerel $LN3+30
	DD	imagerel $unwind$??1?$_Iterator012@Urandom_access_iterator_tag@std@@I_JPEBIAEBIU_Iterator_base12@2@@std@@QEAA@XZ
pdata	ENDS
;	COMDAT pdata
pdata	SEGMENT
$pdata$??0?$_Iterator012@Urandom_access_iterator_tag@std@@I_JPEBIAEBIU_Iterator_base12@2@@std@@QEAA@AEBU01@@Z DD imagerel $LN4
	DD	imagerel $LN4+43
	DD	imagerel $unwind$??0?$_Iterator012@Urandom_access_iterator_tag@std@@I_JPEBIAEBIU_Iterator_base12@2@@std@@QEAA@AEBU01@@Z
pdata	ENDS
;	COMDAT pdata
pdata	SEGMENT
$pdata$??0?$_Array_const_iterator@I$0BA@@std@@QEAA@PEBI_K@Z DD imagerel $LN4
	DD	imagerel $LN4+68
	DD	imagerel $unwind$??0?$_Array_const_iterator@I$0BA@@std@@QEAA@PEBI_K@Z
pdata	ENDS
;	COMDAT pdata
pdata	SEGMENT
$pdata$?_Unchecked@?$_Array_const_iterator@I$0BA@@std@@QEBAPEBIXZ DD imagerel $LN3
	DD	imagerel $LN3+39
	DD	imagerel $unwind$?_Unchecked@?$_Array_const_iterator@I$0BA@@std@@QEBAPEBIXZ
pdata	ENDS
;	COMDAT pdata
pdata	SEGMENT
$pdata$??D?$_Array_const_iterator@I$0BA@@std@@QEBAAEBIXZ DD imagerel $LN7
	DD	imagerel $LN7+212
	DD	imagerel $unwind$??D?$_Array_const_iterator@I$0BA@@std@@QEBAAEBIXZ
pdata	ENDS
;	COMDAT pdata
pdata	SEGMENT
$pdata$??E?$_Array_const_iterator@I$0BA@@std@@QEAAAEAV01@XZ DD imagerel $LN7
	DD	imagerel $LN7+215
	DD	imagerel $unwind$??E?$_Array_const_iterator@I$0BA@@std@@QEAAAEAV01@XZ
pdata	ENDS
;	COMDAT pdata
pdata	SEGMENT
$pdata$??8?$_Array_const_iterator@I$0BA@@std@@QEBA_NAEBV01@@Z DD imagerel $LN5
	DD	imagerel $LN5+77
	DD	imagerel $unwind$??8?$_Array_const_iterator@I$0BA@@std@@QEBA_NAEBV01@@Z
pdata	ENDS
;	COMDAT pdata
pdata	SEGMENT
$pdata$??9?$_Array_const_iterator@I$0BA@@std@@QEBA_NAEBV01@@Z DD imagerel $LN5
	DD	imagerel $LN5+66
	DD	imagerel $unwind$??9?$_Array_const_iterator@I$0BA@@std@@QEBA_NAEBV01@@Z
pdata	ENDS
;	COMDAT pdata
pdata	SEGMENT
$pdata$??M?$_Array_const_iterator@I$0BA@@std@@QEBA_NAEBV01@@Z DD imagerel $LN5
	DD	imagerel $LN5+77
	DD	imagerel $unwind$??M?$_Array_const_iterator@I$0BA@@std@@QEBA_NAEBV01@@Z
pdata	ENDS
;	COMDAT pdata
pdata	SEGMENT
$pdata$?_Compat@?$_Array_const_iterator@I$0BA@@std@@QEBAXAEBV12@@Z DD imagerel $LN6
	DD	imagerel $LN6+193
	DD	imagerel $unwind$?_Compat@?$_Array_const_iterator@I$0BA@@std@@QEBAXAEBV12@@Z
pdata	ENDS
;	COMDAT pdata
pdata	SEGMENT
$pdata$??1?$_Array_const_iterator@I$0BA@@std@@QEAA@XZ DD imagerel $LN3
	DD	imagerel $LN3+30
	DD	imagerel $unwind$??1?$_Array_const_iterator@I$0BA@@std@@QEAA@XZ
pdata	ENDS
;	COMDAT pdata
pdata	SEGMENT
$pdata$??0?$_Array_const_iterator@I$0BA@@std@@QEAA@AEBV01@@Z DD imagerel $LN4
	DD	imagerel $LN4+75
	DD	imagerel $unwind$??0?$_Array_const_iterator@I$0BA@@std@@QEAA@AEBV01@@Z
pdata	ENDS
;	COMDAT pdata
pdata	SEGMENT
$pdata$??0?$_Array_iterator@I$0BA@@std@@QEAA@PEAI_K@Z DD imagerel $LN4
	DD	imagerel $LN4+52
	DD	imagerel $unwind$??0?$_Array_iterator@I$0BA@@std@@QEAA@PEAI_K@Z
pdata	ENDS
;	COMDAT pdata
pdata	SEGMENT
$pdata$?_Unchecked@?$_Array_iterator@I$0BA@@std@@QEBAPEAIXZ DD imagerel $LN3
	DD	imagerel $LN3+30
	DD	imagerel $unwind$?_Unchecked@?$_Array_iterator@I$0BA@@std@@QEBAPEAIXZ
pdata	ENDS
;	COMDAT pdata
pdata	SEGMENT
$pdata$??D?$_Array_iterator@I$0BA@@std@@QEBAAEAIXZ DD imagerel $LN3
	DD	imagerel $LN3+30
	DD	imagerel $unwind$??D?$_Array_iterator@I$0BA@@std@@QEBAAEAIXZ
pdata	ENDS
;	COMDAT pdata
pdata	SEGMENT
$pdata$??E?$_Array_iterator@I$0BA@@std@@QEAAAEAV01@XZ DD imagerel $LN3
	DD	imagerel $LN3+34
	DD	imagerel $unwind$??E?$_Array_iterator@I$0BA@@std@@QEAAAEAV01@XZ
pdata	ENDS
;	COMDAT pdata
pdata	SEGMENT
$pdata$??1?$_Array_iterator@I$0BA@@std@@QEAA@XZ DD imagerel $LN3
	DD	imagerel $LN3+30
	DD	imagerel $unwind$??1?$_Array_iterator@I$0BA@@std@@QEAA@XZ
pdata	ENDS
;	COMDAT pdata
pdata	SEGMENT
$pdata$??0?$_Array_iterator@I$0BA@@std@@QEAA@AEBV01@@Z DD imagerel $LN4
	DD	imagerel $LN4+43
	DD	imagerel $unwind$??0?$_Array_iterator@I$0BA@@std@@QEAA@AEBV01@@Z
pdata	ENDS
;	COMDAT pdata
pdata	SEGMENT
$pdata$??$ref@Vrandom_device@std@@@std@@YA?AV?$reference_wrapper@Vrandom_device@std@@@0@AEAVrandom_device@0@@Z DD imagerel $LN3
	DD	imagerel $LN3+43
	DD	imagerel $unwind$??$ref@Vrandom_device@std@@@std@@YA?AV?$reference_wrapper@Vrandom_device@std@@@0@AEAVrandom_device@0@@Z
pdata	ENDS
;	COMDAT pdata
pdata	SEGMENT
$pdata$??0?$reference_wrapper@Vrandom_device@std@@@std@@QEAA@AEAVrandom_device@1@@Z DD imagerel $LN3
	DD	imagerel $LN3+46
	DD	imagerel $unwind$??0?$reference_wrapper@Vrandom_device@std@@@std@@QEAA@AEAVrandom_device@1@@Z
pdata	ENDS
;	COMDAT pdata
pdata	SEGMENT
$pdata$?get@?$reference_wrapper@Vrandom_device@std@@@std@@QEBAAEAVrandom_device@2@XZ DD imagerel $LN3
	DD	imagerel $LN3+26
	DD	imagerel $unwind$?get@?$reference_wrapper@Vrandom_device@std@@@std@@QEBAAEAVrandom_device@2@XZ
pdata	ENDS
;	COMDAT pdata
pdata	SEGMENT
$pdata$??$generate@V?$_Array_iterator@I$0BA@@std@@V?$reference_wrapper@Vrandom_device@std@@@2@@std@@YAXV?$_Array_iterator@I$0BA@@0@0V?$reference_wrapper@Vrandom_device@std@@@0@@Z DD imagerel $LN9
	DD	imagerel $LN9+330
	DD	imagerel $unwind$??$generate@V?$_Array_iterator@I$0BA@@std@@V?$reference_wrapper@Vrandom_device@std@@@2@@std@@YAXV?$_Array_iterator@I$0BA@@0@0V?$reference_wrapper@Vrandom_device@std@@@0@@Z
pdata	ENDS
;	COMDAT pdata
pdata	SEGMENT
$pdata$?dtor$0@?0???$generate@V?$_Array_iterator@I$0BA@@std@@V?$reference_wrapper@Vrandom_device@std@@@2@@std@@YAXV?$_Array_iterator@I$0BA@@0@0V?$reference_wrapper@Vrandom_device@std@@@0@@Z@4HA DD imagerel ?dtor$0@?0???$generate@V?$_Array_iterator@I$0BA@@std@@V?$reference_wrapper@Vrandom_device@std@@@2@@std@@YAXV?$_Array_iterator@I$0BA@@0@0V?$reference_wrapper@Vrandom_device@std@@@0@@Z@4HA
	DD	imagerel ?dtor$0@?0???$generate@V?$_Array_iterator@I$0BA@@std@@V?$reference_wrapper@Vrandom_device@std@@@2@@std@@YAXV?$_Array_iterator@I$0BA@@0@0V?$reference_wrapper@Vrandom_device@std@@@0@@Z@4HA+28
	DD	imagerel $unwind$?dtor$0@?0???$generate@V?$_Array_iterator@I$0BA@@std@@V?$reference_wrapper@Vrandom_device@std@@@2@@std@@YAXV?$_Array_iterator@I$0BA@@0@0V?$reference_wrapper@Vrandom_device@std@@@0@@Z@4HA
pdata	ENDS
;	COMDAT pdata
pdata	SEGMENT
$pdata$?dtor$1@?0???$generate@V?$_Array_iterator@I$0BA@@std@@V?$reference_wrapper@Vrandom_device@std@@@2@@std@@YAXV?$_Array_iterator@I$0BA@@0@0V?$reference_wrapper@Vrandom_device@std@@@0@@Z@4HA DD imagerel ?dtor$1@?0???$generate@V?$_Array_iterator@I$0BA@@std@@V?$reference_wrapper@Vrandom_device@std@@@2@@std@@YAXV?$_Array_iterator@I$0BA@@0@0V?$reference_wrapper@Vrandom_device@std@@@0@@Z@4HA
	DD	imagerel ?dtor$1@?0???$generate@V?$_Array_iterator@I$0BA@@std@@V?$reference_wrapper@Vrandom_device@std@@@2@@std@@YAXV?$_Array_iterator@I$0BA@@0@0V?$reference_wrapper@Vrandom_device@std@@@0@@Z@4HA+28
	DD	imagerel $unwind$?dtor$1@?0???$generate@V?$_Array_iterator@I$0BA@@std@@V?$reference_wrapper@Vrandom_device@std@@@2@@std@@YAXV?$_Array_iterator@I$0BA@@0@0V?$reference_wrapper@Vrandom_device@std@@@0@@Z@4HA
pdata	ENDS
;	COMDAT pdata
pdata	SEGMENT
$pdata$?dtor$2@?0???$generate@V?$_Array_iterator@I$0BA@@std@@V?$reference_wrapper@Vrandom_device@std@@@2@@std@@YAXV?$_Array_iterator@I$0BA@@0@0V?$reference_wrapper@Vrandom_device@std@@@0@@Z@4HA DD imagerel ?dtor$2@?0???$generate@V?$_Array_iterator@I$0BA@@std@@V?$reference_wrapper@Vrandom_device@std@@@2@@std@@YAXV?$_Array_iterator@I$0BA@@0@0V?$reference_wrapper@Vrandom_device@std@@@0@@Z@4HA
	DD	imagerel ?dtor$2@?0???$generate@V?$_Array_iterator@I$0BA@@std@@V?$reference_wrapper@Vrandom_device@std@@@2@@std@@YAXV?$_Array_iterator@I$0BA@@0@0V?$reference_wrapper@Vrandom_device@std@@@0@@Z@4HA+25
	DD	imagerel $unwind$?dtor$2@?0???$generate@V?$_Array_iterator@I$0BA@@std@@V?$reference_wrapper@Vrandom_device@std@@@2@@std@@YAXV?$_Array_iterator@I$0BA@@0@0V?$reference_wrapper@Vrandom_device@std@@@0@@Z@4HA
pdata	ENDS
;	COMDAT pdata
pdata	SEGMENT
$pdata$??$?0V?$_Array_iterator@I$0BA@@std@@@seed_seq@std@@QEAA@V?$_Array_iterator@I$0BA@@1@0@Z DD imagerel $LN8
	DD	imagerel $LN8+205
	DD	imagerel $unwind$??$?0V?$_Array_iterator@I$0BA@@std@@@seed_seq@std@@QEAA@V?$_Array_iterator@I$0BA@@1@0@Z
pdata	ENDS
;	COMDAT pdata
pdata	SEGMENT
$pdata$?dtor$0@?0???$?0V?$_Array_iterator@I$0BA@@std@@@seed_seq@std@@QEAA@V?$_Array_iterator@I$0BA@@1@0@Z@4HA DD imagerel ?dtor$0@?0???$?0V?$_Array_iterator@I$0BA@@std@@@seed_seq@std@@QEAA@V?$_Array_iterator@I$0BA@@1@0@Z@4HA
	DD	imagerel ?dtor$0@?0???$?0V?$_Array_iterator@I$0BA@@std@@@seed_seq@std@@QEAA@V?$_Array_iterator@I$0BA@@1@0@Z@4HA+28
	DD	imagerel $unwind$?dtor$0@?0???$?0V?$_Array_iterator@I$0BA@@std@@@seed_seq@std@@QEAA@V?$_Array_iterator@I$0BA@@1@0@Z@4HA
pdata	ENDS
;	COMDAT pdata
pdata	SEGMENT
$pdata$?dtor$1@?0???$?0V?$_Array_iterator@I$0BA@@std@@@seed_seq@std@@QEAA@V?$_Array_iterator@I$0BA@@1@0@Z@4HA DD imagerel ?dtor$1@?0???$?0V?$_Array_iterator@I$0BA@@std@@@seed_seq@std@@QEAA@V?$_Array_iterator@I$0BA@@1@0@Z@4HA
	DD	imagerel ?dtor$1@?0???$?0V?$_Array_iterator@I$0BA@@std@@@seed_seq@std@@QEAA@V?$_Array_iterator@I$0BA@@1@0@Z@4HA+28
	DD	imagerel $unwind$?dtor$1@?0???$?0V?$_Array_iterator@I$0BA@@std@@@seed_seq@std@@QEAA@V?$_Array_iterator@I$0BA@@1@0@Z@4HA
pdata	ENDS
;	COMDAT pdata
pdata	SEGMENT
$pdata$?dtor$2@?0???$?0V?$_Array_iterator@I$0BA@@std@@@seed_seq@std@@QEAA@V?$_Array_iterator@I$0BA@@1@0@Z@4HA DD imagerel ?dtor$2@?0???$?0V?$_Array_iterator@I$0BA@@std@@@seed_seq@std@@QEAA@V?$_Array_iterator@I$0BA@@1@0@Z@4HA
	DD	imagerel ?dtor$2@?0???$?0V?$_Array_iterator@I$0BA@@std@@@seed_seq@std@@QEAA@V?$_Array_iterator@I$0BA@@1@0@Z@4HA+28
	DD	imagerel $unwind$?dtor$2@?0???$?0V?$_Array_iterator@I$0BA@@std@@@seed_seq@std@@QEAA@V?$_Array_iterator@I$0BA@@1@0@Z@4HA
pdata	ENDS
;	COMDAT pdata
pdata	SEGMENT
$pdata$?dtor$3@?0???$?0V?$_Array_iterator@I$0BA@@std@@@seed_seq@std@@QEAA@V?$_Array_iterator@I$0BA@@1@0@Z@4HA DD imagerel ?dtor$3@?0???$?0V?$_Array_iterator@I$0BA@@std@@@seed_seq@std@@QEAA@V?$_Array_iterator@I$0BA@@1@0@Z@4HA
	DD	imagerel ?dtor$3@?0???$?0V?$_Array_iterator@I$0BA@@std@@@seed_seq@std@@QEAA@V?$_Array_iterator@I$0BA@@1@0@Z@4HA+25
	DD	imagerel $unwind$?dtor$3@?0???$?0V?$_Array_iterator@I$0BA@@std@@@seed_seq@std@@QEAA@V?$_Array_iterator@I$0BA@@1@0@Z@4HA
pdata	ENDS
;	COMDAT pdata
pdata	SEGMENT
$pdata$??$seed@Vseed_seq@std@@X@?$mersenne_twister_engine@_K$0EA@$0BDI@$0JM@$0BP@$0?EKPNJAKFFGJJOGBH@$0BN@$0FFFFFFFFFFFFFFFF@$0BB@$0HBNGHPPPONKGAAAA@$0CF@$0?IBBCAAAAAAAAA@$0CL@$0FIFBPECNEMJFHPCN@@std@@QEAAXAEAVseed_seq@1@@Z DD imagerel $LN12
	DD	imagerel $LN12+524
	DD	imagerel $unwind$??$seed@Vseed_seq@std@@X@?$mersenne_twister_engine@_K$0EA@$0BDI@$0JM@$0BP@$0?EKPNJAKFFGJJOGBH@$0BN@$0FFFFFFFFFFFFFFFF@$0BB@$0HBNGHPPPONKGAAAA@$0CF@$0?IBBCAAAAAAAAA@$0CL@$0FIFBPECNEMJFHPCN@@std@@QEAAXAEAVseed_seq@1@@Z
pdata	ENDS
;	COMDAT pdata
pdata	SEGMENT
$pdata$??$?RV?$mersenne_twister_engine@_K$0EA@$0BDI@$0JM@$0BP@$0?EKPNJAKFFGJJOGBH@$0BN@$0FFFFFFFFFFFFFFFF@$0BB@$0HBNGHPPPONKGAAAA@$0CF@$0?IBBCAAAAAAAAA@$0CL@$0FIFBPECNEMJFHPCN@@std@@@?$uniform_real@N@std@@QEBANAEAV?$mersenne_twister_engine@_K$0EA@$0BDI@$0JM@$0BP@$0?EKPNJAKFFGJJOGBH@$0BN@$0FFFFFFFFFFFFFFFF@$0BB@$0HBNGHPPPONKGAAAA@$0CF@$0?IBBCAAAAAAAAA@$0CL@$0FIFBPECNEMJFHPCN@@1@@Z DD imagerel $LN3
	DD	imagerel $LN3+46
	DD	imagerel $unwind$??$?RV?$mersenne_twister_engine@_K$0EA@$0BDI@$0JM@$0BP@$0?EKPNJAKFFGJJOGBH@$0BN@$0FFFFFFFFFFFFFFFF@$0BB@$0HBNGHPPPONKGAAAA@$0CF@$0?IBBCAAAAAAAAA@$0CL@$0FIFBPECNEMJFHPCN@@std@@@?$uniform_real@N@std@@QEBANAEAV?$mersenne_twister_engine@_K$0EA@$0BDI@$0JM@$0BP@$0?EKPNJAKFFGJJOGBH@$0BN@$0FFFFFFFFFFFFFFFF@$0BB@$0HBNGHPPPONKGAAAA@$0CF@$0?IBBCAAAAAAAAA@$0CL@$0FIFBPECNEMJFHPCN@@1@@Z
pdata	ENDS
;	COMDAT pdata
pdata	SEGMENT
$pdata$??$addressof@I@std@@YAPEAIAEAI@Z DD imagerel $LN3
	DD	imagerel $LN3+34
	DD	imagerel $unwind$??$addressof@I@std@@YAPEAIAEAI@Z
pdata	ENDS
;	COMDAT pdata
pdata	SEGMENT
$pdata$??$_Debug_pointer@$$CBD@std@@YAXPEBDPEB_WI@Z DD imagerel $LN4
	DD	imagerel $LN4+59
	DD	imagerel $unwind$??$_Debug_pointer@$$CBD@std@@YAXPEBDPEB_WI@Z
pdata	ENDS
;	COMDAT pdata
pdata	SEGMENT
$pdata$??$?0AEBV?$allocator@I@std@@$$V@?$_Compressed_pair@U?$_Wrap_alloc@V?$allocator@I@std@@@std@@V?$_Vector_val@U?$_Simple_types@I@std@@@2@$00@std@@QEAA@U_One_then_variadic_args_t@1@AEBV?$allocator@I@1@@Z DD imagerel $LN4
	DD	imagerel $LN4+67
	DD	imagerel $unwind$??$?0AEBV?$allocator@I@std@@$$V@?$_Compressed_pair@U?$_Wrap_alloc@V?$allocator@I@std@@@std@@V?$_Vector_val@U?$_Simple_types@I@std@@@2@$00@std@@QEAA@U_One_then_variadic_args_t@1@AEBV?$allocator@I@1@@Z
pdata	ENDS
;	COMDAT pdata
pdata	SEGMENT
$pdata$??$?0AEBV?$allocator@D@std@@$$V@?$_Compressed_pair@U?$_Wrap_alloc@V?$allocator@D@std@@@std@@V?$_String_val@U?$_Simple_types@D@std@@@2@$00@std@@QEAA@U_One_then_variadic_args_t@1@AEBV?$allocator@D@1@@Z DD imagerel $LN4
	DD	imagerel $LN4+67
	DD	imagerel $unwind$??$?0AEBV?$allocator@D@std@@$$V@?$_Compressed_pair@U?$_Wrap_alloc@V?$allocator@D@std@@@std@@V?$_String_val@U?$_Simple_types@D@std@@@2@$00@std@@QEAA@U_One_then_variadic_args_t@1@AEBV?$allocator@D@1@@Z
pdata	ENDS
;	COMDAT pdata
pdata	SEGMENT
$pdata$??$destroy@PEAD@?$_Wrap_alloc@V?$allocator@D@std@@@std@@QEAAXPEAPEAD@Z DD imagerel $LN3
	DD	imagerel $LN3+39
	DD	imagerel $unwind$??$destroy@PEAD@?$_Wrap_alloc@V?$allocator@D@std@@@std@@QEAAXPEAPEAD@Z
pdata	ENDS
;	COMDAT pdata
pdata	SEGMENT
$pdata$??$addressof@D@std@@YAPEADAEAD@Z DD imagerel $LN3
	DD	imagerel $LN3+34
	DD	imagerel $unwind$??$addressof@D@std@@YAPEADAEAD@Z
pdata	ENDS
;	COMDAT pdata
pdata	SEGMENT
$pdata$??$_Debug_pointer_if@$$CBD@std@@YAX_NPEBDPEB_WI@Z DD imagerel $LN4
	DD	imagerel $LN4+71
	DD	imagerel $unwind$??$_Debug_pointer_if@$$CBD@std@@YAX_NPEBDPEB_WI@Z
pdata	ENDS
;	COMDAT pdata
pdata	SEGMENT
$pdata$??$construct@PEADAEAPEAD@?$_Wrap_alloc@V?$allocator@D@std@@@std@@QEAAXPEAPEADAEAPEAD@Z DD imagerel $LN3
	DD	imagerel $LN3+56
	DD	imagerel $unwind$??$construct@PEADAEAPEAD@?$_Wrap_alloc@V?$allocator@D@std@@@std@@QEAAXPEAPEADAEAPEAD@Z
pdata	ENDS
;	COMDAT pdata
pdata	SEGMENT
$pdata$?deallocate@?$allocator@U_Container_proxy@std@@@std@@QEAAXPEAU_Container_proxy@2@_K@Z DD imagerel $LN3
	DD	imagerel $LN3+50
	DD	imagerel $unwind$?deallocate@?$allocator@U_Container_proxy@std@@@std@@QEAAXPEAU_Container_proxy@2@_K@Z
pdata	ENDS
;	COMDAT pdata
pdata	SEGMENT
$pdata$?allocate@?$allocator@U_Container_proxy@std@@@std@@QEAAPEAU_Container_proxy@2@_K@Z DD imagerel $LN3
	DD	imagerel $LN3+43
	DD	imagerel $unwind$?allocate@?$allocator@U_Container_proxy@std@@@std@@QEAAPEAU_Container_proxy@2@_K@Z
pdata	ENDS
;	COMDAT pdata
pdata	SEGMENT
$pdata$?allocate@?$_Wrap_alloc@V?$allocator@U_Container_proxy@std@@@std@@@std@@QEAAPEAU_Container_proxy@2@_K@Z DD imagerel $LN3
	DD	imagerel $LN3+39
	DD	imagerel $unwind$?allocate@?$_Wrap_alloc@V?$allocator@U_Container_proxy@std@@@std@@@std@@QEAAPEAU_Container_proxy@2@_K@Z
pdata	ENDS
;	COMDAT pdata
pdata	SEGMENT
$pdata$?deallocate@?$_Wrap_alloc@V?$allocator@U_Container_proxy@std@@@std@@@std@@QEAAXPEAU_Container_proxy@2@_K@Z DD imagerel $LN3
	DD	imagerel $LN3+48
	DD	imagerel $unwind$?deallocate@?$_Wrap_alloc@V?$allocator@U_Container_proxy@std@@@std@@@std@@QEAAXPEAU_Container_proxy@2@_K@Z
pdata	ENDS
;	COMDAT pdata
pdata	SEGMENT
$pdata$??$?0U?$_Wrap_alloc@V?$allocator@I@std@@@std@@@?$_Wrap_alloc@V?$allocator@U_Container_proxy@std@@@std@@@std@@QEAA@AEAU?$_Wrap_alloc@V?$allocator@I@std@@@1@@Z DD imagerel $LN3
	DD	imagerel $LN3+43
	DD	imagerel $unwind$??$?0U?$_Wrap_alloc@V?$allocator@I@std@@@std@@@?$_Wrap_alloc@V?$allocator@U_Container_proxy@std@@@std@@@std@@QEAA@AEAU?$_Wrap_alloc@V?$allocator@I@std@@@1@@Z
pdata	ENDS
;	COMDAT pdata
pdata	SEGMENT
$pdata$??$?0I@?$allocator@U_Container_proxy@std@@@std@@QEAA@AEBV?$allocator@I@1@@Z DD imagerel $LN3
	DD	imagerel $LN3+28
	DD	imagerel $unwind$??$?0I@?$allocator@U_Container_proxy@std@@@std@@QEAA@AEBV?$allocator@I@1@@Z
pdata	ENDS
;	COMDAT pdata
pdata	SEGMENT
$pdata$??$destroy@U_Container_proxy@std@@@?$_Wrap_alloc@V?$allocator@U_Container_proxy@std@@@std@@@std@@QEAAXPEAU_Container_proxy@1@@Z DD imagerel $LN3
	DD	imagerel $LN3+39
	DD	imagerel $unwind$??$destroy@U_Container_proxy@std@@@?$_Wrap_alloc@V?$allocator@U_Container_proxy@std@@@std@@@std@@QEAAXPEAU_Container_proxy@1@@Z
pdata	ENDS
;	COMDAT pdata
pdata	SEGMENT
$pdata$??$construct@U_Container_proxy@std@@U12@@?$_Wrap_alloc@V?$allocator@U_Container_proxy@std@@@std@@@std@@QEAAXPEAU_Container_proxy@1@$$QEAU21@@Z DD imagerel $LN3
	DD	imagerel $LN3+56
	DD	imagerel $unwind$??$construct@U_Container_proxy@std@@U12@@?$_Wrap_alloc@V?$allocator@U_Container_proxy@std@@@std@@@std@@QEAAXPEAU_Container_proxy@1@$$QEAU21@@Z
pdata	ENDS
;	COMDAT pdata
pdata	SEGMENT
$pdata$??$_Destroy_range@U?$_Wrap_alloc@V?$allocator@I@std@@@std@@@std@@YAXPEAI0AEAU?$_Wrap_alloc@V?$allocator@I@std@@@0@@Z DD imagerel $LN3
	DD	imagerel $LN3+69
	DD	imagerel $unwind$??$_Destroy_range@U?$_Wrap_alloc@V?$allocator@I@std@@@std@@@std@@YAXPEAI0AEAU?$_Wrap_alloc@V?$allocator@I@std@@@0@@Z
pdata	ENDS
;	COMDAT pdata
pdata	SEGMENT
$pdata$??$?0U?$_Wrap_alloc@V?$allocator@D@std@@@std@@@?$_Wrap_alloc@V?$allocator@U_Container_proxy@std@@@std@@@std@@QEAA@AEAU?$_Wrap_alloc@V?$allocator@D@std@@@1@@Z DD imagerel $LN3
	DD	imagerel $LN3+43
	DD	imagerel $unwind$??$?0U?$_Wrap_alloc@V?$allocator@D@std@@@std@@@?$_Wrap_alloc@V?$allocator@U_Container_proxy@std@@@std@@@std@@QEAA@AEAU?$_Wrap_alloc@V?$allocator@D@std@@@1@@Z
pdata	ENDS
;	COMDAT pdata
pdata	SEGMENT
$pdata$??$?0D@?$allocator@U_Container_proxy@std@@@std@@QEAA@AEBV?$allocator@D@1@@Z DD imagerel $LN3
	DD	imagerel $LN3+28
	DD	imagerel $unwind$??$?0D@?$allocator@U_Container_proxy@std@@@std@@QEAA@AEBV?$allocator@D@1@@Z
pdata	ENDS
;	COMDAT pdata
pdata	SEGMENT
$pdata$??$_Debug_range_ptr@V?$_Array_iterator@I$0BA@@std@@V?$reference_wrapper@Vrandom_device@std@@@2@@std@@YAXV?$_Array_iterator@I$0BA@@0@0AEAV?$reference_wrapper@Vrandom_device@std@@@0@PEB_WI@Z DD imagerel $LN7
	DD	imagerel $LN7+241
	DD	imagerel $unwind$??$_Debug_range_ptr@V?$_Array_iterator@I$0BA@@std@@V?$reference_wrapper@Vrandom_device@std@@@2@@std@@YAXV?$_Array_iterator@I$0BA@@0@0AEAV?$reference_wrapper@Vrandom_device@std@@@0@PEB_WI@Z
pdata	ENDS
;	COMDAT pdata
pdata	SEGMENT
$pdata$?dtor$0@?0???$_Debug_range_ptr@V?$_Array_iterator@I$0BA@@std@@V?$reference_wrapper@Vrandom_device@std@@@2@@std@@YAXV?$_Array_iterator@I$0BA@@0@0AEAV?$reference_wrapper@Vrandom_device@std@@@0@PEB_WI@Z@4HA DD imagerel ?dtor$0@?0???$_Debug_range_ptr@V?$_Array_iterator@I$0BA@@std@@V?$reference_wrapper@Vrandom_device@std@@@2@@std@@YAXV?$_Array_iterator@I$0BA@@0@0AEAV?$reference_wrapper@Vrandom_device@std@@@0@PEB_WI@Z@4HA
	DD	imagerel ?dtor$0@?0???$_Debug_range_ptr@V?$_Array_iterator@I$0BA@@std@@V?$reference_wrapper@Vrandom_device@std@@@2@@std@@YAXV?$_Array_iterator@I$0BA@@0@0AEAV?$reference_wrapper@Vrandom_device@std@@@0@PEB_WI@Z@4HA+28
	DD	imagerel $unwind$?dtor$0@?0???$_Debug_range_ptr@V?$_Array_iterator@I$0BA@@std@@V?$reference_wrapper@Vrandom_device@std@@@2@@std@@YAXV?$_Array_iterator@I$0BA@@0@0AEAV?$reference_wrapper@Vrandom_device@std@@@0@PEB_WI@Z@4HA
pdata	ENDS
;	COMDAT pdata
pdata	SEGMENT
$pdata$?dtor$1@?0???$_Debug_range_ptr@V?$_Array_iterator@I$0BA@@std@@V?$reference_wrapper@Vrandom_device@std@@@2@@std@@YAXV?$_Array_iterator@I$0BA@@0@0AEAV?$reference_wrapper@Vrandom_device@std@@@0@PEB_WI@Z@4HA DD imagerel ?dtor$1@?0???$_Debug_range_ptr@V?$_Array_iterator@I$0BA@@std@@V?$reference_wrapper@Vrandom_device@std@@@2@@std@@YAXV?$_Array_iterator@I$0BA@@0@0AEAV?$reference_wrapper@Vrandom_device@std@@@0@PEB_WI@Z@4HA
	DD	imagerel ?dtor$1@?0???$_Debug_range_ptr@V?$_Array_iterator@I$0BA@@std@@V?$reference_wrapper@Vrandom_device@std@@@2@@std@@YAXV?$_Array_iterator@I$0BA@@0@0AEAV?$reference_wrapper@Vrandom_device@std@@@0@PEB_WI@Z@4HA+28
	DD	imagerel $unwind$?dtor$1@?0???$_Debug_range_ptr@V?$_Array_iterator@I$0BA@@std@@V?$reference_wrapper@Vrandom_device@std@@@2@@std@@YAXV?$_Array_iterator@I$0BA@@0@0AEAV?$reference_wrapper@Vrandom_device@std@@@0@PEB_WI@Z@4HA
pdata	ENDS
;	COMDAT pdata
pdata	SEGMENT
$pdata$?dtor$2@?0???$_Debug_range_ptr@V?$_Array_iterator@I$0BA@@std@@V?$reference_wrapper@Vrandom_device@std@@@2@@std@@YAXV?$_Array_iterator@I$0BA@@0@0AEAV?$reference_wrapper@Vrandom_device@std@@@0@PEB_WI@Z@4HA DD imagerel ?dtor$2@?0???$_Debug_range_ptr@V?$_Array_iterator@I$0BA@@std@@V?$reference_wrapper@Vrandom_device@std@@@2@@std@@YAXV?$_Array_iterator@I$0BA@@0@0AEAV?$reference_wrapper@Vrandom_device@std@@@0@PEB_WI@Z@4HA
	DD	imagerel ?dtor$2@?0???$_Debug_range_ptr@V?$_Array_iterator@I$0BA@@std@@V?$reference_wrapper@Vrandom_device@std@@@2@@std@@YAXV?$_Array_iterator@I$0BA@@0@0AEAV?$reference_wrapper@Vrandom_device@std@@@0@PEB_WI@Z@4HA+25
	DD	imagerel $unwind$?dtor$2@?0???$_Debug_range_ptr@V?$_Array_iterator@I$0BA@@std@@V?$reference_wrapper@Vrandom_device@std@@@2@@std@@YAXV?$_Array_iterator@I$0BA@@0@0AEAV?$reference_wrapper@Vrandom_device@std@@@0@PEB_WI@Z@4HA
pdata	ENDS
;	COMDAT pdata
pdata	SEGMENT
$pdata$??$_Unchecked@I$0BA@@std@@YAPEAIV?$_Array_iterator@I$0BA@@0@@Z DD imagerel $LN4
	DD	imagerel $LN4+55
	DD	imagerel $unwind$??$_Unchecked@I$0BA@@std@@YAPEAIV?$_Array_iterator@I$0BA@@0@@Z
pdata	ENDS
;	COMDAT pdata
pdata	SEGMENT
$pdata$?dtor$0@?0???$_Unchecked@I$0BA@@std@@YAPEAIV?$_Array_iterator@I$0BA@@0@@Z@4HA DD imagerel ?dtor$0@?0???$_Unchecked@I$0BA@@std@@YAPEAIV?$_Array_iterator@I$0BA@@0@@Z@4HA
	DD	imagerel ?dtor$0@?0???$_Unchecked@I$0BA@@std@@YAPEAIV?$_Array_iterator@I$0BA@@0@@Z@4HA+25
	DD	imagerel $unwind$?dtor$0@?0???$_Unchecked@I$0BA@@std@@YAPEAIV?$_Array_iterator@I$0BA@@0@@Z@4HA
pdata	ENDS
;	COMDAT pdata
pdata	SEGMENT
$pdata$??$_Generate@PEAIV?$reference_wrapper@Vrandom_device@std@@@std@@@std@@YAXPEAI0V?$reference_wrapper@Vrandom_device@std@@@0@@Z DD imagerel $LN6
	DD	imagerel $LN6+72
	DD	imagerel $unwind$??$_Generate@PEAIV?$reference_wrapper@Vrandom_device@std@@@std@@@std@@YAXPEAI0V?$reference_wrapper@Vrandom_device@std@@@0@@Z
pdata	ENDS
;	COMDAT pdata
pdata	SEGMENT
$pdata$??$_Construct@V?$_Array_iterator@I$0BA@@std@@@seed_seq@std@@AEAAXV?$_Array_iterator@I$0BA@@1@0@Z DD imagerel $LN8
	DD	imagerel $LN8+112
	DD	imagerel $unwind$??$_Construct@V?$_Array_iterator@I$0BA@@std@@@seed_seq@std@@AEAAXV?$_Array_iterator@I$0BA@@1@0@Z
pdata	ENDS
;	COMDAT pdata
pdata	SEGMENT
$pdata$?dtor$0@?0???$_Construct@V?$_Array_iterator@I$0BA@@std@@@seed_seq@std@@AEAAXV?$_Array_iterator@I$0BA@@1@0@Z@4HA DD imagerel ?dtor$0@?0???$_Construct@V?$_Array_iterator@I$0BA@@std@@@seed_seq@std@@AEAAXV?$_Array_iterator@I$0BA@@1@0@Z@4HA
	DD	imagerel ?dtor$0@?0???$_Construct@V?$_Array_iterator@I$0BA@@std@@@seed_seq@std@@AEAAXV?$_Array_iterator@I$0BA@@1@0@Z@4HA+25
	DD	imagerel $unwind$?dtor$0@?0???$_Construct@V?$_Array_iterator@I$0BA@@std@@@seed_seq@std@@AEAAXV?$_Array_iterator@I$0BA@@1@0@Z@4HA
pdata	ENDS
;	COMDAT pdata
pdata	SEGMENT
$pdata$?dtor$1@?0???$_Construct@V?$_Array_iterator@I$0BA@@std@@@seed_seq@std@@AEAAXV?$_Array_iterator@I$0BA@@1@0@Z@4HA DD imagerel ?dtor$1@?0???$_Construct@V?$_Array_iterator@I$0BA@@std@@@seed_seq@std@@AEAAXV?$_Array_iterator@I$0BA@@1@0@Z@4HA
	DD	imagerel ?dtor$1@?0???$_Construct@V?$_Array_iterator@I$0BA@@std@@@seed_seq@std@@AEAAXV?$_Array_iterator@I$0BA@@1@0@Z@4HA+25
	DD	imagerel $unwind$?dtor$1@?0???$_Construct@V?$_Array_iterator@I$0BA@@std@@@seed_seq@std@@AEAAXV?$_Array_iterator@I$0BA@@1@0@Z@4HA
pdata	ENDS
;	COMDAT pdata
pdata	SEGMENT
$pdata$??$generate@PEAK@seed_seq@std@@QEBAXPEAK0@Z DD imagerel $LN3
	DD	imagerel $LN3+60
	DD	imagerel $unwind$??$generate@PEAK@seed_seq@std@@QEBAXPEAK0@Z
pdata	ENDS
;	COMDAT pdata
pdata	SEGMENT
$pdata$??$_Eval@V?$mersenne_twister_engine@_K$0EA@$0BDI@$0JM@$0BP@$0?EKPNJAKFFGJJOGBH@$0BN@$0FFFFFFFFFFFFFFFF@$0BB@$0HBNGHPPPONKGAAAA@$0CF@$0?IBBCAAAAAAAAA@$0CL@$0FIFBPECNEMJFHPCN@@std@@@?$uniform_real@N@std@@AEBANAEAV?$mersenne_twister_engine@_K$0EA@$0BDI@$0JM@$0BP@$0?EKPNJAKFFGJJOGBH@$0BN@$0FFFFFFFFFFFFFFFF@$0BB@$0HBNGHPPPONKGAAAA@$0CF@$0?IBBCAAAAAAAAA@$0CL@$0FIFBPECNEMJFHPCN@@1@AEBUparam_type@01@@Z DD imagerel $LN3
	DD	imagerel $LN3+69
	DD	imagerel $unwind$??$_Eval@V?$mersenne_twister_engine@_K$0EA@$0BDI@$0JM@$0BP@$0?EKPNJAKFFGJJOGBH@$0BN@$0FFFFFFFFFFFFFFFF@$0BB@$0HBNGHPPPONKGAAAA@$0CF@$0?IBBCAAAAAAAAA@$0CL@$0FIFBPECNEMJFHPCN@@std@@@?$uniform_real@N@std@@AEBANAEAV?$mersenne_twister_engine@_K$0EA@$0BDI@$0JM@$0BP@$0?EKPNJAKFFGJJOGBH@$0BN@$0FFFFFFFFFFFFFFFF@$0BB@$0HBNGHPPPONKGAAAA@$0CF@$0?IBBCAAAAAAAAA@$0CL@$0FIFBPECNEMJFHPCN@@1@AEBUparam_type@01@@Z
pdata	ENDS
;	COMDAT pdata
pdata	SEGMENT
$pdata$??$_Addressof@I@std@@YAPEAIAEAIU?$integral_constant@_N$0A@@0@@Z DD imagerel $LN3
	DD	imagerel $LN3+27
	DD	imagerel $unwind$??$_Addressof@I@std@@YAPEAIAEAIU?$integral_constant@_N$0A@@0@@Z
pdata	ENDS
;	COMDAT pdata
pdata	SEGMENT
$pdata$??$forward@AEBV?$allocator@I@std@@@std@@YAAEBV?$allocator@I@0@AEBV10@@Z DD imagerel $LN3
	DD	imagerel $LN3+23
	DD	imagerel $unwind$??$forward@AEBV?$allocator@I@std@@@std@@YAAEBV?$allocator@I@0@AEBV10@@Z
pdata	ENDS
;	COMDAT pdata
pdata	SEGMENT
$pdata$??$forward@AEBV?$allocator@D@std@@@std@@YAAEBV?$allocator@D@0@AEBV10@@Z DD imagerel $LN3
	DD	imagerel $LN3+23
	DD	imagerel $unwind$??$forward@AEBV?$allocator@D@std@@@std@@YAAEBV?$allocator@D@0@AEBV10@@Z
pdata	ENDS
;	COMDAT pdata
pdata	SEGMENT
$pdata$??$destroy@PEAD@?$allocator_traits@V?$allocator@D@std@@@std@@SAXAEAV?$allocator@D@1@PEAPEAD@Z DD imagerel $LN3
	DD	imagerel $LN3+39
	DD	imagerel $unwind$??$destroy@PEAD@?$allocator_traits@V?$allocator@D@std@@@std@@SAXAEAV?$allocator@D@1@PEAPEAD@Z
pdata	ENDS
;	COMDAT pdata
pdata	SEGMENT
$pdata$??$_Addressof@D@std@@YAPEADAEADU?$integral_constant@_N$0A@@0@@Z DD imagerel $LN3
	DD	imagerel $LN3+27
	DD	imagerel $unwind$??$_Addressof@D@std@@YAPEADAEADU?$integral_constant@_N$0A@@0@@Z
pdata	ENDS
;	COMDAT pdata
pdata	SEGMENT
$pdata$??$forward@AEAPEAD@std@@YAAEAPEADAEAPEAD@Z DD imagerel $LN3
	DD	imagerel $LN3+23
	DD	imagerel $unwind$??$forward@AEAPEAD@std@@YAAEAPEADAEAPEAD@Z
pdata	ENDS
;	COMDAT pdata
pdata	SEGMENT
$pdata$??$construct@PEADAEAPEAD@?$allocator_traits@V?$allocator@D@std@@@std@@SAXAEAV?$allocator@D@1@PEAPEADAEAPEAD@Z DD imagerel $LN3
	DD	imagerel $LN3+56
	DD	imagerel $unwind$??$construct@PEADAEAPEAD@?$allocator_traits@V?$allocator@D@std@@@std@@SAXAEAV?$allocator@D@1@PEAPEADAEAPEAD@Z
pdata	ENDS
;	COMDAT pdata
pdata	SEGMENT
$pdata$??$destroy@U_Container_proxy@std@@@?$allocator_traits@V?$allocator@U_Container_proxy@std@@@std@@@std@@SAXAEAV?$allocator@U_Container_proxy@std@@@1@PEAU_Container_proxy@1@@Z DD imagerel $LN3
	DD	imagerel $LN3+39
	DD	imagerel $unwind$??$destroy@U_Container_proxy@std@@@?$allocator_traits@V?$allocator@U_Container_proxy@std@@@std@@@std@@SAXAEAV?$allocator@U_Container_proxy@std@@@1@PEAU_Container_proxy@1@@Z
pdata	ENDS
;	COMDAT pdata
pdata	SEGMENT
$pdata$??$forward@U_Container_proxy@std@@@std@@YA$$QEAU_Container_proxy@0@AEAU10@@Z DD imagerel $LN3
	DD	imagerel $LN3+23
	DD	imagerel $unwind$??$forward@U_Container_proxy@std@@@std@@YA$$QEAU_Container_proxy@0@AEAU10@@Z
pdata	ENDS
;	COMDAT pdata
pdata	SEGMENT
$pdata$??$construct@U_Container_proxy@std@@U12@@?$allocator_traits@V?$allocator@U_Container_proxy@std@@@std@@@std@@SAXAEAV?$allocator@U_Container_proxy@std@@@1@PEAU_Container_proxy@1@$$QEAU31@@Z DD imagerel $LN3
	DD	imagerel $LN3+56
	DD	imagerel $unwind$??$construct@U_Container_proxy@std@@U12@@?$allocator_traits@V?$allocator@U_Container_proxy@std@@@std@@@std@@SAXAEAV?$allocator@U_Container_proxy@std@@@1@PEAU_Container_proxy@1@$$QEAU31@@Z
pdata	ENDS
;	COMDAT pdata
pdata	SEGMENT
$pdata$??$_Ptr_cat@II@std@@YA?AU_Scalar_ptr_iterator_tag@0@PEAI0@Z DD imagerel $LN3
	DD	imagerel $LN3+28
	DD	imagerel $unwind$??$_Ptr_cat@II@std@@YA?AU_Scalar_ptr_iterator_tag@0@PEAI0@Z
pdata	ENDS
;	COMDAT pdata
pdata	SEGMENT
$pdata$??$_Destroy_range@U?$_Wrap_alloc@V?$allocator@I@std@@@std@@@std@@YAXPEAI0AEAU?$_Wrap_alloc@V?$allocator@I@std@@@0@U_Scalar_ptr_iterator_tag@0@@Z DD imagerel $LN3
	DD	imagerel $LN3+34
	DD	imagerel $unwind$??$_Destroy_range@U?$_Wrap_alloc@V?$allocator@I@std@@@std@@@std@@YAXPEAI0AEAU?$_Wrap_alloc@V?$allocator@I@std@@@0@U_Scalar_ptr_iterator_tag@0@@Z
pdata	ENDS
;	COMDAT pdata
pdata	SEGMENT
$pdata$??$addressof@Vrandom_device@std@@@std@@YAPEAVrandom_device@0@AEAV10@@Z DD imagerel $LN3
	DD	imagerel $LN3+34
	DD	imagerel $unwind$??$addressof@Vrandom_device@std@@@std@@YAPEAVrandom_device@0@AEAV10@@Z
pdata	ENDS
;	COMDAT pdata
pdata	SEGMENT
$pdata$??$_Iter_cat@V?$_Array_iterator@I$0BA@@std@@@std@@YA?AUrandom_access_iterator_tag@0@AEBV?$_Array_iterator@I$0BA@@0@@Z DD imagerel $LN3
	DD	imagerel $LN3+38
	DD	imagerel $unwind$??$_Iter_cat@V?$_Array_iterator@I$0BA@@std@@@std@@YA?AUrandom_access_iterator_tag@0@AEBV?$_Array_iterator@I$0BA@@0@@Z
pdata	ENDS
;	COMDAT pdata
pdata	SEGMENT
$pdata$??$_Debug_range_ptr2@V?$_Array_iterator@I$0BA@@std@@V?$reference_wrapper@Vrandom_device@std@@@2@@std@@YAXV?$_Array_iterator@I$0BA@@0@0AEAV?$reference_wrapper@Vrandom_device@std@@@0@PEB_WIUrandom_access_iterator_tag@0@@Z DD imagerel $LN7
	DD	imagerel $LN7+188
	DD	imagerel $unwind$??$_Debug_range_ptr2@V?$_Array_iterator@I$0BA@@std@@V?$reference_wrapper@Vrandom_device@std@@@2@@std@@YAXV?$_Array_iterator@I$0BA@@0@0AEAV?$reference_wrapper@Vrandom_device@std@@@0@PEB_WIUrandom_access_iterator_tag@0@@Z
pdata	ENDS
;	COMDAT pdata
pdata	SEGMENT
$pdata$?dtor$0@?0???$_Debug_range_ptr2@V?$_Array_iterator@I$0BA@@std@@V?$reference_wrapper@Vrandom_device@std@@@2@@std@@YAXV?$_Array_iterator@I$0BA@@0@0AEAV?$reference_wrapper@Vrandom_device@std@@@0@PEB_WIUrandom_access_iterator_tag@0@@Z@4HA DD imagerel ?dtor$0@?0???$_Debug_range_ptr2@V?$_Array_iterator@I$0BA@@std@@V?$reference_wrapper@Vrandom_device@std@@@2@@std@@YAXV?$_Array_iterator@I$0BA@@0@0AEAV?$reference_wrapper@Vrandom_device@std@@@0@PEB_WIUrandom_access_iterator_tag@0@@Z@4HA
	DD	imagerel ?dtor$0@?0???$_Debug_range_ptr2@V?$_Array_iterator@I$0BA@@std@@V?$reference_wrapper@Vrandom_device@std@@@2@@std@@YAXV?$_Array_iterator@I$0BA@@0@0AEAV?$reference_wrapper@Vrandom_device@std@@@0@PEB_WIUrandom_access_iterator_tag@0@@Z@4HA+25
	DD	imagerel $unwind$?dtor$0@?0???$_Debug_range_ptr2@V?$_Array_iterator@I$0BA@@std@@V?$reference_wrapper@Vrandom_device@std@@@2@@std@@YAXV?$_Array_iterator@I$0BA@@0@0AEAV?$reference_wrapper@Vrandom_device@std@@@0@PEB_WIUrandom_access_iterator_tag@0@@Z@4HA
pdata	ENDS
;	COMDAT pdata
pdata	SEGMENT
$pdata$?dtor$1@?0???$_Debug_range_ptr2@V?$_Array_iterator@I$0BA@@std@@V?$reference_wrapper@Vrandom_device@std@@@2@@std@@YAXV?$_Array_iterator@I$0BA@@0@0AEAV?$reference_wrapper@Vrandom_device@std@@@0@PEB_WIUrandom_access_iterator_tag@0@@Z@4HA DD imagerel ?dtor$1@?0???$_Debug_range_ptr2@V?$_Array_iterator@I$0BA@@std@@V?$reference_wrapper@Vrandom_device@std@@@2@@std@@YAXV?$_Array_iterator@I$0BA@@0@0AEAV?$reference_wrapper@Vrandom_device@std@@@0@PEB_WIUrandom_access_iterator_tag@0@@Z@4HA
	DD	imagerel ?dtor$1@?0???$_Debug_range_ptr2@V?$_Array_iterator@I$0BA@@std@@V?$reference_wrapper@Vrandom_device@std@@@2@@std@@YAXV?$_Array_iterator@I$0BA@@0@0AEAV?$reference_wrapper@Vrandom_device@std@@@0@PEB_WIUrandom_access_iterator_tag@0@@Z@4HA+25
	DD	imagerel $unwind$?dtor$1@?0???$_Debug_range_ptr2@V?$_Array_iterator@I$0BA@@std@@V?$reference_wrapper@Vrandom_device@std@@@2@@std@@YAXV?$_Array_iterator@I$0BA@@0@0AEAV?$reference_wrapper@Vrandom_device@std@@@0@PEB_WIUrandom_access_iterator_tag@0@@Z@4HA
pdata	ENDS
;	COMDAT pdata
pdata	SEGMENT
$pdata$??$forward@AEAVrandom_device@std@@@std@@YAAEAVrandom_device@0@AEAV10@@Z DD imagerel $LN3
	DD	imagerel $LN3+23
	DD	imagerel $unwind$??$forward@AEAVrandom_device@std@@@std@@YAAEAVrandom_device@0@AEAV10@@Z
pdata	ENDS
;	COMDAT pdata
pdata	SEGMENT
$pdata$??$_Call@AEAVrandom_device@std@@$$V@_Invoker_functor@std@@SAIAEAVrandom_device@1@@Z DD imagerel $LN3
	DD	imagerel $LN3+38
	DD	imagerel $unwind$??$_Call@AEAVrandom_device@std@@$$V@_Invoker_functor@std@@SAIAEAVrandom_device@1@@Z
pdata	ENDS
;	COMDAT pdata
pdata	SEGMENT
$pdata$??$invoke@AEAVrandom_device@std@@$$V@std@@YAIAEAVrandom_device@0@@Z DD imagerel $LN3
	DD	imagerel $LN3+38
	DD	imagerel $unwind$??$invoke@AEAVrandom_device@std@@$$V@std@@YAIAEAVrandom_device@0@@Z
pdata	ENDS
;	COMDAT pdata
pdata	SEGMENT
$pdata$??$?R$$V@?$reference_wrapper@Vrandom_device@std@@@std@@QEBAIXZ DD imagerel $LN3
	DD	imagerel $LN3+38
	DD	imagerel $unwind$??$?R$$V@?$reference_wrapper@Vrandom_device@std@@@std@@QEBAIXZ
pdata	ENDS
;	COMDAT pdata
pdata	SEGMENT
$pdata$??$_Val_type@PEAK@std@@YAPEAKPEAK@Z DD imagerel $LN3
	DD	imagerel $LN3+21
	DD	imagerel $unwind$??$_Val_type@PEAK@std@@YAPEAKPEAK@Z
pdata	ENDS
;	COMDAT pdata
pdata	SEGMENT
$pdata$??$_Generate@PEAKK@seed_seq@std@@AEBAXPEAK00@Z DD imagerel $LN27
	DD	imagerel $LN27+1404
	DD	imagerel $unwind$??$_Generate@PEAKK@seed_seq@std@@AEBAXPEAK00@Z
pdata	ENDS
;	COMDAT pdata
pdata	SEGMENT
$pdata$??$generate_canonical@N$0?0V?$mersenne_twister_engine@_K$0EA@$0BDI@$0JM@$0BP@$0?EKPNJAKFFGJJOGBH@$0BN@$0FFFFFFFFFFFFFFFF@$0BB@$0HBNGHPPPONKGAAAA@$0CF@$0?IBBCAAAAAAAAA@$0CL@$0FIFBPECNEMJFHPCN@@std@@@std@@YANAEAV?$mersenne_twister_engine@_K$0EA@$0BDI@$0JM@$0BP@$0?EKPNJAKFFGJJOGBH@$0BN@$0FFFFFFFFFFFFFFFF@$0BB@$0HBNGHPPPONKGAAAA@$0CF@$0?IBBCAAAAAAAAA@$0CL@$0FIFBPECNEMJFHPCN@@0@@Z DD imagerel $LN12
	DD	imagerel $LN12+368
	DD	imagerel $unwind$??$generate_canonical@N$0?0V?$mersenne_twister_engine@_K$0EA@$0BDI@$0JM@$0BP@$0?EKPNJAKFFGJJOGBH@$0BN@$0FFFFFFFFFFFFFFFF@$0BB@$0HBNGHPPPONKGAAAA@$0CF@$0?IBBCAAAAAAAAA@$0CL@$0FIFBPECNEMJFHPCN@@std@@@std@@YANAEAV?$mersenne_twister_engine@_K$0EA@$0BDI@$0JM@$0BP@$0?EKPNJAKFFGJJOGBH@$0BN@$0FFFFFFFFFFFFFFFF@$0BB@$0HBNGHPPPONKGAAAA@$0CF@$0?IBBCAAAAAAAAA@$0CL@$0FIFBPECNEMJFHPCN@@0@@Z
pdata	ENDS
;	COMDAT pdata
pdata	SEGMENT
$pdata$??$destroy@PEAD@?$allocator@D@std@@QEAAXPEAPEAD@Z DD imagerel $LN3
	DD	imagerel $LN3+24
	DD	imagerel $unwind$??$destroy@PEAD@?$allocator@D@std@@QEAAXPEAPEAD@Z
pdata	ENDS
;	COMDAT pdata
pdata	SEGMENT
$pdata$??$construct@PEADAEAPEAD@?$allocator@D@std@@QEAAXPEAPEADAEAPEAD@Z DD imagerel $LN5
	DD	imagerel $LN5+93
	DD	imagerel $unwind$??$construct@PEADAEAPEAD@?$allocator@D@std@@QEAAXPEAPEADAEAPEAD@Z
pdata	ENDS
;	COMDAT pdata
pdata	SEGMENT
$pdata$??$destroy@U_Container_proxy@std@@@?$allocator@U_Container_proxy@std@@@std@@QEAAXPEAU_Container_proxy@1@@Z DD imagerel $LN3
	DD	imagerel $LN3+24
	DD	imagerel $unwind$??$destroy@U_Container_proxy@std@@@?$allocator@U_Container_proxy@std@@@std@@QEAAXPEAU_Container_proxy@1@@Z
pdata	ENDS
;	COMDAT pdata
pdata	SEGMENT
$pdata$??$construct@U_Container_proxy@std@@U12@@?$allocator@U_Container_proxy@std@@@std@@QEAAXPEAU_Container_proxy@1@$$QEAU21@@Z DD imagerel $LN5
	DD	imagerel $LN5+104
	DD	imagerel $unwind$??$construct@U_Container_proxy@std@@U12@@?$allocator@U_Container_proxy@std@@@std@@QEAAXPEAU_Container_proxy@1@$$QEAU21@@Z
pdata	ENDS
;	COMDAT pdata
pdata	SEGMENT
$pdata$??$_Addressof@Vrandom_device@std@@@std@@YAPEAVrandom_device@0@AEAV10@U?$integral_constant@_N$0A@@0@@Z DD imagerel $LN3
	DD	imagerel $LN3+27
	DD	imagerel $unwind$??$_Addressof@Vrandom_device@std@@@std@@YAPEAVrandom_device@0@AEAV10@U?$integral_constant@_N$0A@@0@@Z
pdata	ENDS
;	COMDAT pdata
pdata	SEGMENT
$pdata$??$addressof@$$CBI@std@@YAPEBIAEBI@Z DD imagerel $LN3
	DD	imagerel $LN3+34
	DD	imagerel $unwind$??$addressof@$$CBI@std@@YAPEBIAEBI@Z
pdata	ENDS
;	COMDAT pdata
pdata	SEGMENT
$pdata$??$construct@IAEAI@?$_Wrap_alloc@V?$allocator@I@std@@@std@@QEAAXPEAIAEAI@Z DD imagerel $LN3
	DD	imagerel $LN3+56
	DD	imagerel $unwind$??$construct@IAEAI@?$_Wrap_alloc@V?$allocator@I@std@@@std@@QEAAXPEAIAEAI@Z
pdata	ENDS
;	COMDAT pdata
pdata	SEGMENT
$pdata$??$construct@IAEBI@?$_Wrap_alloc@V?$allocator@I@std@@@std@@QEAAXPEAIAEBI@Z DD imagerel $LN3
	DD	imagerel $LN3+56
	DD	imagerel $unwind$??$construct@IAEBI@?$_Wrap_alloc@V?$allocator@I@std@@@std@@QEAAXPEAIAEBI@Z
pdata	ENDS
;	COMDAT pdata
pdata	SEGMENT
$pdata$??$_Umove@PEAI@?$vector@IV?$allocator@I@std@@@std@@IEAAPEAIPEAI00@Z DD imagerel $LN3
	DD	imagerel $LN3+65
	DD	imagerel $unwind$??$_Umove@PEAI@?$vector@IV?$allocator@I@std@@@std@@IEAAPEAIPEAI00@Z
pdata	ENDS
;	COMDAT pdata
pdata	SEGMENT
$pdata$??$_Debug_pointer@V?$_Array_iterator@I$0BA@@std@@@std@@YAXAEAV?$_Array_iterator@I$0BA@@0@PEB_WI@Z DD imagerel $LN3
	DD	imagerel $LN3+29
	DD	imagerel $unwind$??$_Debug_pointer@V?$_Array_iterator@I$0BA@@std@@@std@@YAXAEAV?$_Array_iterator@I$0BA@@0@PEB_WI@Z
pdata	ENDS
;	COMDAT pdata
pdata	SEGMENT
$pdata$??$_Debug_pointer@V?$reference_wrapper@Vrandom_device@std@@@std@@@std@@YAXAEAV?$reference_wrapper@Vrandom_device@std@@@0@PEB_WI@Z DD imagerel $LN3
	DD	imagerel $LN3+29
	DD	imagerel $unwind$??$_Debug_pointer@V?$reference_wrapper@Vrandom_device@std@@@std@@@std@@YAXAEAV?$reference_wrapper@Vrandom_device@std@@@0@PEB_WI@Z
pdata	ENDS
;	COMDAT pdata
pdata	SEGMENT
$pdata$??$_Addressof@$$CBI@std@@YAPEBIAEBIU?$integral_constant@_N$0A@@0@@Z DD imagerel $LN3
	DD	imagerel $LN3+27
	DD	imagerel $unwind$??$_Addressof@$$CBI@std@@YAPEBIAEBIU?$integral_constant@_N$0A@@0@@Z
pdata	ENDS
;	COMDAT pdata
pdata	SEGMENT
$pdata$??$forward@AEAI@std@@YAAEAIAEAI@Z DD imagerel $LN3
	DD	imagerel $LN3+23
	DD	imagerel $unwind$??$forward@AEAI@std@@YAAEAIAEAI@Z
pdata	ENDS
;	COMDAT pdata
pdata	SEGMENT
$pdata$??$construct@IAEAI@?$allocator_traits@V?$allocator@I@std@@@std@@SAXAEAV?$allocator@I@1@PEAIAEAI@Z DD imagerel $LN3
	DD	imagerel $LN3+56
	DD	imagerel $unwind$??$construct@IAEAI@?$allocator_traits@V?$allocator@I@std@@@std@@SAXAEAV?$allocator@I@1@PEAIAEAI@Z
pdata	ENDS
;	COMDAT pdata
pdata	SEGMENT
$pdata$??$forward@AEBI@std@@YAAEBIAEBI@Z DD imagerel $LN3
	DD	imagerel $LN3+23
	DD	imagerel $unwind$??$forward@AEBI@std@@YAAEBIAEBI@Z
pdata	ENDS
;	COMDAT pdata
pdata	SEGMENT
$pdata$??$construct@IAEBI@?$allocator_traits@V?$allocator@I@std@@@std@@SAXAEAV?$allocator@I@1@PEAIAEBI@Z DD imagerel $LN3
	DD	imagerel $LN3+56
	DD	imagerel $unwind$??$construct@IAEBI@?$allocator_traits@V?$allocator@I@std@@@std@@SAXAEAV?$allocator@I@1@PEAIAEBI@Z
pdata	ENDS
;	COMDAT pdata
pdata	SEGMENT
$pdata$??$_Uninitialized_move@PEAIPEAIU?$_Wrap_alloc@V?$allocator@I@std@@@std@@@std@@YAPEAIPEAI00AEAU?$_Wrap_alloc@V?$allocator@I@std@@@0@@Z DD imagerel $LN3
	DD	imagerel $LN3+112
	DD	imagerel $unwind$??$_Uninitialized_move@PEAIPEAIU?$_Wrap_alloc@V?$allocator@I@std@@@std@@@std@@YAPEAIPEAI00AEAU?$_Wrap_alloc@V?$allocator@I@std@@@0@@Z
pdata	ENDS
;	COMDAT pdata
pdata	SEGMENT
$pdata$??$construct@IAEAI@?$allocator@I@std@@QEAAXPEAIAEAI@Z DD imagerel $LN5
	DD	imagerel $LN5+91
	DD	imagerel $unwind$??$construct@IAEAI@?$allocator@I@std@@QEAAXPEAIAEAI@Z
pdata	ENDS
;	COMDAT pdata
pdata	SEGMENT
$pdata$??$construct@IAEBI@?$allocator@I@std@@QEAAXPEAIAEBI@Z DD imagerel $LN5
	DD	imagerel $LN5+91
	DD	imagerel $unwind$??$construct@IAEBI@?$allocator@I@std@@QEAAXPEAIAEBI@Z
pdata	ENDS
;	COMDAT pdata
pdata	SEGMENT
$pdata$??$_Unchecked@PEAI@std@@YAPEAIPEAI@Z DD imagerel $LN3
	DD	imagerel $LN3+23
	DD	imagerel $unwind$??$_Unchecked@PEAI@std@@YAPEAIPEAI@Z
pdata	ENDS
;	COMDAT pdata
pdata	SEGMENT
$pdata$??$_Uninit_move@PEAIPEAIU?$_Wrap_alloc@V?$allocator@I@std@@@std@@@std@@YAPEAIPEAI00AEAU?$_Wrap_alloc@V?$allocator@I@std@@@0@@Z DD imagerel $LN3
	DD	imagerel $LN3+98
	DD	imagerel $unwind$??$_Uninit_move@PEAIPEAIU?$_Wrap_alloc@V?$allocator@I@std@@@std@@@std@@YAPEAIPEAI00AEAU?$_Wrap_alloc@V?$allocator@I@std@@@0@@Z
pdata	ENDS
;	COMDAT pdata
pdata	SEGMENT
$pdata$??$_Rechecked@PEAIPEAI@std@@YAAEAPEAIAEAPEAIPEAI@Z DD imagerel $LN3
	DD	imagerel $LN3+39
	DD	imagerel $unwind$??$_Rechecked@PEAIPEAI@std@@YAAEAPEAIAEAPEAIPEAI@Z
pdata	ENDS
;	COMDAT pdata
pdata	SEGMENT
$pdata$??$_Val_type@PEAI@std@@YAPEAIPEAI@Z DD imagerel $LN3
	DD	imagerel $LN3+21
	DD	imagerel $unwind$??$_Val_type@PEAI@std@@YAPEAIPEAI@Z
pdata	ENDS
;	COMDAT pdata
pdata	SEGMENT
$pdata$??$_Uninit_move@III@std@@YAPEAIPEAI00AEAU?$_Wrap_alloc@V?$allocator@I@std@@@0@0U_Scalar_ptr_iterator_tag@0@@Z DD imagerel $LN3
	DD	imagerel $LN3+126
	DD	imagerel $unwind$??$_Uninit_move@III@std@@YAPEAIPEAI00AEAU?$_Wrap_alloc@V?$allocator@I@std@@@0@0U_Scalar_ptr_iterator_tag@0@@Z
pdata	ENDS
;	COMDAT pdata
pdata	SEGMENT
$pdata$??$_Debug_range_ptr@PEAIPEAI@std@@YAXPEAI0AEAPEAIPEB_WI@Z DD imagerel $LN3
	DD	imagerel $LN3+90
	DD	imagerel $unwind$??$_Debug_range_ptr@PEAIPEAI@std@@YAXPEAI0AEAPEAIPEB_WI@Z
pdata	ENDS
;	COMDAT pdata
pdata	SEGMENT
$pdata$??$_Iter_cat@PEAI@std@@YA?AUrandom_access_iterator_tag@0@AEBQEAI@Z DD imagerel $LN3
	DD	imagerel $LN3+38
	DD	imagerel $unwind$??$_Iter_cat@PEAI@std@@YA?AUrandom_access_iterator_tag@0@AEBQEAI@Z
pdata	ENDS
;	COMDAT pdata
pdata	SEGMENT
$pdata$??$_Debug_range_ptr2@PEAIPEAI@std@@YAXPEAI0AEAPEAIPEB_WIUrandom_access_iterator_tag@0@@Z DD imagerel $LN5
	DD	imagerel $LN5+131
	DD	imagerel $unwind$??$_Debug_range_ptr2@PEAIPEAI@std@@YAXPEAI0AEAPEAIPEB_WIUrandom_access_iterator_tag@0@@Z
pdata	ENDS
;	COMDAT pdata
pdata	SEGMENT
$pdata$??$_Debug_pointer@I@std@@YAXPEAIPEB_WI@Z DD imagerel $LN4
	DD	imagerel $LN4+59
	DD	imagerel $unwind$??$_Debug_pointer@I@std@@YAXPEAIPEB_WI@Z
pdata	ENDS
CRT$XCU	SEGMENT
?ANX$initializer$@@3P6AXXZEA DQ FLAT:??__EANX@@YAXXZ	; ANX$initializer$
CRT$XCU	ENDS
;	COMDAT __xmm@80000000000000008000000000000000
CONST	SEGMENT
__xmm@80000000000000008000000000000000 DB 00H, 00H, 00H, 00H, 00H, 00H, 00H
	DB	080H, 00H, 00H, 00H, 00H, 00H, 00H, 00H, 080H
CONST	ENDS
;	COMDAT __real@7fefffffffffffff
CONST	SEGMENT
__real@7fefffffffffffff DQ 07fefffffffffffffr	; 1.79769e+308
CONST	ENDS
;	COMDAT __real@43f0000000000000
CONST	SEGMENT
__real@43f0000000000000 DQ 043f0000000000000r	; 1.84467e+19
CONST	ENDS
;	COMDAT __real@4059000000000000
CONST	SEGMENT
__real@4059000000000000 DQ 04059000000000000r	; 100
CONST	ENDS
;	COMDAT __real@4049000000000000
CONST	SEGMENT
__real@4049000000000000 DQ 04049000000000000r	; 50
CONST	ENDS
;	COMDAT __real@4000000000000000
CONST	SEGMENT
__real@4000000000000000 DQ 04000000000000000r	; 2
CONST	ENDS
;	COMDAT __real@3ff0000000000000
CONST	SEGMENT
__real@3ff0000000000000 DQ 03ff0000000000000r	; 1
CONST	ENDS
;	COMDAT __real@3fe0000000000000
CONST	SEGMENT
__real@3fe0000000000000 DQ 03fe0000000000000r	; 0.5
CONST	ENDS
;	COMDAT __real@0000000000000000
CONST	SEGMENT
__real@0000000000000000 DQ 00000000000000000r	; 0
CONST	ENDS
;	COMDAT rtc$TMZ
rtc$TMZ	SEGMENT
_RTC_Shutdown.rtc$TMZ DQ FLAT:_RTC_Shutdown
rtc$TMZ	ENDS
;	COMDAT rtc$IMZ
rtc$IMZ	SEGMENT
_RTC_InitBase.rtc$IMZ DQ FLAT:_RTC_InitBase
rtc$IMZ	ENDS
;	COMDAT ??_C@_1IO@KOLLFFAJ@?$AAc?$AA?3?$AA?2?$AAp?$AAr?$AAo?$AAg?$AAr?$AAa?$AAm?$AA?5?$AAf?$AAi?$AAl?$AAe?$AAs?$AA?5?$AA?$CI?$AAx?$AA8?$AA6?$AA?$CJ?$AA?2?$AAm?$AAi?$AAc?$AAr?$AAo?$AAs?$AAo?$AAf?$AAt@
CONST	SEGMENT
??_C@_1IO@KOLLFFAJ@?$AAc?$AA?3?$AA?2?$AAp?$AAr?$AAo?$AAg?$AAr?$AAa?$AAm?$AA?5?$AAf?$AAi?$AAl?$AAe?$AAs?$AA?5?$AA?$CI?$AAx?$AA8?$AA6?$AA?$CJ?$AA?2?$AAm?$AAi?$AAc?$AAr?$AAo?$AAs?$AAo?$AAf?$AAt@ DB 'c'
	DB	00H, ':', 00H, '\', 00H, 'p', 00H, 'r', 00H, 'o', 00H, 'g', 00H
	DB	'r', 00H, 'a', 00H, 'm', 00H, ' ', 00H, 'f', 00H, 'i', 00H, 'l'
	DB	00H, 'e', 00H, 's', 00H, ' ', 00H, '(', 00H, 'x', 00H, '8', 00H
	DB	'6', 00H, ')', 00H, '\', 00H, 'm', 00H, 'i', 00H, 'c', 00H, 'r'
	DB	00H, 'o', 00H, 's', 00H, 'o', 00H, 'f', 00H, 't', 00H, ' ', 00H
	DB	'v', 00H, 'i', 00H, 's', 00H, 'u', 00H, 'a', 00H, 'l', 00H, ' '
	DB	00H, 's', 00H, 't', 00H, 'u', 00H, 'd', 00H, 'i', 00H, 'o', 00H
	DB	' ', 00H, '1', 00H, '4', 00H, '.', 00H, '0', 00H, '\', 00H, 'v'
	DB	00H, 'c', 00H, '\', 00H, 'i', 00H, 'n', 00H, 'c', 00H, 'l', 00H
	DB	'u', 00H, 'd', 00H, 'e', 00H, '\', 00H, 'x', 00H, 'm', 00H, 'e'
	DB	00H, 'm', 00H, 'o', 00H, 'r', 00H, 'y', 00H, 00H, 00H ; `string'
CONST	ENDS
;	COMDAT ??_C@_1JG@ILDNFCDK@?$AAs?$AAt?$AAd?$AA?3?$AA?3?$AAv?$AAe?$AAc?$AAt?$AAo?$AAr?$AA?$DM?$AAu?$AAn?$AAs?$AAi?$AAg?$AAn?$AAe?$AAd?$AA?5?$AAi?$AAn?$AAt?$AA?0?$AAc?$AAl?$AAa?$AAs?$AAs?$AA?5?$AAs@
CONST	SEGMENT
??_C@_1JG@ILDNFCDK@?$AAs?$AAt?$AAd?$AA?3?$AA?3?$AAv?$AAe?$AAc?$AAt?$AAo?$AAr?$AA?$DM?$AAu?$AAn?$AAs?$AAi?$AAg?$AAn?$AAe?$AAd?$AA?5?$AAi?$AAn?$AAt?$AA?0?$AAc?$AAl?$AAa?$AAs?$AAs?$AA?5?$AAs@ DB 's'
	DB	00H, 't', 00H, 'd', 00H, ':', 00H, ':', 00H, 'v', 00H, 'e', 00H
	DB	'c', 00H, 't', 00H, 'o', 00H, 'r', 00H, '<', 00H, 'u', 00H, 'n'
	DB	00H, 's', 00H, 'i', 00H, 'g', 00H, 'n', 00H, 'e', 00H, 'd', 00H
	DB	' ', 00H, 'i', 00H, 'n', 00H, 't', 00H, ',', 00H, 'c', 00H, 'l'
	DB	00H, 'a', 00H, 's', 00H, 's', 00H, ' ', 00H, 's', 00H, 't', 00H
	DB	'd', 00H, ':', 00H, ':', 00H, 'a', 00H, 'l', 00H, 'l', 00H, 'o'
	DB	00H, 'c', 00H, 'a', 00H, 't', 00H, 'o', 00H, 'r', 00H, '<', 00H
	DB	'u', 00H, 'n', 00H, 's', 00H, 'i', 00H, 'g', 00H, 'n', 00H, 'e'
	DB	00H, 'd', 00H, ' ', 00H, 'i', 00H, 'n', 00H, 't', 00H, '>', 00H
	DB	' ', 00H, '>', 00H, ':', 00H, ':', 00H, 'o', 00H, 'p', 00H, 'e'
	DB	00H, 'r', 00H, 'a', 00H, 't', 00H, 'o', 00H, 'r', 00H, ' ', 00H
	DB	'[', 00H, ']', 00H, 00H, 00H			; `string'
CONST	ENDS
;	COMDAT ??_C@_0BD@OLBABOEK@vector?$DMT?$DO?5too?5long?$AA@
CONST	SEGMENT
??_C@_0BD@OLBABOEK@vector?$DMT?$DO?5too?5long?$AA@ DB 'vector<T> too long'
	DB	00H						; `string'
CONST	ENDS
;	COMDAT ??_C@_1GK@BCGDDFPP@?$AAs?$AAt?$AAd?$AA?3?$AA?3?$AA_?$AAA?$AAr?$AAr?$AAa?$AAy?$AA_?$AAc?$AAo?$AAn?$AAs?$AAt?$AA_?$AAi?$AAt?$AAe?$AAr?$AAa?$AAt?$AAo?$AAr?$AA?$DM?$AAu?$AAn?$AAs?$AAi?$AAg@
CONST	SEGMENT
??_C@_1GK@BCGDDFPP@?$AAs?$AAt?$AAd?$AA?3?$AA?3?$AA_?$AAA?$AAr?$AAr?$AAa?$AAy?$AA_?$AAc?$AAo?$AAn?$AAs?$AAt?$AA_?$AAi?$AAt?$AAe?$AAr?$AAa?$AAt?$AAo?$AAr?$AA?$DM?$AAu?$AAn?$AAs?$AAi?$AAg@ DB 's'
	DB	00H, 't', 00H, 'd', 00H, ':', 00H, ':', 00H, '_', 00H, 'A', 00H
	DB	'r', 00H, 'r', 00H, 'a', 00H, 'y', 00H, '_', 00H, 'c', 00H, 'o'
	DB	00H, 'n', 00H, 's', 00H, 't', 00H, '_', 00H, 'i', 00H, 't', 00H
	DB	'e', 00H, 'r', 00H, 'a', 00H, 't', 00H, 'o', 00H, 'r', 00H, '<'
	DB	00H, 'u', 00H, 'n', 00H, 's', 00H, 'i', 00H, 'g', 00H, 'n', 00H
	DB	'e', 00H, 'd', 00H, ' ', 00H, 'i', 00H, 'n', 00H, 't', 00H, ','
	DB	00H, '1', 00H, '6', 00H, '>', 00H, ':', 00H, ':', 00H, '_', 00H
	DB	'C', 00H, 'o', 00H, 'm', 00H, 'p', 00H, 'a', 00H, 't', 00H, 00H
	DB	00H						; `string'
CONST	ENDS
;	COMDAT ??_C@_1FO@GJIHNDLM@?$AA?$CC?$AAS?$AAt?$AAa?$AAn?$AAd?$AAa?$AAr?$AAd?$AA?5?$AAC?$AA?$CL?$AA?$CL?$AA?5?$AAL?$AAi?$AAb?$AAr?$AAa?$AAr?$AAi?$AAe?$AAs?$AA?5?$AAI?$AAn?$AAv?$AAa?$AAl?$AAi?$AAd?$AA?5@
CONST	SEGMENT
??_C@_1FO@GJIHNDLM@?$AA?$CC?$AAS?$AAt?$AAa?$AAn?$AAd?$AAa?$AAr?$AAd?$AA?5?$AAC?$AA?$CL?$AA?$CL?$AA?5?$AAL?$AAi?$AAb?$AAr?$AAa?$AAr?$AAi?$AAe?$AAs?$AA?5?$AAI?$AAn?$AAv?$AAa?$AAl?$AAi?$AAd?$AA?5@ DB '"'
	DB	00H, 'S', 00H, 't', 00H, 'a', 00H, 'n', 00H, 'd', 00H, 'a', 00H
	DB	'r', 00H, 'd', 00H, ' ', 00H, 'C', 00H, '+', 00H, '+', 00H, ' '
	DB	00H, 'L', 00H, 'i', 00H, 'b', 00H, 'r', 00H, 'a', 00H, 'r', 00H
	DB	'i', 00H, 'e', 00H, 's', 00H, ' ', 00H, 'I', 00H, 'n', 00H, 'v'
	DB	00H, 'a', 00H, 'l', 00H, 'i', 00H, 'd', 00H, ' ', 00H, 'A', 00H
	DB	'r', 00H, 'g', 00H, 'u', 00H, 'm', 00H, 'e', 00H, 'n', 00H, 't'
	DB	00H, '"', 00H, ' ', 00H, '&', 00H, '&', 00H, ' ', 00H, '0', 00H
	DB	00H, 00H					; `string'
CONST	ENDS
;	COMDAT ??_C@_0CI@FNPHFCCM@Standard?5C?$CL?$CL?5Libraries?5Invalid?5A@
CONST	SEGMENT
??_C@_0CI@FNPHFCCM@Standard?5C?$CL?$CL?5Libraries?5Invalid?5A@ DB 'Standa'
	DB	'rd C++ Libraries Invalid Argument', 00H	; `string'
CONST	ENDS
;	COMDAT ??_C@_1DK@DIFJPLMN@?$AAa?$AAr?$AAr?$AAa?$AAy?$AA?5?$AAi?$AAt?$AAe?$AAr?$AAa?$AAt?$AAo?$AAr?$AAs?$AA?5?$AAi?$AAn?$AAc?$AAo?$AAm?$AAp?$AAa?$AAt?$AAi?$AAb?$AAl?$AAe?$AA?$AA@
CONST	SEGMENT
??_C@_1DK@DIFJPLMN@?$AAa?$AAr?$AAr?$AAa?$AAy?$AA?5?$AAi?$AAt?$AAe?$AAr?$AAa?$AAt?$AAo?$AAr?$AAs?$AA?5?$AAi?$AAn?$AAc?$AAo?$AAm?$AAp?$AAa?$AAt?$AAi?$AAb?$AAl?$AAe?$AA?$AA@ DB 'a'
	DB	00H, 'r', 00H, 'r', 00H, 'a', 00H, 'y', 00H, ' ', 00H, 'i', 00H
	DB	't', 00H, 'e', 00H, 'r', 00H, 'a', 00H, 't', 00H, 'o', 00H, 'r'
	DB	00H, 's', 00H, ' ', 00H, 'i', 00H, 'n', 00H, 'c', 00H, 'o', 00H
	DB	'm', 00H, 'p', 00H, 'a', 00H, 't', 00H, 'i', 00H, 'b', 00H, 'l'
	DB	00H, 'e', 00H, 00H, 00H			; `string'
CONST	ENDS
;	COMDAT ??_C@_1HA@CDJJKAOM@?$AAs?$AAt?$AAd?$AA?3?$AA?3?$AA_?$AAA?$AAr?$AAr?$AAa?$AAy?$AA_?$AAc?$AAo?$AAn?$AAs?$AAt?$AA_?$AAi?$AAt?$AAe?$AAr?$AAa?$AAt?$AAo?$AAr?$AA?$DM?$AAu?$AAn?$AAs?$AAi?$AAg@
CONST	SEGMENT
??_C@_1HA@CDJJKAOM@?$AAs?$AAt?$AAd?$AA?3?$AA?3?$AA_?$AAA?$AAr?$AAr?$AAa?$AAy?$AA_?$AAc?$AAo?$AAn?$AAs?$AAt?$AA_?$AAi?$AAt?$AAe?$AAr?$AAa?$AAt?$AAo?$AAr?$AA?$DM?$AAu?$AAn?$AAs?$AAi?$AAg@ DB 's'
	DB	00H, 't', 00H, 'd', 00H, ':', 00H, ':', 00H, '_', 00H, 'A', 00H
	DB	'r', 00H, 'r', 00H, 'a', 00H, 'y', 00H, '_', 00H, 'c', 00H, 'o'
	DB	00H, 'n', 00H, 's', 00H, 't', 00H, '_', 00H, 'i', 00H, 't', 00H
	DB	'e', 00H, 'r', 00H, 'a', 00H, 't', 00H, 'o', 00H, 'r', 00H, '<'
	DB	00H, 'u', 00H, 'n', 00H, 's', 00H, 'i', 00H, 'g', 00H, 'n', 00H
	DB	'e', 00H, 'd', 00H, ' ', 00H, 'i', 00H, 'n', 00H, 't', 00H, ','
	DB	00H, '1', 00H, '6', 00H, '>', 00H, ':', 00H, ':', 00H, 'o', 00H
	DB	'p', 00H, 'e', 00H, 'r', 00H, 'a', 00H, 't', 00H, 'o', 00H, 'r'
	DB	00H, ' ', 00H, '*', 00H, 00H, 00H		; `string'
CONST	ENDS
;	COMDAT ??_C@_1EE@OHAMEJNE@?$AAa?$AAr?$AAr?$AAa?$AAy?$AA?5?$AAi?$AAt?$AAe?$AAr?$AAa?$AAt?$AAo?$AAr?$AA?5?$AAn?$AAo?$AAt?$AA?5?$AAd?$AAe?$AAr?$AAe?$AAf?$AAe?$AAr?$AAe?$AAn?$AAc?$AAa?$AAb?$AAl@
CONST	SEGMENT
??_C@_1EE@OHAMEJNE@?$AAa?$AAr?$AAr?$AAa?$AAy?$AA?5?$AAi?$AAt?$AAe?$AAr?$AAa?$AAt?$AAo?$AAr?$AA?5?$AAn?$AAo?$AAt?$AA?5?$AAd?$AAe?$AAr?$AAe?$AAf?$AAe?$AAr?$AAe?$AAn?$AAc?$AAa?$AAb?$AAl@ DB 'a'
	DB	00H, 'r', 00H, 'r', 00H, 'a', 00H, 'y', 00H, ' ', 00H, 'i', 00H
	DB	't', 00H, 'e', 00H, 'r', 00H, 'a', 00H, 't', 00H, 'o', 00H, 'r'
	DB	00H, ' ', 00H, 'n', 00H, 'o', 00H, 't', 00H, ' ', 00H, 'd', 00H
	DB	'e', 00H, 'r', 00H, 'e', 00H, 'f', 00H, 'e', 00H, 'r', 00H, 'e'
	DB	00H, 'n', 00H, 'c', 00H, 'a', 00H, 'b', 00H, 'l', 00H, 'e', 00H
	DB	00H, 00H					; `string'
CONST	ENDS
;	COMDAT ??_C@_1HC@JIHCMHAL@?$AAs?$AAt?$AAd?$AA?3?$AA?3?$AA_?$AAA?$AAr?$AAr?$AAa?$AAy?$AA_?$AAc?$AAo?$AAn?$AAs?$AAt?$AA_?$AAi?$AAt?$AAe?$AAr?$AAa?$AAt?$AAo?$AAr?$AA?$DM?$AAu?$AAn?$AAs?$AAi?$AAg@
CONST	SEGMENT
??_C@_1HC@JIHCMHAL@?$AAs?$AAt?$AAd?$AA?3?$AA?3?$AA_?$AAA?$AAr?$AAr?$AAa?$AAy?$AA_?$AAc?$AAo?$AAn?$AAs?$AAt?$AA_?$AAi?$AAt?$AAe?$AAr?$AAa?$AAt?$AAo?$AAr?$AA?$DM?$AAu?$AAn?$AAs?$AAi?$AAg@ DB 's'
	DB	00H, 't', 00H, 'd', 00H, ':', 00H, ':', 00H, '_', 00H, 'A', 00H
	DB	'r', 00H, 'r', 00H, 'a', 00H, 'y', 00H, '_', 00H, 'c', 00H, 'o'
	DB	00H, 'n', 00H, 's', 00H, 't', 00H, '_', 00H, 'i', 00H, 't', 00H
	DB	'e', 00H, 'r', 00H, 'a', 00H, 't', 00H, 'o', 00H, 'r', 00H, '<'
	DB	00H, 'u', 00H, 'n', 00H, 's', 00H, 'i', 00H, 'g', 00H, 'n', 00H
	DB	'e', 00H, 'd', 00H, ' ', 00H, 'i', 00H, 'n', 00H, 't', 00H, ','
	DB	00H, '1', 00H, '6', 00H, '>', 00H, ':', 00H, ':', 00H, 'o', 00H
	DB	'p', 00H, 'e', 00H, 'r', 00H, 'a', 00H, 't', 00H, 'o', 00H, 'r'
	DB	00H, ' ', 00H, '+', 00H, '+', 00H, 00H, 00H	; `string'
CONST	ENDS
;	COMDAT ??_C@_1EC@CPHNALLJ@?$AAa?$AAr?$AAr?$AAa?$AAy?$AA?5?$AAi?$AAt?$AAe?$AAr?$AAa?$AAt?$AAo?$AAr?$AA?5?$AAn?$AAo?$AAt?$AA?5?$AAi?$AAn?$AAc?$AAr?$AAe?$AAm?$AAe?$AAn?$AAt?$AAa?$AAb?$AAl?$AAe@
CONST	SEGMENT
??_C@_1EC@CPHNALLJ@?$AAa?$AAr?$AAr?$AAa?$AAy?$AA?5?$AAi?$AAt?$AAe?$AAr?$AAa?$AAt?$AAo?$AAr?$AA?5?$AAn?$AAo?$AAt?$AA?5?$AAi?$AAn?$AAc?$AAr?$AAe?$AAm?$AAe?$AAn?$AAt?$AAa?$AAb?$AAl?$AAe@ DB 'a'
	DB	00H, 'r', 00H, 'r', 00H, 'a', 00H, 'y', 00H, ' ', 00H, 'i', 00H
	DB	't', 00H, 'e', 00H, 'r', 00H, 'a', 00H, 't', 00H, 'o', 00H, 'r'
	DB	00H, ' ', 00H, 'n', 00H, 'o', 00H, 't', 00H, ' ', 00H, 'i', 00H
	DB	'n', 00H, 'c', 00H, 'r', 00H, 'e', 00H, 'm', 00H, 'e', 00H, 'n'
	DB	00H, 't', 00H, 'a', 00H, 'b', 00H, 'l', 00H, 'e', 00H, 00H, 00H ; `string'
CONST	ENDS
;	COMDAT ??_C@_1CO@DGLIKNHI@?$AAi?$AAn?$AAv?$AAa?$AAl?$AAi?$AAd?$AA?5?$AAi?$AAt?$AAe?$AAr?$AAa?$AAt?$AAo?$AAr?$AA?5?$AAr?$AAa?$AAn?$AAg?$AAe?$AA?$AA@
CONST	SEGMENT
??_C@_1CO@DGLIKNHI@?$AAi?$AAn?$AAv?$AAa?$AAl?$AAi?$AAd?$AA?5?$AAi?$AAt?$AAe?$AAr?$AAa?$AAt?$AAo?$AAr?$AA?5?$AAr?$AAa?$AAn?$AAg?$AAe?$AA?$AA@ DB 'i'
	DB	00H, 'n', 00H, 'v', 00H, 'a', 00H, 'l', 00H, 'i', 00H, 'd', 00H
	DB	' ', 00H, 'i', 00H, 't', 00H, 'e', 00H, 'r', 00H, 'a', 00H, 't'
	DB	00H, 'o', 00H, 'r', 00H, ' ', 00H, 'r', 00H, 'a', 00H, 'n', 00H
	DB	'g', 00H, 'e', 00H, 00H, 00H			; `string'
CONST	ENDS
;	COMDAT ??_C@_1CK@EOPGIILJ@?$AAi?$AAn?$AAv?$AAa?$AAl?$AAi?$AAd?$AA?5?$AAn?$AAu?$AAl?$AAl?$AA?5?$AAp?$AAo?$AAi?$AAn?$AAt?$AAe?$AAr?$AA?$AA@
CONST	SEGMENT
??_C@_1CK@EOPGIILJ@?$AAi?$AAn?$AAv?$AAa?$AAl?$AAi?$AAd?$AA?5?$AAn?$AAu?$AAl?$AAl?$AA?5?$AAp?$AAo?$AAi?$AAn?$AAt?$AAe?$AAr?$AA?$AA@ DB 'i'
	DB	00H, 'n', 00H, 'v', 00H, 'a', 00H, 'l', 00H, 'i', 00H, 'd', 00H
	DB	' ', 00H, 'n', 00H, 'u', 00H, 'l', 00H, 'l', 00H, ' ', 00H, 'p'
	DB	00H, 'o', 00H, 'i', 00H, 'n', 00H, 't', 00H, 'e', 00H, 'r', 00H
	DB	00H, 00H					; `string'
CONST	ENDS
;	COMDAT ??_C@_1JC@ELNBGKIG@?$AAc?$AA?3?$AA?2?$AAp?$AAr?$AAo?$AAg?$AAr?$AAa?$AAm?$AA?5?$AAf?$AAi?$AAl?$AAe?$AAs?$AA?5?$AA?$CI?$AAx?$AA8?$AA6?$AA?$CJ?$AA?2?$AAm?$AAi?$AAc?$AAr?$AAo?$AAs?$AAo?$AAf?$AAt@
CONST	SEGMENT
??_C@_1JC@ELNBGKIG@?$AAc?$AA?3?$AA?2?$AAp?$AAr?$AAo?$AAg?$AAr?$AAa?$AAm?$AA?5?$AAf?$AAi?$AAl?$AAe?$AAs?$AA?5?$AA?$CI?$AAx?$AA8?$AA6?$AA?$CJ?$AA?2?$AAm?$AAi?$AAc?$AAr?$AAo?$AAs?$AAo?$AAf?$AAt@ DB 'c'
	DB	00H, ':', 00H, '\', 00H, 'p', 00H, 'r', 00H, 'o', 00H, 'g', 00H
	DB	'r', 00H, 'a', 00H, 'm', 00H, ' ', 00H, 'f', 00H, 'i', 00H, 'l'
	DB	00H, 'e', 00H, 's', 00H, ' ', 00H, '(', 00H, 'x', 00H, '8', 00H
	DB	'6', 00H, ')', 00H, '\', 00H, 'm', 00H, 'i', 00H, 'c', 00H, 'r'
	DB	00H, 'o', 00H, 's', 00H, 'o', 00H, 'f', 00H, 't', 00H, ' ', 00H
	DB	'v', 00H, 'i', 00H, 's', 00H, 'u', 00H, 'a', 00H, 'l', 00H, ' '
	DB	00H, 's', 00H, 't', 00H, 'u', 00H, 'd', 00H, 'i', 00H, 'o', 00H
	DB	' ', 00H, '1', 00H, '4', 00H, '.', 00H, '0', 00H, '\', 00H, 'v'
	DB	00H, 'c', 00H, '\', 00H, 'i', 00H, 'n', 00H, 'c', 00H, 'l', 00H
	DB	'u', 00H, 'd', 00H, 'e', 00H, '\', 00H, 'a', 00H, 'l', 00H, 'g'
	DB	00H, 'o', 00H, 'r', 00H, 'i', 00H, 't', 00H, 'h', 00H, 'm', 00H
	DB	00H, 00H					; `string'
CONST	ENDS
;	COMDAT ??_C@_0HM@GHBBOBBO@c?3?2program?5files?5?$CIx86?$CJ?2microsoft@
CONST	SEGMENT
??_C@_0HM@GHBBOBBO@c?3?2program?5files?5?$CIx86?$CJ?2microsoft@ DB 'c:\pr'
	DB	'ogram files (x86)\microsoft visual studio 14.0\vc\include\ran'
	DB	'dom(3470): invalid min and max arguments for uniform_real', 00H ; `string'
CONST	ENDS
;	COMDAT ??_C@_0BA@JFNIOLAK@string?5too?5long?$AA@
CONST	SEGMENT
??_C@_0BA@JFNIOLAK@string?5too?5long?$AA@ DB 'string too long', 00H ; `string'
CONST	ENDS
;	COMDAT ??_C@_0BI@CFPLBAOH@invalid?5string?5position?$AA@
CONST	SEGMENT
??_C@_0BI@CFPLBAOH@invalid?5string?5position?$AA@ DB 'invalid string posi'
	DB	'tion', 00H					; `string'
CONST	ENDS
;	COMDAT ??_C@_1IO@EADHKMNI@?$AAc?$AA?3?$AA?2?$AAp?$AAr?$AAo?$AAg?$AAr?$AAa?$AAm?$AA?5?$AAf?$AAi?$AAl?$AAe?$AAs?$AA?5?$AA?$CI?$AAx?$AA8?$AA6?$AA?$CJ?$AA?2?$AAm?$AAi?$AAc?$AAr?$AAo?$AAs?$AAo?$AAf?$AAt@
CONST	SEGMENT
??_C@_1IO@EADHKMNI@?$AAc?$AA?3?$AA?2?$AAp?$AAr?$AAo?$AAg?$AAr?$AAa?$AAm?$AA?5?$AAf?$AAi?$AAl?$AAe?$AAs?$AA?5?$AA?$CI?$AAx?$AA8?$AA6?$AA?$CJ?$AA?2?$AAm?$AAi?$AAc?$AAr?$AAo?$AAs?$AAo?$AAf?$AAt@ DB 'c'
	DB	00H, ':', 00H, '\', 00H, 'p', 00H, 'r', 00H, 'o', 00H, 'g', 00H
	DB	'r', 00H, 'a', 00H, 'm', 00H, ' ', 00H, 'f', 00H, 'i', 00H, 'l'
	DB	00H, 'e', 00H, 's', 00H, ' ', 00H, '(', 00H, 'x', 00H, '8', 00H
	DB	'6', 00H, ')', 00H, '\', 00H, 'm', 00H, 'i', 00H, 'c', 00H, 'r'
	DB	00H, 'o', 00H, 's', 00H, 'o', 00H, 'f', 00H, 't', 00H, ' ', 00H
	DB	'v', 00H, 'i', 00H, 's', 00H, 'u', 00H, 'a', 00H, 'l', 00H, ' '
	DB	00H, 's', 00H, 't', 00H, 'u', 00H, 'd', 00H, 'i', 00H, 'o', 00H
	DB	' ', 00H, '1', 00H, '4', 00H, '.', 00H, '0', 00H, '\', 00H, 'v'
	DB	00H, 'c', 00H, '\', 00H, 'i', 00H, 'n', 00H, 'c', 00H, 'l', 00H
	DB	'u', 00H, 'd', 00H, 'e', 00H, '\', 00H, 'x', 00H, 's', 00H, 't'
	DB	00H, 'r', 00H, 'i', 00H, 'n', 00H, 'g', 00H, 00H, 00H ; `string'
CONST	ENDS
;	COMDAT ??_C@_1BO@MEPPHOO@?$AA?$CC?$AAo?$AAu?$AAt?$AA?5?$AAo?$AAf?$AA?5?$AAr?$AAa?$AAn?$AAg?$AAe?$AA?$CC?$AA?$AA@
CONST	SEGMENT
??_C@_1BO@MEPPHOO@?$AA?$CC?$AAo?$AAu?$AAt?$AA?5?$AAo?$AAf?$AA?5?$AAr?$AAa?$AAn?$AAg?$AAe?$AA?$CC?$AA?$AA@ DB '"'
	DB	00H, 'o', 00H, 'u', 00H, 't', 00H, ' ', 00H, 'o', 00H, 'f', 00H
	DB	' ', 00H, 'r', 00H, 'a', 00H, 'n', 00H, 'g', 00H, 'e', 00H, '"'
	DB	00H, 00H, 00H				; `string'
CONST	ENDS
;	COMDAT ??_C@_1HO@GLEAPAMD@?$AAs?$AAt?$AAd?$AA?3?$AA?3?$AAv?$AAe?$AAc?$AAt?$AAo?$AAr?$AA?$DM?$AAd?$AAo?$AAu?$AAb?$AAl?$AAe?$AA?0?$AAc?$AAl?$AAa?$AAs?$AAs?$AA?5?$AAs?$AAt?$AAd?$AA?3?$AA?3?$AAa?$AAl@
CONST	SEGMENT
??_C@_1HO@GLEAPAMD@?$AAs?$AAt?$AAd?$AA?3?$AA?3?$AAv?$AAe?$AAc?$AAt?$AAo?$AAr?$AA?$DM?$AAd?$AAo?$AAu?$AAb?$AAl?$AAe?$AA?0?$AAc?$AAl?$AAa?$AAs?$AAs?$AA?5?$AAs?$AAt?$AAd?$AA?3?$AA?3?$AAa?$AAl@ DB 's'
	DB	00H, 't', 00H, 'd', 00H, ':', 00H, ':', 00H, 'v', 00H, 'e', 00H
	DB	'c', 00H, 't', 00H, 'o', 00H, 'r', 00H, '<', 00H, 'd', 00H, 'o'
	DB	00H, 'u', 00H, 'b', 00H, 'l', 00H, 'e', 00H, ',', 00H, 'c', 00H
	DB	'l', 00H, 'a', 00H, 's', 00H, 's', 00H, ' ', 00H, 's', 00H, 't'
	DB	00H, 'd', 00H, ':', 00H, ':', 00H, 'a', 00H, 'l', 00H, 'l', 00H
	DB	'o', 00H, 'c', 00H, 'a', 00H, 't', 00H, 'o', 00H, 'r', 00H, '<'
	DB	00H, 'd', 00H, 'o', 00H, 'u', 00H, 'b', 00H, 'l', 00H, 'e', 00H
	DB	'>', 00H, ' ', 00H, '>', 00H, ':', 00H, ':', 00H, 'o', 00H, 'p'
	DB	00H, 'e', 00H, 'r', 00H, 'a', 00H, 't', 00H, 'o', 00H, 'r', 00H
	DB	' ', 00H, '[', 00H, ']', 00H, 00H, 00H	; `string'
CONST	ENDS
;	COMDAT ??_C@_1FG@IBPIFFN@?$AA?$CC?$AAS?$AAt?$AAa?$AAn?$AAd?$AAa?$AAr?$AAd?$AA?5?$AAC?$AA?$CL?$AA?$CL?$AA?5?$AAL?$AAi?$AAb?$AAr?$AAa?$AAr?$AAi?$AAe?$AAs?$AA?5?$AAO?$AAu?$AAt?$AA?5?$AAo?$AAf?$AA?5?$AAR@
CONST	SEGMENT
??_C@_1FG@IBPIFFN@?$AA?$CC?$AAS?$AAt?$AAa?$AAn?$AAd?$AAa?$AAr?$AAd?$AA?5?$AAC?$AA?$CL?$AA?$CL?$AA?5?$AAL?$AAi?$AAb?$AAr?$AAa?$AAr?$AAi?$AAe?$AAs?$AA?5?$AAO?$AAu?$AAt?$AA?5?$AAo?$AAf?$AA?5?$AAR@ DB '"'
	DB	00H, 'S', 00H, 't', 00H, 'a', 00H, 'n', 00H, 'd', 00H, 'a', 00H
	DB	'r', 00H, 'd', 00H, ' ', 00H, 'C', 00H, '+', 00H, '+', 00H, ' '
	DB	00H, 'L', 00H, 'i', 00H, 'b', 00H, 'r', 00H, 'a', 00H, 'r', 00H
	DB	'i', 00H, 'e', 00H, 's', 00H, ' ', 00H, 'O', 00H, 'u', 00H, 't'
	DB	00H, ' ', 00H, 'o', 00H, 'f', 00H, ' ', 00H, 'R', 00H, 'a', 00H
	DB	'n', 00H, 'g', 00H, 'e', 00H, '"', 00H, ' ', 00H, '&', 00H, '&'
	DB	00H, ' ', 00H, '0', 00H, 00H, 00H		; `string'
CONST	ENDS
;	COMDAT ??_C@_0CE@OFMIGAMM@Standard?5C?$CL?$CL?5Libraries?5Out?5of?5Ra@
CONST	SEGMENT
??_C@_0CE@OFMIGAMM@Standard?5C?$CL?$CL?5Libraries?5Out?5of?5Ra@ DB 'Stand'
	DB	'ard C++ Libraries Out of Range', 00H	; `string'
CONST	ENDS
;	COMDAT ??_C@_1DM@LHGCHCBA@?$AAv?$AAe?$AAc?$AAt?$AAo?$AAr?$AA?5?$AAs?$AAu?$AAb?$AAs?$AAc?$AAr?$AAi?$AAp?$AAt?$AA?5?$AAo?$AAu?$AAt?$AA?5?$AAo?$AAf?$AA?5?$AAr?$AAa?$AAn?$AAg?$AAe?$AA?$AA@
CONST	SEGMENT
??_C@_1DM@LHGCHCBA@?$AAv?$AAe?$AAc?$AAt?$AAo?$AAr?$AA?5?$AAs?$AAu?$AAb?$AAs?$AAc?$AAr?$AAi?$AAp?$AAt?$AA?5?$AAo?$AAu?$AAt?$AA?5?$AAo?$AAf?$AA?5?$AAr?$AAa?$AAn?$AAg?$AAe?$AA?$AA@ DB 'v'
	DB	00H, 'e', 00H, 'c', 00H, 't', 00H, 'o', 00H, 'r', 00H, ' ', 00H
	DB	's', 00H, 'u', 00H, 'b', 00H, 's', 00H, 'c', 00H, 'r', 00H, 'i'
	DB	00H, 'p', 00H, 't', 00H, ' ', 00H, 'o', 00H, 'u', 00H, 't', 00H
	DB	' ', 00H, 'o', 00H, 'f', 00H, ' ', 00H, 'r', 00H, 'a', 00H, 'n'
	DB	00H, 'g', 00H, 'e', 00H, 00H, 00H		; `string'
CONST	ENDS
;	COMDAT ??_C@_1IM@NCODKBJH@?$AAc?$AA?3?$AA?2?$AAp?$AAr?$AAo?$AAg?$AAr?$AAa?$AAm?$AA?5?$AAf?$AAi?$AAl?$AAe?$AAs?$AA?5?$AA?$CI?$AAx?$AA8?$AA6?$AA?$CJ?$AA?2?$AAm?$AAi?$AAc?$AAr?$AAo?$AAs?$AAo?$AAf?$AAt@
CONST	SEGMENT
??_C@_1IM@NCODKBJH@?$AAc?$AA?3?$AA?2?$AAp?$AAr?$AAo?$AAg?$AAr?$AAa?$AAm?$AA?5?$AAf?$AAi?$AAl?$AAe?$AAs?$AA?5?$AA?$CI?$AAx?$AA8?$AA6?$AA?$CJ?$AA?2?$AAm?$AAi?$AAc?$AAr?$AAo?$AAs?$AAo?$AAf?$AAt@ DB 'c'
	DB	00H, ':', 00H, '\', 00H, 'p', 00H, 'r', 00H, 'o', 00H, 'g', 00H
	DB	'r', 00H, 'a', 00H, 'm', 00H, ' ', 00H, 'f', 00H, 'i', 00H, 'l'
	DB	00H, 'e', 00H, 's', 00H, ' ', 00H, '(', 00H, 'x', 00H, '8', 00H
	DB	'6', 00H, ')', 00H, '\', 00H, 'm', 00H, 'i', 00H, 'c', 00H, 'r'
	DB	00H, 'o', 00H, 's', 00H, 'o', 00H, 'f', 00H, 't', 00H, ' ', 00H
	DB	'v', 00H, 'i', 00H, 's', 00H, 'u', 00H, 'a', 00H, 'l', 00H, ' '
	DB	00H, 's', 00H, 't', 00H, 'u', 00H, 'd', 00H, 'i', 00H, 'o', 00H
	DB	' ', 00H, '1', 00H, '4', 00H, '.', 00H, '0', 00H, '\', 00H, 'v'
	DB	00H, 'c', 00H, '\', 00H, 'i', 00H, 'n', 00H, 'c', 00H, 'l', 00H
	DB	'u', 00H, 'd', 00H, 'e', 00H, '\', 00H, 'v', 00H, 'e', 00H, 'c'
	DB	00H, 't', 00H, 'o', 00H, 'r', 00H, 00H, 00H	; `string'
CONST	ENDS
;	COMDAT ??_C@_1BO@HKDOOBLC@?$AAr?$AAn?$AAg?$AA_?$AAi?$AAn?$AAi?$AAt?$AAa?$AAl?$AAi?$AAz?$AAe?$AAd?$AA?$AA@
CONST	SEGMENT
??_C@_1BO@HKDOOBLC@?$AAr?$AAn?$AAg?$AA_?$AAi?$AAn?$AAi?$AAt?$AAa?$AAl?$AAi?$AAz?$AAe?$AAd?$AA?$AA@ DB 'r'
	DB	00H, 'n', 00H, 'g', 00H, '_', 00H, 'i', 00H, 'n', 00H, 'i', 00H
	DB	't', 00H, 'a', 00H, 'l', 00H, 'i', 00H, 'z', 00H, 'e', 00H, 'd'
	DB	00H, 00H, 00H				; `string'
CONST	ENDS
;	COMDAT ??_C@_1FO@DAPDKFEE@?$AAc?$AA?3?$AA?2?$AAu?$AAs?$AAe?$AAr?$AAs?$AA?2?$AAa?$AAi?$AAr?$AAp?$AA?2?$AAs?$AAo?$AAu?$AAr?$AAc?$AAe?$AA?2?$AAr?$AAe?$AAp?$AAo?$AAs?$AA?2?$AAe?$AAp?$AAi?$AA3?$AA?2@
CONST	SEGMENT
??_C@_1FO@DAPDKFEE@?$AAc?$AA?3?$AA?2?$AAu?$AAs?$AAe?$AAr?$AAs?$AA?2?$AAa?$AAi?$AAr?$AAp?$AA?2?$AAs?$AAo?$AAu?$AAr?$AAc?$AAe?$AA?2?$AAr?$AAe?$AAp?$AAo?$AAs?$AA?2?$AAe?$AAp?$AAi?$AA3?$AA?2@ DB 'c'
	DB	00H, ':', 00H, '\', 00H, 'u', 00H, 's', 00H, 'e', 00H, 'r', 00H
	DB	's', 00H, '\', 00H, 'a', 00H, 'i', 00H, 'r', 00H, 'p', 00H, '\'
	DB	00H, 's', 00H, 'o', 00H, 'u', 00H, 'r', 00H, 'c', 00H, 'e', 00H
	DB	'\', 00H, 'r', 00H, 'e', 00H, 'p', 00H, 'o', 00H, 's', 00H, '\'
	DB	00H, 'e', 00H, 'p', 00H, 'i', 00H, '3', 00H, '\', 00H, 'e', 00H
	DB	'p', 00H, 'i', 00H, '3', 00H, '\', 00H, 'f', 00H, 'u', 00H, 'n'
	DB	00H, 'c', 00H, 's', 00H, '.', 00H, 'c', 00H, 'p', 00H, 'p', 00H
	DB	00H, 00H					; `string'
CONST	ENDS
;	COMDAT ?__LINE__Var@?0??genrand_real@@YANXZ@4JA
_DATA	SEGMENT
?__LINE__Var@?0??genrand_real@@YANXZ@4JA DD 02cH	; `genrand_real'::`1'::__LINE__Var
_DATA	ENDS
;	COMDAT ??_C@_00CNPNBAHC@?$AA@
CONST	SEGMENT
??_C@_00CNPNBAHC@?$AA@ DB 00H				; `string'
CONST	ENDS
;	COMDAT ??_C@_1GI@DHJGPFNI@?$AA?$CC?$AA_?$AAP?$AAt?$AAr?$AA_?$AAu?$AAs?$AAe?$AAr?$AA?5?$AA?9?$AA?5?$AA_?$AAP?$AAt?$AAr?$AA_?$AAc?$AAo?$AAn?$AAt?$AAa?$AAi?$AAn?$AAe?$AAr?$AA?5?$AA?$DM?$AA?$DN?$AA?5?$AA_@
CONST	SEGMENT
??_C@_1GI@DHJGPFNI@?$AA?$CC?$AA_?$AAP?$AAt?$AAr?$AA_?$AAu?$AAs?$AAe?$AAr?$AA?5?$AA?9?$AA?5?$AA_?$AAP?$AAt?$AAr?$AA_?$AAc?$AAo?$AAn?$AAt?$AAa?$AAi?$AAn?$AAe?$AAr?$AA?5?$AA?$DM?$AA?$DN?$AA?5?$AA_@ DB '"'
	DB	00H, '_', 00H, 'P', 00H, 't', 00H, 'r', 00H, '_', 00H, 'u', 00H
	DB	's', 00H, 'e', 00H, 'r', 00H, ' ', 00H, '-', 00H, ' ', 00H, '_'
	DB	00H, 'P', 00H, 't', 00H, 'r', 00H, '_', 00H, 'c', 00H, 'o', 00H
	DB	'n', 00H, 't', 00H, 'a', 00H, 'i', 00H, 'n', 00H, 'e', 00H, 'r'
	DB	00H, ' ', 00H, '<', 00H, '=', 00H, ' ', 00H, '_', 00H, 'N', 00H
	DB	'O', 00H, 'N', 00H, '_', 00H, 'U', 00H, 'S', 00H, 'E', 00H, 'R'
	DB	00H, '_', 00H, 'S', 00H, 'I', 00H, 'Z', 00H, 'E', 00H, '"', 00H
	DB	' ', 00H, '&', 00H, '&', 00H, ' ', 00H, '0', 00H, 00H, 00H ; `string'
CONST	ENDS
;	COMDAT ??_C@_0CN@BLHJCAL@_Ptr_user?5?9?5_Ptr_container?5?$DM?$DN?5_N@
CONST	SEGMENT
??_C@_0CN@BLHJCAL@_Ptr_user?5?9?5_Ptr_container?5?$DM?$DN?5_N@ DB '_Ptr_u'
	DB	'ser - _Ptr_container <= _NON_USER_SIZE', 00H ; `string'
CONST	ENDS
;	COMDAT ??_C@_1HA@NAPGMHAO@?$AA?$CC?$AA2?$AA?5?$AA?$CK?$AA?5?$AAs?$AAi?$AAz?$AAe?$AAo?$AAf?$AA?$CI?$AAv?$AAo?$AAi?$AAd?$AA?5?$AA?$CK?$AA?$CJ?$AA?5?$AA?$DM?$AA?$DN?$AA?5?$AA_?$AAP?$AAt?$AAr?$AA_?$AAu?$AAs?$AAe?$AAr@
CONST	SEGMENT
??_C@_1HA@NAPGMHAO@?$AA?$CC?$AA2?$AA?5?$AA?$CK?$AA?5?$AAs?$AAi?$AAz?$AAe?$AAo?$AAf?$AA?$CI?$AAv?$AAo?$AAi?$AAd?$AA?5?$AA?$CK?$AA?$CJ?$AA?5?$AA?$DM?$AA?$DN?$AA?5?$AA_?$AAP?$AAt?$AAr?$AA_?$AAu?$AAs?$AAe?$AAr@ DB '"'
	DB	00H, '2', 00H, ' ', 00H, '*', 00H, ' ', 00H, 's', 00H, 'i', 00H
	DB	'z', 00H, 'e', 00H, 'o', 00H, 'f', 00H, '(', 00H, 'v', 00H, 'o'
	DB	00H, 'i', 00H, 'd', 00H, ' ', 00H, '*', 00H, ')', 00H, ' ', 00H
	DB	'<', 00H, '=', 00H, ' ', 00H, '_', 00H, 'P', 00H, 't', 00H, 'r'
	DB	00H, '_', 00H, 'u', 00H, 's', 00H, 'e', 00H, 'r', 00H, ' ', 00H
	DB	'-', 00H, ' ', 00H, '_', 00H, 'P', 00H, 't', 00H, 'r', 00H, '_'
	DB	00H, 'c', 00H, 'o', 00H, 'n', 00H, 't', 00H, 'a', 00H, 'i', 00H
	DB	'n', 00H, 'e', 00H, 'r', 00H, '"', 00H, ' ', 00H, '&', 00H, '&'
	DB	00H, ' ', 00H, '0', 00H, 00H, 00H		; `string'
CONST	ENDS
;	COMDAT ??_C@_0DB@GLFJLNCE@2?5?$CK?5sizeof?$CIvoid?5?$CK?$CJ?5?$DM?$DN?5_Ptr_user?5@
CONST	SEGMENT
??_C@_0DB@GLFJLNCE@2?5?$CK?5sizeof?$CIvoid?5?$CK?$CJ?5?$DM?$DN?5_Ptr_user?5@ DB '2'
	DB	' * sizeof(void *) <= _Ptr_user - _Ptr_container', 00H ; `string'
CONST	ENDS
;	COMDAT ??_C@_1EE@PDHAHDDC@?$AA?$CC?$AA_?$AAP?$AAt?$AAr?$AA_?$AAc?$AAo?$AAn?$AAt?$AAa?$AAi?$AAn?$AAe?$AAr?$AA?5?$AA?$DM?$AA?5?$AA_?$AAP?$AAt?$AAr?$AA_?$AAu?$AAs?$AAe?$AAr?$AA?$CC?$AA?5?$AA?$CG?$AA?$CG?$AA?5@
CONST	SEGMENT
??_C@_1EE@PDHAHDDC@?$AA?$CC?$AA_?$AAP?$AAt?$AAr?$AA_?$AAc?$AAo?$AAn?$AAt?$AAa?$AAi?$AAn?$AAe?$AAr?$AA?5?$AA?$DM?$AA?5?$AA_?$AAP?$AAt?$AAr?$AA_?$AAu?$AAs?$AAe?$AAr?$AA?$CC?$AA?5?$AA?$CG?$AA?$CG?$AA?5@ DB '"'
	DB	00H, '_', 00H, 'P', 00H, 't', 00H, 'r', 00H, '_', 00H, 'c', 00H
	DB	'o', 00H, 'n', 00H, 't', 00H, 'a', 00H, 'i', 00H, 'n', 00H, 'e'
	DB	00H, 'r', 00H, ' ', 00H, '<', 00H, ' ', 00H, '_', 00H, 'P', 00H
	DB	't', 00H, 'r', 00H, '_', 00H, 'u', 00H, 's', 00H, 'e', 00H, 'r'
	DB	00H, '"', 00H, ' ', 00H, '&', 00H, '&', 00H, ' ', 00H, '0', 00H
	DB	00H, 00H					; `string'
CONST	ENDS
;	COMDAT ??_C@_0BL@OCKMEJON@_Ptr_container?5?$DM?5_Ptr_user?$AA@
CONST	SEGMENT
??_C@_0BL@OCKMEJON@_Ptr_container?5?$DM?5_Ptr_user?$AA@ DB '_Ptr_containe'
	DB	'r < _Ptr_user', 00H				; `string'
CONST	ENDS
;	COMDAT ??_C@_1JO@EKLKIEHP@?$AA?$CC?$AAr?$AAe?$AAi?$AAn?$AAt?$AAe?$AAr?$AAp?$AAr?$AAe?$AAt?$AA_?$AAc?$AAa?$AAs?$AAt?$AA?$DM?$AAu?$AAi?$AAn?$AAt?$AAp?$AAt?$AAr?$AA_?$AAt?$AA?5?$AA?$CK?$AA?$DO?$AA?$CI?$AA_@
CONST	SEGMENT
??_C@_1JO@EKLKIEHP@?$AA?$CC?$AAr?$AAe?$AAi?$AAn?$AAt?$AAe?$AAr?$AAp?$AAr?$AAe?$AAt?$AA_?$AAc?$AAa?$AAs?$AAt?$AA?$DM?$AAu?$AAi?$AAn?$AAt?$AAp?$AAt?$AAr?$AA_?$AAt?$AA?5?$AA?$CK?$AA?$DO?$AA?$CI?$AA_@ DB '"'
	DB	00H, 'r', 00H, 'e', 00H, 'i', 00H, 'n', 00H, 't', 00H, 'e', 00H
	DB	'r', 00H, 'p', 00H, 'r', 00H, 'e', 00H, 't', 00H, '_', 00H, 'c'
	DB	00H, 'a', 00H, 's', 00H, 't', 00H, '<', 00H, 'u', 00H, 'i', 00H
	DB	'n', 00H, 't', 00H, 'p', 00H, 't', 00H, 'r', 00H, '_', 00H, 't'
	DB	00H, ' ', 00H, '*', 00H, '>', 00H, '(', 00H, '_', 00H, 'P', 00H
	DB	't', 00H, 'r', 00H, '_', 00H, 'p', 00H, 't', 00H, 'r', 00H, ')'
	DB	00H, '[', 00H, '-', 00H, '1', 00H, ']', 00H, ' ', 00H, '=', 00H
	DB	'=', 00H, ' ', 00H, '_', 00H, 'B', 00H, 'I', 00H, 'G', 00H, '_'
	DB	00H, 'A', 00H, 'L', 00H, 'L', 00H, 'O', 00H, 'C', 00H, 'A', 00H
	DB	'T', 00H, 'I', 00H, 'O', 00H, 'N', 00H, '_', 00H, 'S', 00H, 'E'
	DB	00H, 'N', 00H, 'T', 00H, 'I', 00H, 'N', 00H, 'E', 00H, 'L', 00H
	DB	'"', 00H, ' ', 00H, '&', 00H, '&', 00H, ' ', 00H, '0', 00H, 00H
	DB	00H						; `string'
CONST	ENDS
;	COMDAT ??_C@_0EI@NOJHEJCJ@reinterpret_cast?$DMuintptr_t?5?$CK?$DO?$CI_P@
CONST	SEGMENT
??_C@_0EI@NOJHEJCJ@reinterpret_cast?$DMuintptr_t?5?$CK?$DO?$CI_P@ DB 'rei'
	DB	'nterpret_cast<uintptr_t *>(_Ptr_ptr)[-1] == _BIG_ALLOCATION_S'
	DB	'ENTINEL', 00H				; `string'
CONST	ENDS
;	COMDAT ??_C@_1HE@CDMBFOKC@?$AA?$CC?$AA?$CI?$AA_?$AAP?$AAt?$AAr?$AA_?$AAu?$AAs?$AAe?$AAr?$AA?5?$AA?$CG?$AA?5?$AA?$CI?$AA_?$AAB?$AAI?$AAG?$AA_?$AAA?$AAL?$AAL?$AAO?$AAC?$AAA?$AAT?$AAI?$AAO?$AAN?$AA_?$AAA@
CONST	SEGMENT
??_C@_1HE@CDMBFOKC@?$AA?$CC?$AA?$CI?$AA_?$AAP?$AAt?$AAr?$AA_?$AAu?$AAs?$AAe?$AAr?$AA?5?$AA?$CG?$AA?5?$AA?$CI?$AA_?$AAB?$AAI?$AAG?$AA_?$AAA?$AAL?$AAL?$AAO?$AAC?$AAA?$AAT?$AAI?$AAO?$AAN?$AA_?$AAA@ DB '"'
	DB	00H, '(', 00H, '_', 00H, 'P', 00H, 't', 00H, 'r', 00H, '_', 00H
	DB	'u', 00H, 's', 00H, 'e', 00H, 'r', 00H, ' ', 00H, '&', 00H, ' '
	DB	00H, '(', 00H, '_', 00H, 'B', 00H, 'I', 00H, 'G', 00H, '_', 00H
	DB	'A', 00H, 'L', 00H, 'L', 00H, 'O', 00H, 'C', 00H, 'A', 00H, 'T'
	DB	00H, 'I', 00H, 'O', 00H, 'N', 00H, '_', 00H, 'A', 00H, 'L', 00H
	DB	'I', 00H, 'G', 00H, 'N', 00H, 'M', 00H, 'E', 00H, 'N', 00H, 'T'
	DB	00H, ' ', 00H, '-', 00H, ' ', 00H, '1', 00H, ')', 00H, ')', 00H
	DB	' ', 00H, '=', 00H, '=', 00H, ' ', 00H, '0', 00H, '"', 00H, ' '
	DB	00H, '&', 00H, '&', 00H, ' ', 00H, '0', 00H, 00H, 00H ; `string'
CONST	ENDS
;	COMDAT ??_C@_0DD@GBGGGKGG@?$CI_Ptr_user?5?$CG?5?$CI_BIG_ALLOCATION_AL@
CONST	SEGMENT
??_C@_0DD@GBGGGKGG@?$CI_Ptr_user?5?$CG?5?$CI_BIG_ALLOCATION_AL@ DB '(_Ptr'
	DB	'_user & (_BIG_ALLOCATION_ALIGNMENT - 1)) == 0', 00H ; `string'
CONST	ENDS
;	COMDAT ??_C@_1CC@LOFJFFDB@?$AAs?$AAt?$AAd?$AA?3?$AA?3?$AA_?$AAD?$AAe?$AAa?$AAl?$AAl?$AAo?$AAc?$AAa?$AAt?$AAe?$AA?$AA@
CONST	SEGMENT
??_C@_1CC@LOFJFFDB@?$AAs?$AAt?$AAd?$AA?3?$AA?3?$AA_?$AAD?$AAe?$AAa?$AAl?$AAl?$AAo?$AAc?$AAa?$AAt?$AAe?$AA?$AA@ DB 's'
	DB	00H, 't', 00H, 'd', 00H, ':', 00H, ':', 00H, '_', 00H, 'D', 00H
	DB	'e', 00H, 'a', 00H, 'l', 00H, 'l', 00H, 'o', 00H, 'c', 00H, 'a'
	DB	00H, 't', 00H, 'e', 00H, 00H, 00H		; `string'
CONST	ENDS
;	COMDAT ??_C@_1EI@MLOBABC@?$AA?$CC?$AA_?$AAC?$AAo?$AAu?$AAn?$AAt?$AA?5?$AA?$DM?$AA?$DN?$AA?5?$AA?$CI?$AAs?$AAi?$AAz?$AAe?$AA_?$AAt?$AA?$CJ?$AA?$CI?$AA?9?$AA1?$AA?$CJ?$AA?5?$AA?1?$AA?5?$AA_?$AAS?$AAz?$AA?$CC?$AA?5?$AA?$CG@
CONST	SEGMENT
??_C@_1EI@MLOBABC@?$AA?$CC?$AA_?$AAC?$AAo?$AAu?$AAn?$AAt?$AA?5?$AA?$DM?$AA?$DN?$AA?5?$AA?$CI?$AAs?$AAi?$AAz?$AAe?$AA_?$AAt?$AA?$CJ?$AA?$CI?$AA?9?$AA1?$AA?$CJ?$AA?5?$AA?1?$AA?5?$AA_?$AAS?$AAz?$AA?$CC?$AA?5?$AA?$CG@ DB '"'
	DB	00H, '_', 00H, 'C', 00H, 'o', 00H, 'u', 00H, 'n', 00H, 't', 00H
	DB	' ', 00H, '<', 00H, '=', 00H, ' ', 00H, '(', 00H, 's', 00H, 'i'
	DB	00H, 'z', 00H, 'e', 00H, '_', 00H, 't', 00H, ')', 00H, '(', 00H
	DB	'-', 00H, '1', 00H, ')', 00H, ' ', 00H, '/', 00H, ' ', 00H, '_'
	DB	00H, 'S', 00H, 'z', 00H, '"', 00H, ' ', 00H, '&', 00H, '&', 00H
	DB	' ', 00H, '0', 00H, 00H, 00H			; `string'
CONST	ENDS
;	COMDAT ??_C@_0BN@HMCJOMKN@_Count?5?$DM?$DN?5?$CIsize_t?$CJ?$CI?91?$CJ?5?1?5_Sz?$AA@
CONST	SEGMENT
??_C@_0BN@HMCJOMKN@_Count?5?$DM?$DN?5?$CIsize_t?$CJ?$CI?91?$CJ?5?1?5_Sz?$AA@ DB '_'
	DB	'Count <= (size_t)(-1) / _Sz', 00H		; `string'
CONST	ENDS
;	COMDAT ?__LINE__Var@?0??_Deallocate@std@@YAXPEAX_K1@Z@4JA
_DATA	SEGMENT
?__LINE__Var@?0??_Deallocate@std@@YAXPEAX_K1@Z@4JA DD 062H ; `std::_Deallocate'::`1'::__LINE__Var
_DATA	ENDS
;	COMDAT ??_C@_1CC@GKJLLHIM@?$AA?$CC?$AA_?$AAP?$AAt?$AAr?$AA?5?$AA?$CB?$AA?$DN?$AA?5?$AA0?$AA?$CC?$AA?5?$AA?$CG?$AA?$CG?$AA?5?$AA0?$AA?$AA@
CONST	SEGMENT
??_C@_1CC@GKJLLHIM@?$AA?$CC?$AA_?$AAP?$AAt?$AAr?$AA?5?$AA?$CB?$AA?$DN?$AA?5?$AA0?$AA?$CC?$AA?5?$AA?$CG?$AA?$CG?$AA?5?$AA0?$AA?$AA@ DB '"'
	DB	00H, '_', 00H, 'P', 00H, 't', 00H, 'r', 00H, ' ', 00H, '!', 00H
	DB	'=', 00H, ' ', 00H, '0', 00H, '"', 00H, ' ', 00H, '&', 00H, '&'
	DB	00H, ' ', 00H, '0', 00H, 00H, 00H		; `string'
CONST	ENDS
;	COMDAT ??_C@_09GLJCAGLP@_Ptr?5?$CB?$DN?50?$AA@
CONST	SEGMENT
??_C@_09GLJCAGLP@_Ptr?5?$CB?$DN?50?$AA@ DB '_Ptr != 0', 00H ; `string'
CONST	ENDS
;	COMDAT ??_C@_1CG@JNLFBNGN@?$AA?$CC?$AAi?$AAn?$AAv?$AAa?$AAl?$AAi?$AAd?$AA?5?$AAa?$AAr?$AAg?$AAu?$AAm?$AAe?$AAn?$AAt?$AA?$CC?$AA?$AA@
CONST	SEGMENT
??_C@_1CG@JNLFBNGN@?$AA?$CC?$AAi?$AAn?$AAv?$AAa?$AAl?$AAi?$AAd?$AA?5?$AAa?$AAr?$AAg?$AAu?$AAm?$AAe?$AAn?$AAt?$AA?$CC?$AA?$AA@ DB '"'
	DB	00H, 'i', 00H, 'n', 00H, 'v', 00H, 'a', 00H, 'l', 00H, 'i', 00H
	DB	'd', 00H, ' ', 00H, 'a', 00H, 'r', 00H, 'g', 00H, 'u', 00H, 'm'
	DB	00H, 'e', 00H, 'n', 00H, 't', 00H, '"', 00H, 00H, 00H ; `string'
CONST	ENDS
;	COMDAT ??_C@_1BO@NKFMJPA@?$AAs?$AAt?$AAd?$AA?3?$AA?3?$AA_?$AAA?$AAl?$AAl?$AAo?$AAc?$AAa?$AAt?$AAe?$AA?$AA@
CONST	SEGMENT
??_C@_1BO@NKFMJPA@?$AAs?$AAt?$AAd?$AA?3?$AA?3?$AA_?$AAA?$AAl?$AAl?$AAo?$AAc?$AAa?$AAt?$AAe?$AA?$AA@ DB 's'
	DB	00H, 't', 00H, 'd', 00H, ':', 00H, ':', 00H, '_', 00H, 'A', 00H
	DB	'l', 00H, 'l', 00H, 'o', 00H, 'c', 00H, 'a', 00H, 't', 00H, 'e'
	DB	00H, 00H, 00H				; `string'
CONST	ENDS
;	COMDAT ??_C@_1JA@DKOIEICI@?$AAc?$AA?3?$AA?2?$AAp?$AAr?$AAo?$AAg?$AAr?$AAa?$AAm?$AA?5?$AAf?$AAi?$AAl?$AAe?$AAs?$AA?5?$AA?$CI?$AAx?$AA8?$AA6?$AA?$CJ?$AA?2?$AAm?$AAi?$AAc?$AAr?$AAo?$AAs?$AAo?$AAf?$AAt@
CONST	SEGMENT
??_C@_1JA@DKOIEICI@?$AAc?$AA?3?$AA?2?$AAp?$AAr?$AAo?$AAg?$AAr?$AAa?$AAm?$AA?5?$AAf?$AAi?$AAl?$AAe?$AAs?$AA?5?$AA?$CI?$AAx?$AA8?$AA6?$AA?$CJ?$AA?2?$AAm?$AAi?$AAc?$AAr?$AAo?$AAs?$AAo?$AAf?$AAt@ DB 'c'
	DB	00H, ':', 00H, '\', 00H, 'p', 00H, 'r', 00H, 'o', 00H, 'g', 00H
	DB	'r', 00H, 'a', 00H, 'm', 00H, ' ', 00H, 'f', 00H, 'i', 00H, 'l'
	DB	00H, 'e', 00H, 's', 00H, ' ', 00H, '(', 00H, 'x', 00H, '8', 00H
	DB	'6', 00H, ')', 00H, '\', 00H, 'm', 00H, 'i', 00H, 'c', 00H, 'r'
	DB	00H, 'o', 00H, 's', 00H, 'o', 00H, 'f', 00H, 't', 00H, ' ', 00H
	DB	'v', 00H, 'i', 00H, 's', 00H, 'u', 00H, 'a', 00H, 'l', 00H, ' '
	DB	00H, 's', 00H, 't', 00H, 'u', 00H, 'd', 00H, 'i', 00H, 'o', 00H
	DB	' ', 00H, '1', 00H, '4', 00H, '.', 00H, '0', 00H, '\', 00H, 'v'
	DB	00H, 'c', 00H, '\', 00H, 'i', 00H, 'n', 00H, 'c', 00H, 'l', 00H
	DB	'u', 00H, 'd', 00H, 'e', 00H, '\', 00H, 'x', 00H, 'm', 00H, 'e'
	DB	00H, 'm', 00H, 'o', 00H, 'r', 00H, 'y', 00H, '0', 00H, 00H, 00H ; `string'
CONST	ENDS
;	COMDAT ??_C@_17CNPHIMPH@?$AA?$CF?$AAl?$AAs?$AA?$AA@
CONST	SEGMENT
??_C@_17CNPHIMPH@?$AA?$CF?$AAl?$AAs?$AA?$AA@ DB '%', 00H, 'l', 00H, 's', 00H
	DB	00H, 00H					; `string'
CONST	ENDS
;	COMDAT ??_C@_1DG@HGDKEBPG@?$AA?$CC?$AA_?$AAP?$AAt?$AAr?$AA_?$AAc?$AAo?$AAn?$AAt?$AAa?$AAi?$AAn?$AAe?$AAr?$AA?5?$AA?$CB?$AA?$DN?$AA?5?$AA0?$AA?$CC?$AA?5?$AA?$CG?$AA?$CG?$AA?5?$AA0?$AA?$AA@
CONST	SEGMENT
??_C@_1DG@HGDKEBPG@?$AA?$CC?$AA_?$AAP?$AAt?$AAr?$AA_?$AAc?$AAo?$AAn?$AAt?$AAa?$AAi?$AAn?$AAe?$AAr?$AA?5?$AA?$CB?$AA?$DN?$AA?5?$AA0?$AA?$CC?$AA?5?$AA?$CG?$AA?$CG?$AA?5?$AA0?$AA?$AA@ DB '"'
	DB	00H, '_', 00H, 'P', 00H, 't', 00H, 'r', 00H, '_', 00H, 'c', 00H
	DB	'o', 00H, 'n', 00H, 't', 00H, 'a', 00H, 'i', 00H, 'n', 00H, 'e'
	DB	00H, 'r', 00H, ' ', 00H, '!', 00H, '=', 00H, ' ', 00H, '0', 00H
	DB	'"', 00H, ' ', 00H, '&', 00H, '&', 00H, ' ', 00H, '0', 00H, 00H
	DB	00H						; `string'
CONST	ENDS
;	COMDAT ??_C@_0BE@LMNLACIC@_Ptr_container?5?$CB?$DN?50?$AA@
CONST	SEGMENT
??_C@_0BE@LMNLACIC@_Ptr_container?5?$CB?$DN?50?$AA@ DB '_Ptr_container !='
	DB	' 0', 00H					; `string'
CONST	ENDS
;	COMDAT ?__LINE__Var@?0??_Allocate@std@@YAPEAX_K0_N@Z@4JA
_DATA	SEGMENT
?__LINE__Var@?0??_Allocate@std@@YAPEAX_K0_N@Z@4JA DD 036H ; `std::_Allocate'::`1'::__LINE__Var
_DATA	ENDS
;	COMDAT ??_C@_1DC@POOIKBAO@?$AAI?$AAT?$AAE?$AAR?$AAA?$AAT?$AAO?$AAR?$AA?5?$AAL?$AAI?$AAS?$AAT?$AA?5?$AAC?$AAO?$AAR?$AAR?$AAU?$AAP?$AAT?$AAE?$AAD?$AA?$CB?$AA?$AA@
CONST	SEGMENT
??_C@_1DC@POOIKBAO@?$AAI?$AAT?$AAE?$AAR?$AAA?$AAT?$AAO?$AAR?$AA?5?$AAL?$AAI?$AAS?$AAT?$AA?5?$AAC?$AAO?$AAR?$AAR?$AAU?$AAP?$AAT?$AAE?$AAD?$AA?$CB?$AA?$AA@ DB 'I'
	DB	00H, 'T', 00H, 'E', 00H, 'R', 00H, 'A', 00H, 'T', 00H, 'O', 00H
	DB	'R', 00H, ' ', 00H, 'L', 00H, 'I', 00H, 'S', 00H, 'T', 00H, ' '
	DB	00H, 'C', 00H, 'O', 00H, 'R', 00H, 'R', 00H, 'U', 00H, 'P', 00H
	DB	'T', 00H, 'E', 00H, 'D', 00H, '!', 00H, 00H, 00H ; `string'
CONST	ENDS
;	COMDAT ??_C@_1JA@MHADJNIL@?$AAc?$AA?3?$AA?2?$AAp?$AAr?$AAo?$AAg?$AAr?$AAa?$AAm?$AA?5?$AAf?$AAi?$AAl?$AAe?$AAs?$AA?5?$AA?$CI?$AAx?$AA8?$AA6?$AA?$CJ?$AA?2?$AAm?$AAi?$AAc?$AAr?$AAo?$AAs?$AAo?$AAf?$AAt@
CONST	SEGMENT
??_C@_1JA@MHADJNIL@?$AAc?$AA?3?$AA?2?$AAp?$AAr?$AAo?$AAg?$AAr?$AAa?$AAm?$AA?5?$AAf?$AAi?$AAl?$AAe?$AAs?$AA?5?$AA?$CI?$AAx?$AA8?$AA6?$AA?$CJ?$AA?2?$AAm?$AAi?$AAc?$AAr?$AAo?$AAs?$AAo?$AAf?$AAt@ DB 'c'
	DB	00H, ':', 00H, '\', 00H, 'p', 00H, 'r', 00H, 'o', 00H, 'g', 00H
	DB	'r', 00H, 'a', 00H, 'm', 00H, ' ', 00H, 'f', 00H, 'i', 00H, 'l'
	DB	00H, 'e', 00H, 's', 00H, ' ', 00H, '(', 00H, 'x', 00H, '8', 00H
	DB	'6', 00H, ')', 00H, '\', 00H, 'm', 00H, 'i', 00H, 'c', 00H, 'r'
	DB	00H, 'o', 00H, 's', 00H, 'o', 00H, 'f', 00H, 't', 00H, ' ', 00H
	DB	'v', 00H, 'i', 00H, 's', 00H, 'u', 00H, 'a', 00H, 'l', 00H, ' '
	DB	00H, 's', 00H, 't', 00H, 'u', 00H, 'd', 00H, 'i', 00H, 'o', 00H
	DB	' ', 00H, '1', 00H, '4', 00H, '.', 00H, '0', 00H, '\', 00H, 'v'
	DB	00H, 'c', 00H, '\', 00H, 'i', 00H, 'n', 00H, 'c', 00H, 'l', 00H
	DB	'u', 00H, 'd', 00H, 'e', 00H, '\', 00H, 'x', 00H, 'u', 00H, 't'
	DB	00H, 'i', 00H, 'l', 00H, 'i', 00H, 't', 00H, 'y', 00H, 00H, 00H ; `string'
CONST	ENDS
;	COMDAT xdata
xdata	SEGMENT
$unwind$??$_Debug_pointer@I@std@@YAXPEAIPEB_WI@Z DD 025031901H
	DD	0b2142319H
	DD	05010H
xdata	ENDS
;	COMDAT xdata
xdata	SEGMENT
$unwind$??$_Debug_range_ptr2@PEAIPEAI@std@@YAXPEAI0AEAPEAIPEB_WIUrandom_access_iterator_tag@0@@Z DD 025031e01H
	DD	0b219231eH
	DD	05015H
xdata	ENDS
;	COMDAT xdata
xdata	SEGMENT
$unwind$??$_Iter_cat@PEAI@std@@YA?AUrandom_access_iterator_tag@0@AEBQEAI@Z DD 05031201H
	DD	0920f0312H
	DD	0500bH
xdata	ENDS
;	COMDAT xdata
xdata	SEGMENT
$unwind$??$_Debug_range_ptr@PEAIPEAI@std@@YAXPEAI0AEAPEAIPEB_WI@Z DD 035032101H
	DD	0f21c3321H
	DD	05015H
xdata	ENDS
;	COMDAT xdata
xdata	SEGMENT
$unwind$??$_Uninit_move@III@std@@YAPEAIPEAI00AEAU?$_Wrap_alloc@V?$allocator@I@std@@@0@0U_Scalar_ptr_iterator_tag@0@@Z DD 035032101H
	DD	0f21c3321H
	DD	05015H
xdata	ENDS
;	COMDAT xdata
xdata	SEGMENT
$unwind$??$_Val_type@PEAI@std@@YAPEAIPEAI@Z DD 05030d01H
	DD	0720a030dH
	DD	05006H
xdata	ENDS
;	COMDAT xdata
xdata	SEGMENT
$unwind$??$_Rechecked@PEAIPEAI@std@@YAAEAPEAIAEAPEAIPEAI@Z DD 05031201H
	DD	0720f0312H
	DD	0500bH
xdata	ENDS
;	COMDAT xdata
xdata	SEGMENT
$unwind$??$_Uninit_move@PEAIPEAIU?$_Wrap_alloc@V?$allocator@I@std@@@std@@@std@@YAPEAIPEAI00AEAU?$_Wrap_alloc@V?$allocator@I@std@@@0@@Z DD 035032101H
	DD	0f21c3321H
	DD	05015H
xdata	ENDS
;	COMDAT xdata
xdata	SEGMENT
$unwind$??$_Unchecked@PEAI@std@@YAPEAIPEAI@Z DD 05030d01H
	DD	0720a030dH
	DD	05006H
xdata	ENDS
;	COMDAT xdata
xdata	SEGMENT
$unwind$??$construct@IAEBI@?$allocator@I@std@@QEAAXPEAIAEBI@Z DD 025031901H
	DD	0d2142319H
	DD	05010H
xdata	ENDS
;	COMDAT xdata
xdata	SEGMENT
$unwind$??$construct@IAEAI@?$allocator@I@std@@QEAAXPEAIAEAI@Z DD 025031901H
	DD	0d2142319H
	DD	05010H
xdata	ENDS
;	COMDAT xdata
xdata	SEGMENT
$unwind$??$_Uninitialized_move@PEAIPEAIU?$_Wrap_alloc@V?$allocator@I@std@@@std@@@std@@YAPEAIPEAI00AEAU?$_Wrap_alloc@V?$allocator@I@std@@@0@@Z DD 025031e01H
	DD	0d219231eH
	DD	05015H
xdata	ENDS
;	COMDAT xdata
xdata	SEGMENT
$unwind$??$construct@IAEBI@?$allocator_traits@V?$allocator@I@std@@@std@@SAXAEAV?$allocator@I@1@PEAIAEBI@Z DD 025031901H
	DD	0b2142319H
	DD	05010H
xdata	ENDS
;	COMDAT xdata
xdata	SEGMENT
$unwind$??$forward@AEBI@std@@YAAEBIAEBI@Z DD 05030d01H
	DD	0720a030dH
	DD	05006H
xdata	ENDS
;	COMDAT xdata
xdata	SEGMENT
$unwind$??$construct@IAEAI@?$allocator_traits@V?$allocator@I@std@@@std@@SAXAEAV?$allocator@I@1@PEAIAEAI@Z DD 025031901H
	DD	0b2142319H
	DD	05010H
xdata	ENDS
;	COMDAT xdata
xdata	SEGMENT
$unwind$??$forward@AEAI@std@@YAAEAIAEAI@Z DD 05030d01H
	DD	0720a030dH
	DD	05006H
xdata	ENDS
;	COMDAT xdata
xdata	SEGMENT
$unwind$??$_Addressof@$$CBI@std@@YAPEBIAEBIU?$integral_constant@_N$0A@@0@@Z DD 05031101H
	DD	0720e0311H
	DD	0500aH
xdata	ENDS
;	COMDAT xdata
xdata	SEGMENT
$unwind$??$_Debug_pointer@V?$reference_wrapper@Vrandom_device@std@@@std@@@std@@YAXAEAV?$reference_wrapper@Vrandom_device@std@@@0@PEB_WI@Z DD 05031701H
	DD	072140317H
	DD	05010H
xdata	ENDS
;	COMDAT xdata
xdata	SEGMENT
$unwind$??$_Debug_pointer@V?$_Array_iterator@I$0BA@@std@@@std@@YAXAEAV?$_Array_iterator@I$0BA@@0@PEB_WI@Z DD 05031701H
	DD	072140317H
	DD	05010H
xdata	ENDS
;	COMDAT xdata
xdata	SEGMENT
$unwind$??$_Umove@PEAI@?$vector@IV?$allocator@I@std@@@std@@IEAAPEAIPEAI00@Z DD 025031e01H
	DD	0b219231eH
	DD	05015H
xdata	ENDS
;	COMDAT xdata
xdata	SEGMENT
$unwind$??$construct@IAEBI@?$_Wrap_alloc@V?$allocator@I@std@@@std@@QEAAXPEAIAEBI@Z DD 025031901H
	DD	0b2142319H
	DD	05010H
xdata	ENDS
;	COMDAT xdata
xdata	SEGMENT
$unwind$??$construct@IAEAI@?$_Wrap_alloc@V?$allocator@I@std@@@std@@QEAAXPEAIAEAI@Z DD 025031901H
	DD	0b2142319H
	DD	05010H
xdata	ENDS
;	COMDAT xdata
xdata	SEGMENT
$unwind$??$addressof@$$CBI@std@@YAPEBIAEBI@Z DD 025030f01H
	DD	0d20a230fH
	DD	05006H
xdata	ENDS
;	COMDAT xdata
xdata	SEGMENT
$unwind$??$_Addressof@Vrandom_device@std@@@std@@YAPEAVrandom_device@0@AEAV10@U?$integral_constant@_N$0A@@0@@Z DD 05031101H
	DD	0720e0311H
	DD	0500aH
xdata	ENDS
;	COMDAT xdata
xdata	SEGMENT
$unwind$??$construct@U_Container_proxy@std@@U12@@?$allocator@U_Container_proxy@std@@@std@@QEAAXPEAU_Container_proxy@1@$$QEAU21@@Z DD 025051b01H
	DD	0d216231bH
	DD	060117012H
	DD	05010H
xdata	ENDS
;	COMDAT xdata
xdata	SEGMENT
$unwind$??$destroy@U_Container_proxy@std@@@?$allocator@U_Container_proxy@std@@@std@@QEAAXPEAU_Container_proxy@1@@Z DD 05031201H
	DD	0720f0312H
	DD	0500bH
xdata	ENDS
;	COMDAT xdata
xdata	SEGMENT
$unwind$??$construct@PEADAEAPEAD@?$allocator@D@std@@QEAAXPEAPEADAEAPEAD@Z DD 025031901H
	DD	0d2142319H
	DD	05010H
xdata	ENDS
;	COMDAT xdata
xdata	SEGMENT
$unwind$??$destroy@PEAD@?$allocator@D@std@@QEAAXPEAPEAD@Z DD 05031201H
	DD	0720f0312H
	DD	0500bH
xdata	ENDS
;	COMDAT xdata
xdata	SEGMENT
$unwind$??$generate_canonical@N$0?0V?$mersenne_twister_engine@_K$0EA@$0BDI@$0JM@$0BP@$0?EKPNJAKFFGJJOGBH@$0BN@$0FFFFFFFFFFFFFFFF@$0BB@$0HBNGHPPPONKGAAAA@$0CF@$0?IBBCAAAAAAAAA@$0CL@$0FIFBPECNEMJFHPCN@@std@@@std@@YANAEAV?$mersenne_twister_engine@_K$0EA@$0BDI@$0JM@$0BP@$0?EKPNJAKFFGJJOGBH@$0BN@$0FFFFFFFFFFFFFFFF@$0BB@$0HBNGHPPPONKGAAAA@$0CF@$0?IBBCAAAAAAAAA@$0CL@$0FIFBPECNEMJFHPCN@@0@@Z DD 025041201H
	DD	010d2312H
	DD	050060016H
xdata	ENDS
;	COMDAT xdata
xdata	SEGMENT
$unwind$??$_Generate@PEAKK@seed_seq@std@@AEBAXPEAK00@Z DD 025042101H
	DD	011c2321H
	DD	05015001aH
xdata	ENDS
;	COMDAT xdata
xdata	SEGMENT
$unwind$??$_Val_type@PEAK@std@@YAPEAKPEAK@Z DD 05030d01H
	DD	0720a030dH
	DD	05006H
xdata	ENDS
;	COMDAT xdata
xdata	SEGMENT
$unwind$??$?R$$V@?$reference_wrapper@Vrandom_device@std@@@std@@QEBAIXZ DD 025030f01H
	DD	0b20a230fH
	DD	05006H
xdata	ENDS
;	COMDAT xdata
xdata	SEGMENT
$unwind$??$invoke@AEAVrandom_device@std@@$$V@std@@YAIAEAVrandom_device@0@@Z DD 025030f01H
	DD	0b20a230fH
	DD	05006H
xdata	ENDS
;	COMDAT xdata
xdata	SEGMENT
$unwind$??$_Call@AEAVrandom_device@std@@$$V@_Invoker_functor@std@@SAIAEAVrandom_device@1@@Z DD 025030f01H
	DD	0b20a230fH
	DD	05006H
xdata	ENDS
;	COMDAT xdata
xdata	SEGMENT
$unwind$??$forward@AEAVrandom_device@std@@@std@@YAAEAVrandom_device@0@AEAV10@@Z DD 05030d01H
	DD	0720a030dH
	DD	05006H
xdata	ENDS
;	COMDAT xdata
xdata	SEGMENT
$unwind$?dtor$1@?0???$_Debug_range_ptr2@V?$_Array_iterator@I$0BA@@std@@V?$reference_wrapper@Vrandom_device@std@@@2@@std@@YAXV?$_Array_iterator@I$0BA@@0@0AEAV?$reference_wrapper@Vrandom_device@std@@@0@PEB_WIUrandom_access_iterator_tag@0@@Z@4HA DD 020601H
	DD	050023206H
xdata	ENDS
;	COMDAT xdata
xdata	SEGMENT
$unwind$?dtor$0@?0???$_Debug_range_ptr2@V?$_Array_iterator@I$0BA@@std@@V?$reference_wrapper@Vrandom_device@std@@@2@@std@@YAXV?$_Array_iterator@I$0BA@@0@0AEAV?$reference_wrapper@Vrandom_device@std@@@0@PEB_WIUrandom_access_iterator_tag@0@@Z@4HA DD 020601H
	DD	050023206H
xdata	ENDS
;	COMDAT xdata
xdata	SEGMENT
$ip2state$??$_Debug_range_ptr2@V?$_Array_iterator@I$0BA@@std@@V?$reference_wrapper@Vrandom_device@std@@@2@@std@@YAXV?$_Array_iterator@I$0BA@@0@0AEAV?$reference_wrapper@Vrandom_device@std@@@0@PEB_WIUrandom_access_iterator_tag@0@@Z DD imagerel ??$_Debug_range_ptr2@V?$_Array_iterator@I$0BA@@std@@V?$reference_wrapper@Vrandom_device@std@@@2@@std@@YAXV?$_Array_iterator@I$0BA@@0@0AEAV?$reference_wrapper@Vrandom_device@std@@@0@PEB_WIUrandom_access_iterator_tag@0@@Z
	DD	0ffffffffH
	DD	imagerel ??$_Debug_range_ptr2@V?$_Array_iterator@I$0BA@@std@@V?$reference_wrapper@Vrandom_device@std@@@2@@std@@YAXV?$_Array_iterator@I$0BA@@0@0AEAV?$reference_wrapper@Vrandom_device@std@@@0@PEB_WIUrandom_access_iterator_tag@0@@Z+38
	DD	01H
	DD	imagerel ??$_Debug_range_ptr2@V?$_Array_iterator@I$0BA@@std@@V?$reference_wrapper@Vrandom_device@std@@@2@@std@@YAXV?$_Array_iterator@I$0BA@@0@0AEAV?$reference_wrapper@Vrandom_device@std@@@0@PEB_WIUrandom_access_iterator_tag@0@@Z+163
	DD	00H
	DD	imagerel ??$_Debug_range_ptr2@V?$_Array_iterator@I$0BA@@std@@V?$reference_wrapper@Vrandom_device@std@@@2@@std@@YAXV?$_Array_iterator@I$0BA@@0@0AEAV?$reference_wrapper@Vrandom_device@std@@@0@PEB_WIUrandom_access_iterator_tag@0@@Z+173
	DD	0ffffffffH
xdata	ENDS
;	COMDAT xdata
xdata	SEGMENT
$stateUnwindMap$??$_Debug_range_ptr2@V?$_Array_iterator@I$0BA@@std@@V?$reference_wrapper@Vrandom_device@std@@@2@@std@@YAXV?$_Array_iterator@I$0BA@@0@0AEAV?$reference_wrapper@Vrandom_device@std@@@0@PEB_WIUrandom_access_iterator_tag@0@@Z DD 0ffffffffH
	DD	imagerel ?dtor$0@?0???$_Debug_range_ptr2@V?$_Array_iterator@I$0BA@@std@@V?$reference_wrapper@Vrandom_device@std@@@2@@std@@YAXV?$_Array_iterator@I$0BA@@0@0AEAV?$reference_wrapper@Vrandom_device@std@@@0@PEB_WIUrandom_access_iterator_tag@0@@Z@4HA
	DD	00H
	DD	imagerel ?dtor$1@?0???$_Debug_range_ptr2@V?$_Array_iterator@I$0BA@@std@@V?$reference_wrapper@Vrandom_device@std@@@2@@std@@YAXV?$_Array_iterator@I$0BA@@0@0AEAV?$reference_wrapper@Vrandom_device@std@@@0@PEB_WIUrandom_access_iterator_tag@0@@Z@4HA
xdata	ENDS
;	COMDAT CONST
CONST	SEGMENT
$cppxdata$??$_Debug_range_ptr2@V?$_Array_iterator@I$0BA@@std@@V?$reference_wrapper@Vrandom_device@std@@@2@@std@@YAXV?$_Array_iterator@I$0BA@@0@0AEAV?$reference_wrapper@Vrandom_device@std@@@0@PEB_WIUrandom_access_iterator_tag@0@@Z DD 019930522H
	DD	02H
	DD	imagerel $stateUnwindMap$??$_Debug_range_ptr2@V?$_Array_iterator@I$0BA@@std@@V?$reference_wrapper@Vrandom_device@std@@@2@@std@@YAXV?$_Array_iterator@I$0BA@@0@0AEAV?$reference_wrapper@Vrandom_device@std@@@0@PEB_WIUrandom_access_iterator_tag@0@@Z
	DD	00H
	DD	00H
	DD	04H
	DD	imagerel $ip2state$??$_Debug_range_ptr2@V?$_Array_iterator@I$0BA@@std@@V?$reference_wrapper@Vrandom_device@std@@@2@@std@@YAXV?$_Array_iterator@I$0BA@@0@0AEAV?$reference_wrapper@Vrandom_device@std@@@0@PEB_WIUrandom_access_iterator_tag@0@@Z
	DD	060H
	DD	00H
	DD	01H
CONST	ENDS
;	COMDAT xdata
xdata	SEGMENT
$unwind$??$_Debug_range_ptr2@V?$_Array_iterator@I$0BA@@std@@V?$reference_wrapper@Vrandom_device@std@@@2@@std@@YAXV?$_Array_iterator@I$0BA@@0@0AEAV?$reference_wrapper@Vrandom_device@std@@@0@PEB_WIUrandom_access_iterator_tag@0@@Z DD 025032611H
	DD	0d219231eH
	DD	05015H
	DD	imagerel __CxxFrameHandler3
	DD	imagerel $cppxdata$??$_Debug_range_ptr2@V?$_Array_iterator@I$0BA@@std@@V?$reference_wrapper@Vrandom_device@std@@@2@@std@@YAXV?$_Array_iterator@I$0BA@@0@0AEAV?$reference_wrapper@Vrandom_device@std@@@0@PEB_WIUrandom_access_iterator_tag@0@@Z
xdata	ENDS
;	COMDAT xdata
xdata	SEGMENT
$unwind$??$_Iter_cat@V?$_Array_iterator@I$0BA@@std@@@std@@YA?AUrandom_access_iterator_tag@0@AEBV?$_Array_iterator@I$0BA@@0@@Z DD 05031201H
	DD	0920f0312H
	DD	0500bH
xdata	ENDS
;	COMDAT xdata
xdata	SEGMENT
$unwind$??$addressof@Vrandom_device@std@@@std@@YAPEAVrandom_device@0@AEAV10@@Z DD 025030f01H
	DD	0d20a230fH
	DD	05006H
xdata	ENDS
;	COMDAT xdata
xdata	SEGMENT
$unwind$??$_Destroy_range@U?$_Wrap_alloc@V?$allocator@I@std@@@std@@@std@@YAXPEAI0AEAU?$_Wrap_alloc@V?$allocator@I@std@@@0@U_Scalar_ptr_iterator_tag@0@@Z DD 05031c01H
	DD	07219031cH
	DD	05015H
xdata	ENDS
;	COMDAT xdata
xdata	SEGMENT
$unwind$??$_Ptr_cat@II@std@@YA?AU_Scalar_ptr_iterator_tag@0@PEAI0@Z DD 05031201H
	DD	0920f0312H
	DD	0500bH
xdata	ENDS
;	COMDAT xdata
xdata	SEGMENT
$unwind$??$construct@U_Container_proxy@std@@U12@@?$allocator_traits@V?$allocator@U_Container_proxy@std@@@std@@@std@@SAXAEAV?$allocator@U_Container_proxy@std@@@1@PEAU_Container_proxy@1@$$QEAU31@@Z DD 025031901H
	DD	0b2142319H
	DD	05010H
xdata	ENDS
;	COMDAT xdata
xdata	SEGMENT
$unwind$??$forward@U_Container_proxy@std@@@std@@YA$$QEAU_Container_proxy@0@AEAU10@@Z DD 05030d01H
	DD	0720a030dH
	DD	05006H
xdata	ENDS
;	COMDAT xdata
xdata	SEGMENT
$unwind$??$destroy@U_Container_proxy@std@@@?$allocator_traits@V?$allocator@U_Container_proxy@std@@@std@@@std@@SAXAEAV?$allocator@U_Container_proxy@std@@@1@PEAU_Container_proxy@1@@Z DD 025031401H
	DD	0b20f2314H
	DD	0500bH
xdata	ENDS
;	COMDAT xdata
xdata	SEGMENT
$unwind$??$construct@PEADAEAPEAD@?$allocator_traits@V?$allocator@D@std@@@std@@SAXAEAV?$allocator@D@1@PEAPEADAEAPEAD@Z DD 025031901H
	DD	0b2142319H
	DD	05010H
xdata	ENDS
;	COMDAT xdata
xdata	SEGMENT
$unwind$??$forward@AEAPEAD@std@@YAAEAPEADAEAPEAD@Z DD 05030d01H
	DD	0720a030dH
	DD	05006H
xdata	ENDS
;	COMDAT xdata
xdata	SEGMENT
$unwind$??$_Addressof@D@std@@YAPEADAEADU?$integral_constant@_N$0A@@0@@Z DD 05031101H
	DD	0720e0311H
	DD	0500aH
xdata	ENDS
;	COMDAT xdata
xdata	SEGMENT
$unwind$??$destroy@PEAD@?$allocator_traits@V?$allocator@D@std@@@std@@SAXAEAV?$allocator@D@1@PEAPEAD@Z DD 025031401H
	DD	0b20f2314H
	DD	0500bH
xdata	ENDS
;	COMDAT xdata
xdata	SEGMENT
$unwind$??$forward@AEBV?$allocator@D@std@@@std@@YAAEBV?$allocator@D@0@AEBV10@@Z DD 05030d01H
	DD	0720a030dH
	DD	05006H
xdata	ENDS
;	COMDAT xdata
xdata	SEGMENT
$unwind$??$forward@AEBV?$allocator@I@std@@@std@@YAAEBV?$allocator@I@0@AEBV10@@Z DD 05030d01H
	DD	0720a030dH
	DD	05006H
xdata	ENDS
;	COMDAT xdata
xdata	SEGMENT
$unwind$??$_Addressof@I@std@@YAPEAIAEAIU?$integral_constant@_N$0A@@0@@Z DD 05031101H
	DD	0720e0311H
	DD	0500aH
xdata	ENDS
;	COMDAT xdata
xdata	SEGMENT
$unwind$??$_Eval@V?$mersenne_twister_engine@_K$0EA@$0BDI@$0JM@$0BP@$0?EKPNJAKFFGJJOGBH@$0BN@$0FFFFFFFFFFFFFFFF@$0BB@$0HBNGHPPPONKGAAAA@$0CF@$0?IBBCAAAAAAAAA@$0CL@$0FIFBPECNEMJFHPCN@@std@@@?$uniform_real@N@std@@AEBANAEAV?$mersenne_twister_engine@_K$0EA@$0BDI@$0JM@$0BP@$0?EKPNJAKFFGJJOGBH@$0BN@$0FFFFFFFFFFFFFFFF@$0BB@$0HBNGHPPPONKGAAAA@$0CF@$0?IBBCAAAAAAAAA@$0CL@$0FIFBPECNEMJFHPCN@@1@AEBUparam_type@01@@Z DD 025031901H
	DD	0b2142319H
	DD	05010H
xdata	ENDS
;	COMDAT xdata
xdata	SEGMENT
$unwind$??$generate@PEAK@seed_seq@std@@QEBAXPEAK0@Z DD 025031901H
	DD	0b2142319H
	DD	05010H
xdata	ENDS
;	COMDAT xdata
xdata	SEGMENT
$unwind$?dtor$1@?0???$_Construct@V?$_Array_iterator@I$0BA@@std@@@seed_seq@std@@AEAAXV?$_Array_iterator@I$0BA@@1@0@Z@4HA DD 020601H
	DD	050023206H
xdata	ENDS
;	COMDAT xdata
xdata	SEGMENT
$unwind$?dtor$0@?0???$_Construct@V?$_Array_iterator@I$0BA@@std@@@seed_seq@std@@AEAAXV?$_Array_iterator@I$0BA@@1@0@Z@4HA DD 020601H
	DD	050023206H
xdata	ENDS
;	COMDAT xdata
xdata	SEGMENT
$ip2state$??$_Construct@V?$_Array_iterator@I$0BA@@std@@@seed_seq@std@@AEAAXV?$_Array_iterator@I$0BA@@1@0@Z DD imagerel ??$_Construct@V?$_Array_iterator@I$0BA@@std@@@seed_seq@std@@AEAAXV?$_Array_iterator@I$0BA@@1@0@Z
	DD	0ffffffffH
	DD	imagerel ??$_Construct@V?$_Array_iterator@I$0BA@@std@@@seed_seq@std@@AEAAXV?$_Array_iterator@I$0BA@@1@0@Z+33
	DD	01H
	DD	imagerel ??$_Construct@V?$_Array_iterator@I$0BA@@std@@@seed_seq@std@@AEAAXV?$_Array_iterator@I$0BA@@1@0@Z+87
	DD	00H
	DD	imagerel ??$_Construct@V?$_Array_iterator@I$0BA@@std@@@seed_seq@std@@AEAAXV?$_Array_iterator@I$0BA@@1@0@Z+97
	DD	0ffffffffH
xdata	ENDS
;	COMDAT xdata
xdata	SEGMENT
$stateUnwindMap$??$_Construct@V?$_Array_iterator@I$0BA@@std@@@seed_seq@std@@AEAAXV?$_Array_iterator@I$0BA@@1@0@Z DD 0ffffffffH
	DD	imagerel ?dtor$0@?0???$_Construct@V?$_Array_iterator@I$0BA@@std@@@seed_seq@std@@AEAAXV?$_Array_iterator@I$0BA@@1@0@Z@4HA
	DD	00H
	DD	imagerel ?dtor$1@?0???$_Construct@V?$_Array_iterator@I$0BA@@std@@@seed_seq@std@@AEAAXV?$_Array_iterator@I$0BA@@1@0@Z@4HA
xdata	ENDS
;	COMDAT CONST
CONST	SEGMENT
$cppxdata$??$_Construct@V?$_Array_iterator@I$0BA@@std@@@seed_seq@std@@AEAAXV?$_Array_iterator@I$0BA@@1@0@Z DD 019930522H
	DD	02H
	DD	imagerel $stateUnwindMap$??$_Construct@V?$_Array_iterator@I$0BA@@std@@@seed_seq@std@@AEAAXV?$_Array_iterator@I$0BA@@1@0@Z
	DD	00H
	DD	00H
	DD	04H
	DD	imagerel $ip2state$??$_Construct@V?$_Array_iterator@I$0BA@@std@@@seed_seq@std@@AEAAXV?$_Array_iterator@I$0BA@@1@0@Z
	DD	060H
	DD	00H
	DD	01H
CONST	ENDS
;	COMDAT xdata
xdata	SEGMENT
$unwind$??$_Construct@V?$_Array_iterator@I$0BA@@std@@@seed_seq@std@@AEAAXV?$_Array_iterator@I$0BA@@1@0@Z DD 025032111H
	DD	0d2142319H
	DD	05010H
	DD	imagerel __CxxFrameHandler3
	DD	imagerel $cppxdata$??$_Construct@V?$_Array_iterator@I$0BA@@std@@@seed_seq@std@@AEAAXV?$_Array_iterator@I$0BA@@1@0@Z
xdata	ENDS
;	COMDAT xdata
xdata	SEGMENT
$unwind$??$_Generate@PEAIV?$reference_wrapper@Vrandom_device@std@@@std@@@std@@YAXPEAI0V?$reference_wrapper@Vrandom_device@std@@@0@@Z DD 025031901H
	DD	0b2142319H
	DD	05010H
xdata	ENDS
;	COMDAT xdata
xdata	SEGMENT
$unwind$?dtor$0@?0???$_Unchecked@I$0BA@@std@@YAPEAIV?$_Array_iterator@I$0BA@@0@@Z@4HA DD 020601H
	DD	050023206H
xdata	ENDS
;	COMDAT xdata
xdata	SEGMENT
$ip2state$??$_Unchecked@I$0BA@@std@@YAPEAIV?$_Array_iterator@I$0BA@@0@@Z DD imagerel ??$_Unchecked@I$0BA@@std@@YAPEAIV?$_Array_iterator@I$0BA@@0@@Z
	DD	0ffffffffH
	DD	imagerel ??$_Unchecked@I$0BA@@std@@YAPEAIV?$_Array_iterator@I$0BA@@0@@Z+23
	DD	00H
	DD	imagerel ??$_Unchecked@I$0BA@@std@@YAPEAIV?$_Array_iterator@I$0BA@@0@@Z+36
	DD	0ffffffffH
xdata	ENDS
;	COMDAT xdata
xdata	SEGMENT
$stateUnwindMap$??$_Unchecked@I$0BA@@std@@YAPEAIV?$_Array_iterator@I$0BA@@0@@Z DD 0ffffffffH
	DD	imagerel ?dtor$0@?0???$_Unchecked@I$0BA@@std@@YAPEAIV?$_Array_iterator@I$0BA@@0@@Z@4HA
xdata	ENDS
;	COMDAT CONST
CONST	SEGMENT
$cppxdata$??$_Unchecked@I$0BA@@std@@YAPEAIV?$_Array_iterator@I$0BA@@0@@Z DD 019930522H
	DD	01H
	DD	imagerel $stateUnwindMap$??$_Unchecked@I$0BA@@std@@YAPEAIV?$_Array_iterator@I$0BA@@0@@Z
	DD	00H
	DD	00H
	DD	03H
	DD	imagerel $ip2state$??$_Unchecked@I$0BA@@std@@YAPEAIV?$_Array_iterator@I$0BA@@0@@Z
	DD	068H
	DD	00H
	DD	01H
CONST	ENDS
;	COMDAT xdata
xdata	SEGMENT
$unwind$??$_Unchecked@I$0BA@@std@@YAPEAIV?$_Array_iterator@I$0BA@@0@@Z DD 025031711H
	DD	0d20a230fH
	DD	05006H
	DD	imagerel __CxxFrameHandler3
	DD	imagerel $cppxdata$??$_Unchecked@I$0BA@@std@@YAPEAIV?$_Array_iterator@I$0BA@@0@@Z
xdata	ENDS
;	COMDAT xdata
xdata	SEGMENT
$unwind$?dtor$2@?0???$_Debug_range_ptr@V?$_Array_iterator@I$0BA@@std@@V?$reference_wrapper@Vrandom_device@std@@@2@@std@@YAXV?$_Array_iterator@I$0BA@@0@0AEAV?$reference_wrapper@Vrandom_device@std@@@0@PEB_WI@Z@4HA DD 020601H
	DD	050023206H
xdata	ENDS
;	COMDAT xdata
xdata	SEGMENT
$unwind$?dtor$1@?0???$_Debug_range_ptr@V?$_Array_iterator@I$0BA@@std@@V?$reference_wrapper@Vrandom_device@std@@@2@@std@@YAXV?$_Array_iterator@I$0BA@@0@0AEAV?$reference_wrapper@Vrandom_device@std@@@0@PEB_WI@Z@4HA DD 020601H
	DD	050023206H
xdata	ENDS
;	COMDAT xdata
xdata	SEGMENT
$unwind$?dtor$0@?0???$_Debug_range_ptr@V?$_Array_iterator@I$0BA@@std@@V?$reference_wrapper@Vrandom_device@std@@@2@@std@@YAXV?$_Array_iterator@I$0BA@@0@0AEAV?$reference_wrapper@Vrandom_device@std@@@0@PEB_WI@Z@4HA DD 020601H
	DD	050023206H
xdata	ENDS
;	COMDAT xdata
xdata	SEGMENT
$ip2state$??$_Debug_range_ptr@V?$_Array_iterator@I$0BA@@std@@V?$reference_wrapper@Vrandom_device@std@@@2@@std@@YAXV?$_Array_iterator@I$0BA@@0@0AEAV?$reference_wrapper@Vrandom_device@std@@@0@PEB_WI@Z DD imagerel ??$_Debug_range_ptr@V?$_Array_iterator@I$0BA@@std@@V?$reference_wrapper@Vrandom_device@std@@@2@@std@@YAXV?$_Array_iterator@I$0BA@@0@0AEAV?$reference_wrapper@Vrandom_device@std@@@0@PEB_WI@Z
	DD	0ffffffffH
	DD	imagerel ??$_Debug_range_ptr@V?$_Array_iterator@I$0BA@@std@@V?$reference_wrapper@Vrandom_device@std@@@2@@std@@YAXV?$_Array_iterator@I$0BA@@0@0AEAV?$reference_wrapper@Vrandom_device@std@@@0@PEB_WI@Z+44
	DD	01H
	DD	imagerel ??$_Debug_range_ptr@V?$_Array_iterator@I$0BA@@std@@V?$reference_wrapper@Vrandom_device@std@@@2@@std@@YAXV?$_Array_iterator@I$0BA@@0@0AEAV?$reference_wrapper@Vrandom_device@std@@@0@PEB_WI@Z+123
	DD	02H
	DD	imagerel ??$_Debug_range_ptr@V?$_Array_iterator@I$0BA@@std@@V?$reference_wrapper@Vrandom_device@std@@@2@@std@@YAXV?$_Array_iterator@I$0BA@@0@0AEAV?$reference_wrapper@Vrandom_device@std@@@0@PEB_WI@Z+149
	DD	01H
	DD	imagerel ??$_Debug_range_ptr@V?$_Array_iterator@I$0BA@@std@@V?$reference_wrapper@Vrandom_device@std@@@2@@std@@YAXV?$_Array_iterator@I$0BA@@0@0AEAV?$reference_wrapper@Vrandom_device@std@@@0@PEB_WI@Z+207
	DD	00H
	DD	imagerel ??$_Debug_range_ptr@V?$_Array_iterator@I$0BA@@std@@V?$reference_wrapper@Vrandom_device@std@@@2@@std@@YAXV?$_Array_iterator@I$0BA@@0@0AEAV?$reference_wrapper@Vrandom_device@std@@@0@PEB_WI@Z+220
	DD	0ffffffffH
xdata	ENDS
;	COMDAT xdata
xdata	SEGMENT
$stateUnwindMap$??$_Debug_range_ptr@V?$_Array_iterator@I$0BA@@std@@V?$reference_wrapper@Vrandom_device@std@@@2@@std@@YAXV?$_Array_iterator@I$0BA@@0@0AEAV?$reference_wrapper@Vrandom_device@std@@@0@PEB_WI@Z DD 0ffffffffH
	DD	imagerel ?dtor$0@?0???$_Debug_range_ptr@V?$_Array_iterator@I$0BA@@std@@V?$reference_wrapper@Vrandom_device@std@@@2@@std@@YAXV?$_Array_iterator@I$0BA@@0@0AEAV?$reference_wrapper@Vrandom_device@std@@@0@PEB_WI@Z@4HA
	DD	00H
	DD	imagerel ?dtor$1@?0???$_Debug_range_ptr@V?$_Array_iterator@I$0BA@@std@@V?$reference_wrapper@Vrandom_device@std@@@2@@std@@YAXV?$_Array_iterator@I$0BA@@0@0AEAV?$reference_wrapper@Vrandom_device@std@@@0@PEB_WI@Z@4HA
	DD	01H
	DD	imagerel ?dtor$2@?0???$_Debug_range_ptr@V?$_Array_iterator@I$0BA@@std@@V?$reference_wrapper@Vrandom_device@std@@@2@@std@@YAXV?$_Array_iterator@I$0BA@@0@0AEAV?$reference_wrapper@Vrandom_device@std@@@0@PEB_WI@Z@4HA
xdata	ENDS
;	COMDAT CONST
CONST	SEGMENT
$cppxdata$??$_Debug_range_ptr@V?$_Array_iterator@I$0BA@@std@@V?$reference_wrapper@Vrandom_device@std@@@2@@std@@YAXV?$_Array_iterator@I$0BA@@0@0AEAV?$reference_wrapper@Vrandom_device@std@@@0@PEB_WI@Z DD 019930522H
	DD	03H
	DD	imagerel $stateUnwindMap$??$_Debug_range_ptr@V?$_Array_iterator@I$0BA@@std@@V?$reference_wrapper@Vrandom_device@std@@@2@@std@@YAXV?$_Array_iterator@I$0BA@@0@0AEAV?$reference_wrapper@Vrandom_device@std@@@0@PEB_WI@Z
	DD	00H
	DD	00H
	DD	06H
	DD	imagerel $ip2state$??$_Debug_range_ptr@V?$_Array_iterator@I$0BA@@std@@V?$reference_wrapper@Vrandom_device@std@@@2@@std@@YAXV?$_Array_iterator@I$0BA@@0@0AEAV?$reference_wrapper@Vrandom_device@std@@@0@PEB_WI@Z
	DD	0c8H
	DD	00H
	DD	01H
CONST	ENDS
;	COMDAT xdata
xdata	SEGMENT
$unwind$??$_Debug_range_ptr@V?$_Array_iterator@I$0BA@@std@@V?$reference_wrapper@Vrandom_device@std@@@2@@std@@YAXV?$_Array_iterator@I$0BA@@0@0AEAV?$reference_wrapper@Vrandom_device@std@@@0@PEB_WI@Z DD 035042c11H
	DD	011c3321H
	DD	05015001eH
	DD	imagerel __CxxFrameHandler3
	DD	imagerel $cppxdata$??$_Debug_range_ptr@V?$_Array_iterator@I$0BA@@std@@V?$reference_wrapper@Vrandom_device@std@@@2@@std@@YAXV?$_Array_iterator@I$0BA@@0@0AEAV?$reference_wrapper@Vrandom_device@std@@@0@PEB_WI@Z
xdata	ENDS
;	COMDAT xdata
xdata	SEGMENT
$unwind$??$?0D@?$allocator@U_Container_proxy@std@@@std@@QEAA@AEBV?$allocator@D@1@@Z DD 05031201H
	DD	0720f0312H
	DD	0500bH
xdata	ENDS
;	COMDAT xdata
xdata	SEGMENT
$unwind$??$?0U?$_Wrap_alloc@V?$allocator@D@std@@@std@@@?$_Wrap_alloc@V?$allocator@U_Container_proxy@std@@@std@@@std@@QEAA@AEAU?$_Wrap_alloc@V?$allocator@D@std@@@1@@Z DD 025031401H
	DD	0b20f2314H
	DD	0500bH
xdata	ENDS
;	COMDAT xdata
xdata	SEGMENT
$unwind$??$_Destroy_range@U?$_Wrap_alloc@V?$allocator@I@std@@@std@@@std@@YAXPEAI0AEAU?$_Wrap_alloc@V?$allocator@I@std@@@0@@Z DD 025031901H
	DD	0d2142319H
	DD	05010H
xdata	ENDS
;	COMDAT xdata
xdata	SEGMENT
$unwind$??$construct@U_Container_proxy@std@@U12@@?$_Wrap_alloc@V?$allocator@U_Container_proxy@std@@@std@@@std@@QEAAXPEAU_Container_proxy@1@$$QEAU21@@Z DD 025031901H
	DD	0b2142319H
	DD	05010H
xdata	ENDS
;	COMDAT xdata
xdata	SEGMENT
$unwind$??$destroy@U_Container_proxy@std@@@?$_Wrap_alloc@V?$allocator@U_Container_proxy@std@@@std@@@std@@QEAAXPEAU_Container_proxy@1@@Z DD 025031401H
	DD	0b20f2314H
	DD	0500bH
xdata	ENDS
;	COMDAT xdata
xdata	SEGMENT
$unwind$??$?0I@?$allocator@U_Container_proxy@std@@@std@@QEAA@AEBV?$allocator@I@1@@Z DD 05031201H
	DD	0720f0312H
	DD	0500bH
xdata	ENDS
;	COMDAT xdata
xdata	SEGMENT
$unwind$??$?0U?$_Wrap_alloc@V?$allocator@I@std@@@std@@@?$_Wrap_alloc@V?$allocator@U_Container_proxy@std@@@std@@@std@@QEAA@AEAU?$_Wrap_alloc@V?$allocator@I@std@@@1@@Z DD 025031401H
	DD	0b20f2314H
	DD	0500bH
xdata	ENDS
;	COMDAT xdata
xdata	SEGMENT
$unwind$?deallocate@?$_Wrap_alloc@V?$allocator@U_Container_proxy@std@@@std@@@std@@QEAAXPEAU_Container_proxy@2@_K@Z DD 025031901H
	DD	0b2142319H
	DD	05010H
xdata	ENDS
;	COMDAT xdata
xdata	SEGMENT
$unwind$?allocate@?$_Wrap_alloc@V?$allocator@U_Container_proxy@std@@@std@@@std@@QEAAPEAU_Container_proxy@2@_K@Z DD 025031401H
	DD	0b20f2314H
	DD	0500bH
xdata	ENDS
;	COMDAT xdata
xdata	SEGMENT
$unwind$?allocate@?$allocator@U_Container_proxy@std@@@std@@QEAAPEAU_Container_proxy@2@_K@Z DD 025031401H
	DD	0b20f2314H
	DD	0500bH
xdata	ENDS
;	COMDAT xdata
xdata	SEGMENT
$unwind$?deallocate@?$allocator@U_Container_proxy@std@@@std@@QEAAXPEAU_Container_proxy@2@_K@Z DD 025031901H
	DD	0b2142319H
	DD	05010H
xdata	ENDS
;	COMDAT xdata
xdata	SEGMENT
$unwind$??$construct@PEADAEAPEAD@?$_Wrap_alloc@V?$allocator@D@std@@@std@@QEAAXPEAPEADAEAPEAD@Z DD 025031901H
	DD	0b2142319H
	DD	05010H
xdata	ENDS
;	COMDAT xdata
xdata	SEGMENT
$unwind$??$_Debug_pointer_if@$$CBD@std@@YAX_NPEBDPEB_WI@Z DD 025031d01H
	DD	0b218231dH
	DD	05014H
xdata	ENDS
;	COMDAT xdata
xdata	SEGMENT
$unwind$??$addressof@D@std@@YAPEADAEAD@Z DD 025030f01H
	DD	0d20a230fH
	DD	05006H
xdata	ENDS
;	COMDAT xdata
xdata	SEGMENT
$unwind$??$destroy@PEAD@?$_Wrap_alloc@V?$allocator@D@std@@@std@@QEAAXPEAPEAD@Z DD 025031401H
	DD	0b20f2314H
	DD	0500bH
xdata	ENDS
;	COMDAT xdata
xdata	SEGMENT
$unwind$??$?0AEBV?$allocator@D@std@@$$V@?$_Compressed_pair@U?$_Wrap_alloc@V?$allocator@D@std@@@std@@V?$_String_val@U?$_Simple_types@D@std@@@2@$00@std@@QEAA@U_One_then_variadic_args_t@1@AEBV?$allocator@D@1@@Z DD 025031801H
	DD	0b2132318H
	DD	0500fH
xdata	ENDS
;	COMDAT xdata
xdata	SEGMENT
$unwind$??$?0AEBV?$allocator@I@std@@$$V@?$_Compressed_pair@U?$_Wrap_alloc@V?$allocator@I@std@@@std@@V?$_Vector_val@U?$_Simple_types@I@std@@@2@$00@std@@QEAA@U_One_then_variadic_args_t@1@AEBV?$allocator@I@1@@Z DD 025031801H
	DD	0b2132318H
	DD	0500fH
xdata	ENDS
;	COMDAT xdata
xdata	SEGMENT
$unwind$??$_Debug_pointer@$$CBD@std@@YAXPEBDPEB_WI@Z DD 025031901H
	DD	0b2142319H
	DD	05010H
xdata	ENDS
;	COMDAT xdata
xdata	SEGMENT
$unwind$??$addressof@I@std@@YAPEAIAEAI@Z DD 025030f01H
	DD	0d20a230fH
	DD	05006H
xdata	ENDS
;	COMDAT xdata
xdata	SEGMENT
$unwind$??$?RV?$mersenne_twister_engine@_K$0EA@$0BDI@$0JM@$0BP@$0?EKPNJAKFFGJJOGBH@$0BN@$0FFFFFFFFFFFFFFFF@$0BB@$0HBNGHPPPONKGAAAA@$0CF@$0?IBBCAAAAAAAAA@$0CL@$0FIFBPECNEMJFHPCN@@std@@@?$uniform_real@N@std@@QEBANAEAV?$mersenne_twister_engine@_K$0EA@$0BDI@$0JM@$0BP@$0?EKPNJAKFFGJJOGBH@$0BN@$0FFFFFFFFFFFFFFFF@$0BB@$0HBNGHPPPONKGAAAA@$0CF@$0?IBBCAAAAAAAAA@$0CL@$0FIFBPECNEMJFHPCN@@1@@Z DD 025031401H
	DD	0b20f2314H
	DD	0500bH
xdata	ENDS
;	COMDAT xdata
xdata	SEGMENT
$unwind$??$seed@Vseed_seq@std@@X@?$mersenne_twister_engine@_K$0EA@$0BDI@$0JM@$0BP@$0?EKPNJAKFFGJJOGBH@$0BN@$0FFFFFFFFFFFFFFFF@$0BB@$0HBNGHPPPONKGAAAA@$0CF@$0?IBBCAAAAAAAAA@$0CL@$0FIFBPECNEMJFHPCN@@std@@QEAAXAEAVseed_seq@1@@Z DD 025042819H
	DD	01122317H
	DD	0500b016aH
	DD	imagerel __GSHandlerCheck
	DD	0b40H
xdata	ENDS
;	COMDAT xdata
xdata	SEGMENT
$unwind$?dtor$3@?0???$?0V?$_Array_iterator@I$0BA@@std@@@seed_seq@std@@QEAA@V?$_Array_iterator@I$0BA@@1@0@Z@4HA DD 020601H
	DD	050023206H
xdata	ENDS
;	COMDAT xdata
xdata	SEGMENT
$unwind$?dtor$2@?0???$?0V?$_Array_iterator@I$0BA@@std@@@seed_seq@std@@QEAA@V?$_Array_iterator@I$0BA@@1@0@Z@4HA DD 020601H
	DD	050023206H
xdata	ENDS
;	COMDAT xdata
xdata	SEGMENT
$unwind$?dtor$1@?0???$?0V?$_Array_iterator@I$0BA@@std@@@seed_seq@std@@QEAA@V?$_Array_iterator@I$0BA@@1@0@Z@4HA DD 020601H
	DD	050023206H
xdata	ENDS
;	COMDAT xdata
xdata	SEGMENT
$unwind$?dtor$0@?0???$?0V?$_Array_iterator@I$0BA@@std@@@seed_seq@std@@QEAA@V?$_Array_iterator@I$0BA@@1@0@Z@4HA DD 020601H
	DD	050023206H
xdata	ENDS
;	COMDAT xdata
xdata	SEGMENT
$ip2state$??$?0V?$_Array_iterator@I$0BA@@std@@@seed_seq@std@@QEAA@V?$_Array_iterator@I$0BA@@1@0@Z DD imagerel ??$?0V?$_Array_iterator@I$0BA@@std@@@seed_seq@std@@QEAA@V?$_Array_iterator@I$0BA@@1@0@Z
	DD	0ffffffffH
	DD	imagerel ??$?0V?$_Array_iterator@I$0BA@@std@@@seed_seq@std@@QEAA@V?$_Array_iterator@I$0BA@@1@0@Z+39
	DD	01H
	DD	imagerel ??$?0V?$_Array_iterator@I$0BA@@std@@@seed_seq@std@@QEAA@V?$_Array_iterator@I$0BA@@1@0@Z+55
	DD	02H
	DD	imagerel ??$?0V?$_Array_iterator@I$0BA@@std@@@seed_seq@std@@QEAA@V?$_Array_iterator@I$0BA@@1@0@Z+111
	DD	03H
	DD	imagerel ??$?0V?$_Array_iterator@I$0BA@@std@@@seed_seq@std@@QEAA@V?$_Array_iterator@I$0BA@@1@0@Z+137
	DD	02H
	DD	imagerel ??$?0V?$_Array_iterator@I$0BA@@std@@@seed_seq@std@@QEAA@V?$_Array_iterator@I$0BA@@1@0@Z+164
	DD	00H
	DD	imagerel ??$?0V?$_Array_iterator@I$0BA@@std@@@seed_seq@std@@QEAA@V?$_Array_iterator@I$0BA@@1@0@Z+177
	DD	0ffffffffH
xdata	ENDS
;	COMDAT xdata
xdata	SEGMENT
$stateUnwindMap$??$?0V?$_Array_iterator@I$0BA@@std@@@seed_seq@std@@QEAA@V?$_Array_iterator@I$0BA@@1@0@Z DD 0ffffffffH
	DD	imagerel ?dtor$0@?0???$?0V?$_Array_iterator@I$0BA@@std@@@seed_seq@std@@QEAA@V?$_Array_iterator@I$0BA@@1@0@Z@4HA
	DD	00H
	DD	imagerel ?dtor$1@?0???$?0V?$_Array_iterator@I$0BA@@std@@@seed_seq@std@@QEAA@V?$_Array_iterator@I$0BA@@1@0@Z@4HA
	DD	01H
	DD	imagerel ?dtor$2@?0???$?0V?$_Array_iterator@I$0BA@@std@@@seed_seq@std@@QEAA@V?$_Array_iterator@I$0BA@@1@0@Z@4HA
	DD	02H
	DD	imagerel ?dtor$3@?0???$?0V?$_Array_iterator@I$0BA@@std@@@seed_seq@std@@QEAA@V?$_Array_iterator@I$0BA@@1@0@Z@4HA
xdata	ENDS
;	COMDAT CONST
CONST	SEGMENT
$cppxdata$??$?0V?$_Array_iterator@I$0BA@@std@@@seed_seq@std@@QEAA@V?$_Array_iterator@I$0BA@@1@0@Z DD 019930522H
	DD	04H
	DD	imagerel $stateUnwindMap$??$?0V?$_Array_iterator@I$0BA@@std@@@seed_seq@std@@QEAA@V?$_Array_iterator@I$0BA@@1@0@Z
	DD	00H
	DD	00H
	DD	07H
	DD	imagerel $ip2state$??$?0V?$_Array_iterator@I$0BA@@std@@@seed_seq@std@@QEAA@V?$_Array_iterator@I$0BA@@1@0@Z
	DD	0b0H
	DD	00H
	DD	01H
CONST	ENDS
;	COMDAT xdata
xdata	SEGMENT
$unwind$??$?0V?$_Array_iterator@I$0BA@@std@@@seed_seq@std@@QEAA@V?$_Array_iterator@I$0BA@@1@0@Z DD 025042711H
	DD	0117231cH
	DD	05010001aH
	DD	imagerel __CxxFrameHandler3
	DD	imagerel $cppxdata$??$?0V?$_Array_iterator@I$0BA@@std@@@seed_seq@std@@QEAA@V?$_Array_iterator@I$0BA@@1@0@Z
xdata	ENDS
;	COMDAT xdata
xdata	SEGMENT
$unwind$?dtor$2@?0???$generate@V?$_Array_iterator@I$0BA@@std@@V?$reference_wrapper@Vrandom_device@std@@@2@@std@@YAXV?$_Array_iterator@I$0BA@@0@0V?$reference_wrapper@Vrandom_device@std@@@0@@Z@4HA DD 020601H
	DD	050023206H
xdata	ENDS
;	COMDAT xdata
xdata	SEGMENT
$unwind$?dtor$1@?0???$generate@V?$_Array_iterator@I$0BA@@std@@V?$reference_wrapper@Vrandom_device@std@@@2@@std@@YAXV?$_Array_iterator@I$0BA@@0@0V?$reference_wrapper@Vrandom_device@std@@@0@@Z@4HA DD 020601H
	DD	050023206H
xdata	ENDS
;	COMDAT xdata
xdata	SEGMENT
$unwind$?dtor$0@?0???$generate@V?$_Array_iterator@I$0BA@@std@@V?$reference_wrapper@Vrandom_device@std@@@2@@std@@YAXV?$_Array_iterator@I$0BA@@0@0V?$reference_wrapper@Vrandom_device@std@@@0@@Z@4HA DD 020601H
	DD	050023206H
xdata	ENDS
;	COMDAT xdata
xdata	SEGMENT
$ip2state$??$generate@V?$_Array_iterator@I$0BA@@std@@V?$reference_wrapper@Vrandom_device@std@@@2@@std@@YAXV?$_Array_iterator@I$0BA@@0@0V?$reference_wrapper@Vrandom_device@std@@@0@@Z DD imagerel ??$generate@V?$_Array_iterator@I$0BA@@std@@V?$reference_wrapper@Vrandom_device@std@@@2@@std@@YAXV?$_Array_iterator@I$0BA@@0@0V?$reference_wrapper@Vrandom_device@std@@@0@@Z
	DD	0ffffffffH
	DD	imagerel ??$generate@V?$_Array_iterator@I$0BA@@std@@V?$reference_wrapper@Vrandom_device@std@@@2@@std@@YAXV?$_Array_iterator@I$0BA@@0@0V?$reference_wrapper@Vrandom_device@std@@@0@@Z+39
	DD	01H
	DD	imagerel ??$generate@V?$_Array_iterator@I$0BA@@std@@V?$reference_wrapper@Vrandom_device@std@@@2@@std@@YAXV?$_Array_iterator@I$0BA@@0@0V?$reference_wrapper@Vrandom_device@std@@@0@@Z+95
	DD	02H
	DD	imagerel ??$generate@V?$_Array_iterator@I$0BA@@std@@V?$reference_wrapper@Vrandom_device@std@@@2@@std@@YAXV?$_Array_iterator@I$0BA@@0@0V?$reference_wrapper@Vrandom_device@std@@@0@@Z+121
	DD	01H
	DD	imagerel ??$generate@V?$_Array_iterator@I$0BA@@std@@V?$reference_wrapper@Vrandom_device@std@@@2@@std@@YAXV?$_Array_iterator@I$0BA@@0@0V?$reference_wrapper@Vrandom_device@std@@@0@@Z+296
	DD	00H
	DD	imagerel ??$generate@V?$_Array_iterator@I$0BA@@std@@V?$reference_wrapper@Vrandom_device@std@@@2@@std@@YAXV?$_Array_iterator@I$0BA@@0@0V?$reference_wrapper@Vrandom_device@std@@@0@@Z+309
	DD	0ffffffffH
xdata	ENDS
;	COMDAT xdata
xdata	SEGMENT
$stateUnwindMap$??$generate@V?$_Array_iterator@I$0BA@@std@@V?$reference_wrapper@Vrandom_device@std@@@2@@std@@YAXV?$_Array_iterator@I$0BA@@0@0V?$reference_wrapper@Vrandom_device@std@@@0@@Z DD 0ffffffffH
	DD	imagerel ?dtor$0@?0???$generate@V?$_Array_iterator@I$0BA@@std@@V?$reference_wrapper@Vrandom_device@std@@@2@@std@@YAXV?$_Array_iterator@I$0BA@@0@0V?$reference_wrapper@Vrandom_device@std@@@0@@Z@4HA
	DD	00H
	DD	imagerel ?dtor$1@?0???$generate@V?$_Array_iterator@I$0BA@@std@@V?$reference_wrapper@Vrandom_device@std@@@2@@std@@YAXV?$_Array_iterator@I$0BA@@0@0V?$reference_wrapper@Vrandom_device@std@@@0@@Z@4HA
	DD	01H
	DD	imagerel ?dtor$2@?0???$generate@V?$_Array_iterator@I$0BA@@std@@V?$reference_wrapper@Vrandom_device@std@@@2@@std@@YAXV?$_Array_iterator@I$0BA@@0@0V?$reference_wrapper@Vrandom_device@std@@@0@@Z@4HA
xdata	ENDS
;	COMDAT CONST
CONST	SEGMENT
$cppxdata$??$generate@V?$_Array_iterator@I$0BA@@std@@V?$reference_wrapper@Vrandom_device@std@@@2@@std@@YAXV?$_Array_iterator@I$0BA@@0@0V?$reference_wrapper@Vrandom_device@std@@@0@@Z DD 019930522H
	DD	03H
	DD	imagerel $stateUnwindMap$??$generate@V?$_Array_iterator@I$0BA@@std@@V?$reference_wrapper@Vrandom_device@std@@@2@@std@@YAXV?$_Array_iterator@I$0BA@@0@0V?$reference_wrapper@Vrandom_device@std@@@0@@Z
	DD	00H
	DD	00H
	DD	06H
	DD	imagerel $ip2state$??$generate@V?$_Array_iterator@I$0BA@@std@@V?$reference_wrapper@Vrandom_device@std@@@2@@std@@YAXV?$_Array_iterator@I$0BA@@0@0V?$reference_wrapper@Vrandom_device@std@@@0@@Z
	DD	0110H
	DD	00H
	DD	01H
CONST	ENDS
;	COMDAT xdata
xdata	SEGMENT
$unwind$??$generate@V?$_Array_iterator@I$0BA@@std@@V?$reference_wrapper@Vrandom_device@std@@@2@@std@@YAXV?$_Array_iterator@I$0BA@@0@0V?$reference_wrapper@Vrandom_device@std@@@0@@Z DD 035042711H
	DD	0117331cH
	DD	050100026H
	DD	imagerel __CxxFrameHandler3
	DD	imagerel $cppxdata$??$generate@V?$_Array_iterator@I$0BA@@std@@V?$reference_wrapper@Vrandom_device@std@@@2@@std@@YAXV?$_Array_iterator@I$0BA@@0@0V?$reference_wrapper@Vrandom_device@std@@@0@@Z
xdata	ENDS
;	COMDAT xdata
xdata	SEGMENT
$unwind$?get@?$reference_wrapper@Vrandom_device@std@@@std@@QEBAAEAVrandom_device@2@XZ DD 05030d01H
	DD	0720a030dH
	DD	05006H
xdata	ENDS
;	COMDAT xdata
xdata	SEGMENT
$unwind$??0?$reference_wrapper@Vrandom_device@std@@@std@@QEAA@AEAVrandom_device@1@@Z DD 025031401H
	DD	0b20f2314H
	DD	0500bH
xdata	ENDS
;	COMDAT xdata
xdata	SEGMENT
$unwind$??$ref@Vrandom_device@std@@@std@@YA?AV?$reference_wrapper@Vrandom_device@std@@@0@AEAVrandom_device@0@@Z DD 025031401H
	DD	0b20f2314H
	DD	0500bH
xdata	ENDS
;	COMDAT xdata
xdata	SEGMENT
$unwind$??0?$_Array_iterator@I$0BA@@std@@QEAA@AEBV01@@Z DD 025031401H
	DD	0b20f2314H
	DD	0500bH
xdata	ENDS
;	COMDAT xdata
xdata	SEGMENT
$unwind$??1?$_Array_iterator@I$0BA@@std@@QEAA@XZ DD 025030f01H
	DD	0b20a230fH
	DD	05006H
xdata	ENDS
;	COMDAT xdata
xdata	SEGMENT
$unwind$??E?$_Array_iterator@I$0BA@@std@@QEAAAEAV01@XZ DD 025030f01H
	DD	0b20a230fH
	DD	05006H
xdata	ENDS
;	COMDAT xdata
xdata	SEGMENT
$unwind$??D?$_Array_iterator@I$0BA@@std@@QEBAAEAIXZ DD 025030f01H
	DD	0b20a230fH
	DD	05006H
xdata	ENDS
;	COMDAT xdata
xdata	SEGMENT
$unwind$?_Unchecked@?$_Array_iterator@I$0BA@@std@@QEBAPEAIXZ DD 025030f01H
	DD	0b20a230fH
	DD	05006H
xdata	ENDS
;	COMDAT xdata
xdata	SEGMENT
$unwind$??0?$_Array_iterator@I$0BA@@std@@QEAA@PEAI_K@Z DD 025031901H
	DD	0b2142319H
	DD	05010H
xdata	ENDS
;	COMDAT xdata
xdata	SEGMENT
$unwind$??0?$_Array_const_iterator@I$0BA@@std@@QEAA@AEBV01@@Z DD 025031401H
	DD	0b20f2314H
	DD	0500bH
xdata	ENDS
;	COMDAT xdata
xdata	SEGMENT
$unwind$??1?$_Array_const_iterator@I$0BA@@std@@QEAA@XZ DD 025030f01H
	DD	0b20a230fH
	DD	05006H
xdata	ENDS
;	COMDAT xdata
xdata	SEGMENT
$unwind$?_Compat@?$_Array_const_iterator@I$0BA@@std@@QEBAXAEBV12@@Z DD 035031401H
	DD	0d20f3314H
	DD	0500bH
xdata	ENDS
;	COMDAT xdata
xdata	SEGMENT
$unwind$??M?$_Array_const_iterator@I$0BA@@std@@QEBA_NAEBV01@@Z DD 025031401H
	DD	0d20f2314H
	DD	0500bH
xdata	ENDS
;	COMDAT xdata
xdata	SEGMENT
$unwind$??9?$_Array_const_iterator@I$0BA@@std@@QEBA_NAEBV01@@Z DD 025031401H
	DD	0d20f2314H
	DD	0500bH
xdata	ENDS
;	COMDAT xdata
xdata	SEGMENT
$unwind$??8?$_Array_const_iterator@I$0BA@@std@@QEBA_NAEBV01@@Z DD 025031401H
	DD	0d20f2314H
	DD	0500bH
xdata	ENDS
;	COMDAT xdata
xdata	SEGMENT
$unwind$??E?$_Array_const_iterator@I$0BA@@std@@QEAAAEAV01@XZ DD 035030f01H
	DD	0d20a330fH
	DD	05006H
xdata	ENDS
;	COMDAT xdata
xdata	SEGMENT
$unwind$??D?$_Array_const_iterator@I$0BA@@std@@QEBAAEBIXZ DD 035030f01H
	DD	0d20a330fH
	DD	05006H
xdata	ENDS
;	COMDAT xdata
xdata	SEGMENT
$unwind$?_Unchecked@?$_Array_const_iterator@I$0BA@@std@@QEBAPEBIXZ DD 05030d01H
	DD	0720a030dH
	DD	05006H
xdata	ENDS
;	COMDAT xdata
xdata	SEGMENT
$unwind$??0?$_Array_const_iterator@I$0BA@@std@@QEAA@PEBI_K@Z DD 025031901H
	DD	0b2142319H
	DD	05010H
xdata	ENDS
;	COMDAT xdata
xdata	SEGMENT
$unwind$??0?$_Iterator012@Urandom_access_iterator_tag@std@@I_JPEBIAEBIU_Iterator_base12@2@@std@@QEAA@AEBU01@@Z DD 025031401H
	DD	0b20f2314H
	DD	0500bH
xdata	ENDS
;	COMDAT xdata
xdata	SEGMENT
$unwind$??1?$_Iterator012@Urandom_access_iterator_tag@std@@I_JPEBIAEBIU_Iterator_base12@2@@std@@QEAA@XZ DD 025030f01H
	DD	0b20a230fH
	DD	05006H
xdata	ENDS
;	COMDAT xdata
xdata	SEGMENT
$unwind$??0?$_Iterator012@Urandom_access_iterator_tag@std@@I_JPEBIAEBIU_Iterator_base12@2@@std@@QEAA@XZ DD 025030f01H
	DD	0b20a230fH
	DD	05006H
xdata	ENDS
;	COMDAT xdata
xdata	SEGMENT
$ip2state$?end@?$array@I$0BA@@std@@QEAA?AV?$_Array_iterator@I$0BA@@2@XZ DD imagerel ?end@?$array@I$0BA@@std@@QEAA?AV?$_Array_iterator@I$0BA@@2@XZ
	DD	0ffffffffH
xdata	ENDS
;	COMDAT CONST
CONST	SEGMENT
$cppxdata$?end@?$array@I$0BA@@std@@QEAA?AV?$_Array_iterator@I$0BA@@2@XZ DD 019930522H
	DD	00H
	DD	00H
	DD	00H
	DD	00H
	DD	01H
	DD	imagerel $ip2state$?end@?$array@I$0BA@@std@@QEAA?AV?$_Array_iterator@I$0BA@@2@XZ
	DD	060H
	DD	00H
	DD	05H
CONST	ENDS
;	COMDAT xdata
xdata	SEGMENT
$unwind$?end@?$array@I$0BA@@std@@QEAA?AV?$_Array_iterator@I$0BA@@2@XZ DD 025031c19H
	DD	0d20f2314H
	DD	0500bH
	DD	imagerel __CxxFrameHandler3
	DD	imagerel $cppxdata$?end@?$array@I$0BA@@std@@QEAA?AV?$_Array_iterator@I$0BA@@2@XZ
xdata	ENDS
;	COMDAT xdata
xdata	SEGMENT
$ip2state$?begin@?$array@I$0BA@@std@@QEAA?AV?$_Array_iterator@I$0BA@@2@XZ DD imagerel ?begin@?$array@I$0BA@@std@@QEAA?AV?$_Array_iterator@I$0BA@@2@XZ
	DD	0ffffffffH
xdata	ENDS
;	COMDAT CONST
CONST	SEGMENT
$cppxdata$?begin@?$array@I$0BA@@std@@QEAA?AV?$_Array_iterator@I$0BA@@2@XZ DD 019930522H
	DD	00H
	DD	00H
	DD	00H
	DD	00H
	DD	01H
	DD	imagerel $ip2state$?begin@?$array@I$0BA@@std@@QEAA?AV?$_Array_iterator@I$0BA@@2@XZ
	DD	060H
	DD	00H
	DD	05H
CONST	ENDS
;	COMDAT xdata
xdata	SEGMENT
$unwind$?begin@?$array@I$0BA@@std@@QEAA?AV?$_Array_iterator@I$0BA@@2@XZ DD 025031c19H
	DD	0d20f2314H
	DD	0500bH
	DD	imagerel __CxxFrameHandler3
	DD	imagerel $cppxdata$?begin@?$array@I$0BA@@std@@QEAA?AV?$_Array_iterator@I$0BA@@2@XZ
xdata	ENDS
;	COMDAT xdata
xdata	SEGMENT
$unwind$?bend_force_sqr@@YANAEBV?$vector@NV?$allocator@N@std@@@std@@00000HHHHHHH@Z DD 025042101H
	DD	011c2321H
	DD	050150032H
xdata	ENDS
;	COMDAT xdata
xdata	SEGMENT
$unwind$?genrand_real@@YANXZ DD 025030b01H
	DD	0b206230bH
	DD	05002H
xdata	ENDS
;	COMDAT xdata
xdata	SEGMENT
$unwind$?dtor$5@?0??genrand_init@@YAXXZ@4HA DD 020601H
	DD	050023206H
xdata	ENDS
;	COMDAT xdata
xdata	SEGMENT
$unwind$?dtor$0@?0??genrand_init@@YAXXZ@4HA DD 020601H
	DD	050023206H
xdata	ENDS
;	COMDAT xdata
xdata	SEGMENT
$ip2state$?genrand_init@@YAXXZ DD imagerel ?genrand_init@@YAXXZ
	DD	0ffffffffH
	DD	imagerel ?genrand_init@@YAXXZ+62
	DD	00H
	DD	imagerel ?genrand_init@@YAXXZ+79
	DD	0ffffffffH
	DD	imagerel ?genrand_init@@YAXXZ+329
	DD	01H
	DD	imagerel ?genrand_init@@YAXXZ+352
	DD	0ffffffffH
xdata	ENDS
;	COMDAT xdata
xdata	SEGMENT
$stateUnwindMap$?genrand_init@@YAXXZ DD 0ffffffffH
	DD	imagerel ?dtor$0@?0??genrand_init@@YAXXZ@4HA
	DD	0ffffffffH
	DD	imagerel ?dtor$5@?0??genrand_init@@YAXXZ@4HA
xdata	ENDS
;	COMDAT CONST
CONST	SEGMENT
$cppxdata$?genrand_init@@YAXXZ DD 019930522H
	DD	02H
	DD	imagerel $stateUnwindMap$?genrand_init@@YAXXZ
	DD	00H
	DD	00H
	DD	05H
	DD	imagerel $ip2state$?genrand_init@@YAXXZ
	DD	01a0H
	DD	00H
	DD	01H
CONST	ENDS
;	COMDAT xdata
xdata	SEGMENT
$unwind$?genrand_init@@YAXXZ DD 025042a19H
	DD	0109230eH
	DD	05002003aH
	DD	imagerel __GSHandlerCheck_EH
	DD	imagerel $cppxdata$?genrand_init@@YAXXZ
	DD	01c2H
xdata	ENDS
;	COMDAT xdata
xdata	SEGMENT
$unwind$?ret_y@@YANNN@Z DD 025031601H
	DD	0d2112316H
	DD	0500dH
xdata	ENDS
;	COMDAT xdata
xdata	SEGMENT
$unwind$?ret_x@@YANNN@Z DD 025031601H
	DD	0d2112316H
	DD	0500dH
xdata	ENDS
;	COMDAT xdata
xdata	SEGMENT
$unwind$??__Erng_real_dist@@YAXXZ DD 025030b01H
	DD	0b206230bH
	DD	05002H
xdata	ENDS
;	COMDAT xdata
xdata	SEGMENT
$unwind$??0?$uniform_real_distribution@N@std@@QEAA@NN@Z DD 025031b01H
	DD	0b216231bH
	DD	05012H
xdata	ENDS
;	COMDAT xdata
xdata	SEGMENT
$unwind$?_Init@param_type@?$uniform_real@N@std@@QEAAXNN@Z DD 025031b01H
	DD	0b216231bH
	DD	05012H
xdata	ENDS
;	COMDAT xdata
xdata	SEGMENT
$unwind$??0param_type@?$uniform_real@N@std@@QEAA@NN@Z DD 025031b01H
	DD	0b216231bH
	DD	05012H
xdata	ENDS
;	COMDAT xdata
xdata	SEGMENT
$unwind$??0?$uniform_real@N@std@@QEAA@NN@Z DD 025031b01H
	DD	0b216231bH
	DD	05012H
xdata	ENDS
;	COMDAT xdata
xdata	SEGMENT
$unwind$??__Emt@@YAXXZ DD 025030b01H
	DD	0b206230bH
	DD	05002H
xdata	ENDS
;	COMDAT xdata
xdata	SEGMENT
$unwind$?max@?$mersenne_twister_engine@_K$0EA@$0BDI@$0JM@$0BP@$0?EKPNJAKFFGJJOGBH@$0BN@$0FFFFFFFFFFFFFFFF@$0BB@$0HBNGHPPPONKGAAAA@$0CF@$0?IBBCAAAAAAAAA@$0CL@$0FIFBPECNEMJFHPCN@@std@@SA_KXZ DD 05030901H
	DD	072060309H
	DD	05002H
xdata	ENDS
;	COMDAT xdata
xdata	SEGMENT
$unwind$?min@?$mersenne_twister_engine@_K$0EA@$0BDI@$0JM@$0BP@$0?EKPNJAKFFGJJOGBH@$0BN@$0FFFFFFFFFFFFFFFF@$0BB@$0HBNGHPPPONKGAAAA@$0CF@$0?IBBCAAAAAAAAA@$0CL@$0FIFBPECNEMJFHPCN@@std@@SA_KXZ DD 05030901H
	DD	072060309H
	DD	05002H
xdata	ENDS
;	COMDAT xdata
xdata	SEGMENT
$unwind$??0?$mersenne_twister_engine@_K$0EA@$0BDI@$0JM@$0BP@$0?EKPNJAKFFGJJOGBH@$0BN@$0FFFFFFFFFFFFFFFF@$0BB@$0HBNGHPPPONKGAAAA@$0CF@$0?IBBCAAAAAAAAA@$0CL@$0FIFBPECNEMJFHPCN@@std@@QEAA@_K@Z DD 025031401H
	DD	0b20f2314H
	DD	0500bH
xdata	ENDS
;	COMDAT xdata
xdata	SEGMENT
$unwind$?_Refill_upper@?$mersenne_twister@_K$0EA@$0BDI@$0JM@$0BP@$0?EKPNJAKFFGJJOGBH@$0BN@$0BB@$0HBNGHPPPONKGAAAA@$0CF@$0?IBBCAAAAAAAAA@$0CL@@std@@IEAAXXZ DD 05030d01H
	DD	0b20a030dH
	DD	05006H
xdata	ENDS
;	COMDAT xdata
xdata	SEGMENT
$unwind$?_Refill_lower@?$mersenne_twister@_K$0EA@$0BDI@$0JM@$0BP@$0?EKPNJAKFFGJJOGBH@$0BN@$0BB@$0HBNGHPPPONKGAAAA@$0CF@$0?IBBCAAAAAAAAA@$0CL@@std@@IEAAXXZ DD 05030d01H
	DD	0d20a030dH
	DD	05006H
xdata	ENDS
;	COMDAT xdata
xdata	SEGMENT
$unwind$??R?$mersenne_twister@_K$0EA@$0BDI@$0JM@$0BP@$0?EKPNJAKFFGJJOGBH@$0BN@$0BB@$0HBNGHPPPONKGAAAA@$0CF@$0?IBBCAAAAAAAAA@$0CL@@std@@QEAA_KXZ DD 025030f01H
	DD	0d20a230fH
	DD	05006H
xdata	ENDS
;	COMDAT xdata
xdata	SEGMENT
$unwind$?seed@?$mersenne_twister@_K$0EA@$0BDI@$0JM@$0BP@$0?EKPNJAKFFGJJOGBH@$0BN@$0BB@$0HBNGHPPPONKGAAAA@$0CF@$0?IBBCAAAAAAAAA@$0CL@@std@@QEAAX_K0@Z DD 05031701H
	DD	0b2140317H
	DD	05010H
xdata	ENDS
;	COMDAT xdata
xdata	SEGMENT
$unwind$??0?$mersenne_twister@_K$0EA@$0BDI@$0JM@$0BP@$0?EKPNJAKFFGJJOGBH@$0BN@$0BB@$0HBNGHPPPONKGAAAA@$0CF@$0?IBBCAAAAAAAAA@$0CL@@std@@QEAA@_K00@Z DD 025031e01H
	DD	0b219231eH
	DD	05015H
xdata	ENDS
;	COMDAT xdata
xdata	SEGMENT
$unwind$??Rrandom_device@std@@QEAAIXZ DD 025030f01H
	DD	0b20a230fH
	DD	05006H
xdata	ENDS
;	COMDAT xdata
xdata	SEGMENT
$unwind$??0random_device@std@@QEAA@AEBV?$basic_string@DU?$char_traits@D@std@@V?$allocator@D@2@@1@@Z DD 025031401H
	DD	0b20f2314H
	DD	0500bH
xdata	ENDS
;	COMDAT xdata
xdata	SEGMENT
$unwind$??A?$vector@NV?$allocator@N@std@@@std@@QEBAAEBN_K@Z DD 035031401H
	DD	0d20f3314H
	DD	0500bH
xdata	ENDS
;	COMDAT xdata
xdata	SEGMENT
$unwind$?size@?$vector@NV?$allocator@N@std@@@std@@QEBA_KXZ DD 025030f01H
	DD	0d20a230fH
	DD	05006H
xdata	ENDS
;	COMDAT xdata
xdata	SEGMENT
$unwind$?_Get_second@?$_Compressed_pair@U?$_Wrap_alloc@V?$allocator@N@std@@@std@@V?$_Vector_val@U?$_Simple_types@N@std@@@2@$00@std@@QEBAAEBV?$_Vector_val@U?$_Simple_types@N@std@@@2@XZ DD 05030d01H
	DD	0720a030dH
	DD	05006H
xdata	ENDS
;	COMDAT xdata
xdata	SEGMENT
$unwind$?_Mylast@?$_Vector_alloc@U?$_Vec_base_types@NV?$allocator@N@std@@@std@@@std@@QEBAAEBQEANXZ DD 025030f01H
	DD	0b20a230fH
	DD	05006H
xdata	ENDS
;	COMDAT xdata
xdata	SEGMENT
$unwind$?_Myfirst@?$_Vector_alloc@U?$_Vec_base_types@NV?$allocator@N@std@@@std@@@std@@QEBAAEBQEANXZ DD 025030f01H
	DD	0b20a230fH
	DD	05006H
xdata	ENDS
;	COMDAT xdata
xdata	SEGMENT
$unwind$?_Get_data@?$_Vector_alloc@U?$_Vec_base_types@NV?$allocator@N@std@@@std@@@std@@QEBAAEBV?$_Vector_val@U?$_Simple_types@N@std@@@2@XZ DD 025030f01H
	DD	0b20a230fH
	DD	05006H
xdata	ENDS
;	COMDAT xdata
xdata	SEGMENT
$unwind$?__autoclassinit2@seed_seq@std@@QEAAX_K@Z DD 05041301H
	DD	082100313H
	DD	0500b700cH
xdata	ENDS
;	COMDAT xdata
xdata	SEGMENT
$unwind$??1seed_seq@std@@QEAA@XZ DD 025030f01H
	DD	0b20a230fH
	DD	05006H
xdata	ENDS
;	COMDAT xdata
xdata	SEGMENT
$unwind$?dtor$0@?0??_Orphan_range@?$vector@IV?$allocator@I@std@@@std@@IEBAXPEAI0@Z@4HA DD 020601H
	DD	050023206H
xdata	ENDS
;	COMDAT xdata
xdata	SEGMENT
$ip2state$?_Orphan_range@?$vector@IV?$allocator@I@std@@@std@@IEBAXPEAI0@Z DD imagerel ?_Orphan_range@?$vector@IV?$allocator@I@std@@@std@@IEBAXPEAI0@Z
	DD	0ffffffffH
	DD	imagerel ?_Orphan_range@?$vector@IV?$allocator@I@std@@@std@@IEBAXPEAI0@Z+66
	DD	00H
	DD	imagerel ?_Orphan_range@?$vector@IV?$allocator@I@std@@@std@@IEBAXPEAI0@Z+187
	DD	0ffffffffH
xdata	ENDS
;	COMDAT xdata
xdata	SEGMENT
$stateUnwindMap$?_Orphan_range@?$vector@IV?$allocator@I@std@@@std@@IEBAXPEAI0@Z DD 0ffffffffH
	DD	imagerel ?dtor$0@?0??_Orphan_range@?$vector@IV?$allocator@I@std@@@std@@IEBAXPEAI0@Z@4HA
xdata	ENDS
;	COMDAT CONST
CONST	SEGMENT
$cppxdata$?_Orphan_range@?$vector@IV?$allocator@I@std@@@std@@IEBAXPEAI0@Z DD 019930522H
	DD	01H
	DD	imagerel $stateUnwindMap$?_Orphan_range@?$vector@IV?$allocator@I@std@@@std@@IEBAXPEAI0@Z
	DD	00H
	DD	00H
	DD	03H
	DD	imagerel $ip2state$?_Orphan_range@?$vector@IV?$allocator@I@std@@@std@@IEBAXPEAI0@Z
	DD	070H
	DD	00H
	DD	01H
CONST	ENDS
;	COMDAT xdata
xdata	SEGMENT
$unwind$?_Orphan_range@?$vector@IV?$allocator@I@std@@@std@@IEBAXPEAI0@Z DD 025033219H
	DD	0f217231cH
	DD	05010H
	DD	imagerel __GSHandlerCheck_EH
	DD	imagerel $cppxdata$?_Orphan_range@?$vector@IV?$allocator@I@std@@@std@@IEBAXPEAI0@Z
	DD	07aH
xdata	ENDS
;	COMDAT xdata
xdata	SEGMENT
$unwind$?_Xlen@?$vector@IV?$allocator@I@std@@@std@@IEBAXXZ DD 025030f01H
	DD	0b20a230fH
	DD	05006H
xdata	ENDS
;	COMDAT xdata
xdata	SEGMENT
$unwind$?_Tidy@?$vector@IV?$allocator@I@std@@@std@@IEAAXXZ DD 025031201H
	DD	0f20d2312H
	DD	05006H
xdata	ENDS
;	COMDAT xdata
xdata	SEGMENT
$unwind$?_Reserve@?$vector@IV?$allocator@I@std@@@std@@IEAAX_K@Z DD 025031401H
	DD	0d20f2314H
	DD	0500bH
xdata	ENDS
;	COMDAT xdata
xdata	SEGMENT
$unwind$?catch$0@?0??_Reallocate@?$vector@IV?$allocator@I@std@@@std@@IEAAX_K@Z@4HA DD 020a19H
	DD	05006320aH
	DD	imagerel __CxxFrameHandler3
	DD	imagerel $cppxdata$?_Reallocate@?$vector@IV?$allocator@I@std@@@std@@IEAAX_K@Z
xdata	ENDS
;	COMDAT xdata
xdata	SEGMENT
$ip2state$?_Reallocate@?$vector@IV?$allocator@I@std@@@std@@IEAAX_K@Z DD imagerel ?_Reallocate@?$vector@IV?$allocator@I@std@@@std@@IEAAX_K@Z
	DD	0ffffffffH
	DD	imagerel ?_Reallocate@?$vector@IV?$allocator@I@std@@@std@@IEAAX_K@Z+62
	DD	00H
	DD	imagerel ?_Reallocate@?$vector@IV?$allocator@I@std@@@std@@IEAAX_K@Z+117
	DD	0ffffffffH
	DD	imagerel ?catch$0@?0??_Reallocate@?$vector@IV?$allocator@I@std@@@std@@IEAAX_K@Z@4HA
	DD	00H
	DD	imagerel ?catch$0@?0??_Reallocate@?$vector@IV?$allocator@I@std@@@std@@IEAAX_K@Z@4HA+14
	DD	01H
	DD	imagerel ?catch$0@?0??_Reallocate@?$vector@IV?$allocator@I@std@@@std@@IEAAX_K@Z@4HA+55
	DD	00H
xdata	ENDS
;	COMDAT xdata
xdata	SEGMENT
$handlerMap$0$?_Reallocate@?$vector@IV?$allocator@I@std@@@std@@IEAAX_K@Z DD 040H
	DD	00H
	DD	00H
	DD	imagerel ?catch$0@?0??_Reallocate@?$vector@IV?$allocator@I@std@@@std@@IEAAX_K@Z@4HA
	DD	038H
xdata	ENDS
;	COMDAT xdata
xdata	SEGMENT
$tryMap$?_Reallocate@?$vector@IV?$allocator@I@std@@@std@@IEAAX_K@Z DD 00H
	DD	00H
	DD	01H
	DD	01H
	DD	imagerel $handlerMap$0$?_Reallocate@?$vector@IV?$allocator@I@std@@@std@@IEAAX_K@Z
xdata	ENDS
;	COMDAT xdata
xdata	SEGMENT
$stateUnwindMap$?_Reallocate@?$vector@IV?$allocator@I@std@@@std@@IEAAX_K@Z DD 0ffffffffH
	DD	00H
	DD	0ffffffffH
	DD	00H
xdata	ENDS
;	COMDAT CONST
CONST	SEGMENT
$cppxdata$?_Reallocate@?$vector@IV?$allocator@I@std@@@std@@IEAAX_K@Z DD 019930522H
	DD	02H
	DD	imagerel $stateUnwindMap$?_Reallocate@?$vector@IV?$allocator@I@std@@@std@@IEAAX_K@Z
	DD	01H
	DD	imagerel $tryMap$?_Reallocate@?$vector@IV?$allocator@I@std@@@std@@IEAAX_K@Z
	DD	06H
	DD	imagerel $ip2state$?_Reallocate@?$vector@IV?$allocator@I@std@@@std@@IEAAX_K@Z
	DD	070H
	DD	00H
	DD	01H
CONST	ENDS
;	COMDAT xdata
xdata	SEGMENT
$unwind$?_Reallocate@?$vector@IV?$allocator@I@std@@@std@@IEAAX_K@Z DD 025041f19H
	DD	01122317H
	DD	0500b0012H
	DD	imagerel __CxxFrameHandler3
	DD	imagerel $cppxdata$?_Reallocate@?$vector@IV?$allocator@I@std@@@std@@IEAAX_K@Z
xdata	ENDS
;	COMDAT xdata
xdata	SEGMENT
$unwind$?_Inside@?$vector@IV?$allocator@I@std@@@std@@IEBA_NPEBI@Z DD 025031401H
	DD	0d20f2314H
	DD	0500bH
xdata	ENDS
;	COMDAT xdata
xdata	SEGMENT
$unwind$?_Grow_to@?$vector@IV?$allocator@I@std@@@std@@IEBA_K_K@Z DD 025031701H
	DD	0f2122317H
	DD	0500bH
xdata	ENDS
;	COMDAT xdata
xdata	SEGMENT
$unwind$?_Destroy@?$vector@IV?$allocator@I@std@@@std@@IEAAXPEAI0@Z DD 025031901H
	DD	0b2142319H
	DD	05010H
xdata	ENDS
;	COMDAT xdata
xdata	SEGMENT
$unwind$?push_back@?$vector@IV?$allocator@I@std@@@std@@QEAAXAEBI@Z DD 025031701H
	DD	0f2122317H
	DD	0500bH
xdata	ENDS
;	COMDAT xdata
xdata	SEGMENT
$unwind$??A?$vector@IV?$allocator@I@std@@@std@@QEBAAEBI_K@Z DD 035031401H
	DD	0d20f3314H
	DD	0500bH
xdata	ENDS
;	COMDAT xdata
xdata	SEGMENT
$unwind$?max_size@?$vector@IV?$allocator@I@std@@@std@@QEBA_KXZ DD 025030f01H
	DD	0d20a230fH
	DD	05006H
xdata	ENDS
;	COMDAT xdata
xdata	SEGMENT
$unwind$?size@?$vector@IV?$allocator@I@std@@@std@@QEBA_KXZ DD 025030f01H
	DD	0d20a230fH
	DD	05006H
xdata	ENDS
;	COMDAT xdata
xdata	SEGMENT
$unwind$?_Unused_capacity@?$vector@IV?$allocator@I@std@@@std@@QEBA_KXZ DD 025030f01H
	DD	0d20a230fH
	DD	05006H
xdata	ENDS
;	COMDAT xdata
xdata	SEGMENT
$unwind$?capacity@?$vector@IV?$allocator@I@std@@@std@@QEBA_KXZ DD 025030f01H
	DD	0d20a230fH
	DD	05006H
xdata	ENDS
;	COMDAT xdata
xdata	SEGMENT
$ip2state$??1?$vector@IV?$allocator@I@std@@@std@@QEAA@XZ DD imagerel ??1?$vector@IV?$allocator@I@std@@@std@@QEAA@XZ
	DD	0ffffffffH
xdata	ENDS
;	COMDAT CONST
CONST	SEGMENT
$cppxdata$??1?$vector@IV?$allocator@I@std@@@std@@QEAA@XZ DD 019930522H
	DD	00H
	DD	00H
	DD	00H
	DD	00H
	DD	01H
	DD	imagerel $ip2state$??1?$vector@IV?$allocator@I@std@@@std@@QEAA@XZ
	DD	060H
	DD	00H
	DD	05H
CONST	ENDS
;	COMDAT xdata
xdata	SEGMENT
$unwind$??1?$vector@IV?$allocator@I@std@@@std@@QEAA@XZ DD 025031719H
	DD	0d20a230fH
	DD	05006H
	DD	imagerel __CxxFrameHandler3
	DD	imagerel $cppxdata$??1?$vector@IV?$allocator@I@std@@@std@@QEAA@XZ
xdata	ENDS
;	COMDAT xdata
xdata	SEGMENT
$ip2state$??0?$vector@IV?$allocator@I@std@@@std@@QEAA@XZ DD imagerel ??0?$vector@IV?$allocator@I@std@@@std@@QEAA@XZ
	DD	0ffffffffH
xdata	ENDS
;	COMDAT CONST
CONST	SEGMENT
$cppxdata$??0?$vector@IV?$allocator@I@std@@@std@@QEAA@XZ DD 019930522H
	DD	00H
	DD	00H
	DD	00H
	DD	00H
	DD	01H
	DD	imagerel $ip2state$??0?$vector@IV?$allocator@I@std@@@std@@QEAA@XZ
	DD	068H
	DD	00H
	DD	05H
CONST	ENDS
;	COMDAT xdata
xdata	SEGMENT
$unwind$??0?$vector@IV?$allocator@I@std@@@std@@QEAA@XZ DD 025031719H
	DD	0d20a230fH
	DD	05006H
	DD	imagerel __CxxFrameHandler3
	DD	imagerel $cppxdata$??0?$vector@IV?$allocator@I@std@@@std@@QEAA@XZ
xdata	ENDS
;	COMDAT xdata
xdata	SEGMENT
$unwind$??1?$_Compressed_pair@U?$_Wrap_alloc@V?$allocator@I@std@@@std@@V?$_Vector_val@U?$_Simple_types@I@std@@@2@$00@std@@QEAA@XZ DD 025030f01H
	DD	0b20a230fH
	DD	05006H
xdata	ENDS
;	COMDAT xdata
xdata	SEGMENT
$unwind$?_Get_second@?$_Compressed_pair@U?$_Wrap_alloc@V?$allocator@I@std@@@std@@V?$_Vector_val@U?$_Simple_types@I@std@@@2@$00@std@@QEBAAEBV?$_Vector_val@U?$_Simple_types@I@std@@@2@XZ DD 05030d01H
	DD	0720a030dH
	DD	05006H
xdata	ENDS
;	COMDAT xdata
xdata	SEGMENT
$unwind$?_Get_second@?$_Compressed_pair@U?$_Wrap_alloc@V?$allocator@I@std@@@std@@V?$_Vector_val@U?$_Simple_types@I@std@@@2@$00@std@@QEAAAEAV?$_Vector_val@U?$_Simple_types@I@std@@@2@XZ DD 05030d01H
	DD	0720a030dH
	DD	05006H
xdata	ENDS
;	COMDAT xdata
xdata	SEGMENT
$unwind$?_Get_first@?$_Compressed_pair@U?$_Wrap_alloc@V?$allocator@I@std@@@std@@V?$_Vector_val@U?$_Simple_types@I@std@@@2@$00@std@@QEBAAEBU?$_Wrap_alloc@V?$allocator@I@std@@@2@XZ DD 05030d01H
	DD	0720a030dH
	DD	05006H
xdata	ENDS
;	COMDAT xdata
xdata	SEGMENT
$unwind$?_Get_first@?$_Compressed_pair@U?$_Wrap_alloc@V?$allocator@I@std@@@std@@V?$_Vector_val@U?$_Simple_types@I@std@@@2@$00@std@@QEAAAEAU?$_Wrap_alloc@V?$allocator@I@std@@@2@XZ DD 05030d01H
	DD	0720a030dH
	DD	05006H
xdata	ENDS
;	COMDAT xdata
xdata	SEGMENT
$unwind$??1?$_Vector_val@U?$_Simple_types@I@std@@@std@@QEAA@XZ DD 025030f01H
	DD	0b20a230fH
	DD	05006H
xdata	ENDS
;	COMDAT xdata
xdata	SEGMENT
$unwind$??0?$_Vector_val@U?$_Simple_types@I@std@@@std@@QEAA@XZ DD 025030f01H
	DD	0b20a230fH
	DD	05006H
xdata	ENDS
;	COMDAT xdata
xdata	SEGMENT
$unwind$?_Myend@?$_Vector_alloc@U?$_Vec_base_types@IV?$allocator@I@std@@@std@@@std@@QEBAAEBQEAIXZ DD 025030f01H
	DD	0b20a230fH
	DD	05006H
xdata	ENDS
;	COMDAT xdata
xdata	SEGMENT
$unwind$?_Myend@?$_Vector_alloc@U?$_Vec_base_types@IV?$allocator@I@std@@@std@@@std@@QEAAAEAPEAIXZ DD 025030f01H
	DD	0b20a230fH
	DD	05006H
xdata	ENDS
;	COMDAT xdata
xdata	SEGMENT
$unwind$?_Mylast@?$_Vector_alloc@U?$_Vec_base_types@IV?$allocator@I@std@@@std@@@std@@QEBAAEBQEAIXZ DD 025030f01H
	DD	0b20a230fH
	DD	05006H
xdata	ENDS
;	COMDAT xdata
xdata	SEGMENT
$unwind$?_Mylast@?$_Vector_alloc@U?$_Vec_base_types@IV?$allocator@I@std@@@std@@@std@@QEAAAEAPEAIXZ DD 025030f01H
	DD	0b20a230fH
	DD	05006H
xdata	ENDS
;	COMDAT xdata
xdata	SEGMENT
$unwind$?_Myfirst@?$_Vector_alloc@U?$_Vec_base_types@IV?$allocator@I@std@@@std@@@std@@QEBAAEBQEAIXZ DD 025030f01H
	DD	0b20a230fH
	DD	05006H
xdata	ENDS
;	COMDAT xdata
xdata	SEGMENT
$unwind$?_Myfirst@?$_Vector_alloc@U?$_Vec_base_types@IV?$allocator@I@std@@@std@@@std@@QEAAAEAPEAIXZ DD 025030f01H
	DD	0b20a230fH
	DD	05006H
xdata	ENDS
;	COMDAT xdata
xdata	SEGMENT
$unwind$?_Get_data@?$_Vector_alloc@U?$_Vec_base_types@IV?$allocator@I@std@@@std@@@std@@QEBAAEBV?$_Vector_val@U?$_Simple_types@I@std@@@2@XZ DD 025030f01H
	DD	0b20a230fH
	DD	05006H
xdata	ENDS
;	COMDAT xdata
xdata	SEGMENT
$unwind$?_Get_data@?$_Vector_alloc@U?$_Vec_base_types@IV?$allocator@I@std@@@std@@@std@@QEAAAEAV?$_Vector_val@U?$_Simple_types@I@std@@@2@XZ DD 025030f01H
	DD	0b20a230fH
	DD	05006H
xdata	ENDS
;	COMDAT xdata
xdata	SEGMENT
$unwind$?_Getal@?$_Vector_alloc@U?$_Vec_base_types@IV?$allocator@I@std@@@std@@@std@@QEBAAEBU?$_Wrap_alloc@V?$allocator@I@std@@@2@XZ DD 025030f01H
	DD	0b20a230fH
	DD	05006H
xdata	ENDS
;	COMDAT xdata
xdata	SEGMENT
$unwind$?_Getal@?$_Vector_alloc@U?$_Vec_base_types@IV?$allocator@I@std@@@std@@@std@@QEAAAEAU?$_Wrap_alloc@V?$allocator@I@std@@@2@XZ DD 025030f01H
	DD	0b20a230fH
	DD	05006H
xdata	ENDS
;	COMDAT xdata
xdata	SEGMENT
$unwind$?_Orphan_all@?$_Vector_alloc@U?$_Vec_base_types@IV?$allocator@I@std@@@std@@@std@@QEAAXXZ DD 025030f01H
	DD	0b20a230fH
	DD	05006H
xdata	ENDS
;	COMDAT xdata
xdata	SEGMENT
$unwind$?_Myproxy@?$_Vector_alloc@U?$_Vec_base_types@IV?$allocator@I@std@@@std@@@std@@QEAAAEAPEAU_Container_proxy@2@XZ DD 025030f01H
	DD	0b20a230fH
	DD	05006H
xdata	ENDS
;	COMDAT xdata
xdata	SEGMENT
$unwind$?_Getpfirst@?$_Vector_alloc@U?$_Vec_base_types@IV?$allocator@I@std@@@std@@@std@@QEBAPEAPEAU_Iterator_base12@2@XZ DD 025030f01H
	DD	0b20a230fH
	DD	05006H
xdata	ENDS
;	COMDAT xdata
xdata	SEGMENT
$unwind$?_Free_proxy@?$_Vector_alloc@U?$_Vec_base_types@IV?$allocator@I@std@@@std@@@std@@QEAAXXZ DD 025031d19H
	DD	0d20a230fH
	DD	05006H
	DD	imagerel __GSHandlerCheck
	DD	068H
xdata	ENDS
;	COMDAT xdata
xdata	SEGMENT
$unwind$?_Alloc_proxy@?$_Vector_alloc@U?$_Vec_base_types@IV?$allocator@I@std@@@std@@@std@@QEAAXXZ DD 025042019H
	DD	010d2312H
	DD	050060012H
	DD	imagerel __GSHandlerCheck
	DD	080H
xdata	ENDS
;	COMDAT xdata
xdata	SEGMENT
$ip2state$??1?$_Vector_alloc@U?$_Vec_base_types@IV?$allocator@I@std@@@std@@@std@@QEAA@XZ DD imagerel ??1?$_Vector_alloc@U?$_Vec_base_types@IV?$allocator@I@std@@@std@@@std@@QEAA@XZ
	DD	0ffffffffH
xdata	ENDS
;	COMDAT CONST
CONST	SEGMENT
$cppxdata$??1?$_Vector_alloc@U?$_Vec_base_types@IV?$allocator@I@std@@@std@@@std@@QEAA@XZ DD 019930522H
	DD	00H
	DD	00H
	DD	00H
	DD	00H
	DD	01H
	DD	imagerel $ip2state$??1?$_Vector_alloc@U?$_Vec_base_types@IV?$allocator@I@std@@@std@@@std@@QEAA@XZ
	DD	060H
	DD	00H
	DD	05H
CONST	ENDS
;	COMDAT xdata
xdata	SEGMENT
$unwind$??1?$_Vector_alloc@U?$_Vec_base_types@IV?$allocator@I@std@@@std@@@std@@QEAA@XZ DD 025031719H
	DD	0d20a230fH
	DD	05006H
	DD	imagerel __CxxFrameHandler3
	DD	imagerel $cppxdata$??1?$_Vector_alloc@U?$_Vec_base_types@IV?$allocator@I@std@@@std@@@std@@QEAA@XZ
xdata	ENDS
;	COMDAT xdata
xdata	SEGMENT
$unwind$?dtor$0@?0???0?$_Vector_alloc@U?$_Vec_base_types@IV?$allocator@I@std@@@std@@@std@@QEAA@AEBV?$allocator@I@1@@Z@4HA DD 020601H
	DD	050023206H
xdata	ENDS
;	COMDAT xdata
xdata	SEGMENT
$ip2state$??0?$_Vector_alloc@U?$_Vec_base_types@IV?$allocator@I@std@@@std@@@std@@QEAA@AEBV?$allocator@I@1@@Z DD imagerel ??0?$_Vector_alloc@U?$_Vec_base_types@IV?$allocator@I@std@@@std@@@std@@QEAA@AEBV?$allocator@I@1@@Z
	DD	0ffffffffH
	DD	imagerel ??0?$_Vector_alloc@U?$_Vec_base_types@IV?$allocator@I@std@@@std@@@std@@QEAA@AEBV?$allocator@I@1@@Z+49
	DD	00H
	DD	imagerel ??0?$_Vector_alloc@U?$_Vec_base_types@IV?$allocator@I@std@@@std@@@std@@QEAA@AEBV?$allocator@I@1@@Z+59
	DD	0ffffffffH
xdata	ENDS
;	COMDAT xdata
xdata	SEGMENT
$stateUnwindMap$??0?$_Vector_alloc@U?$_Vec_base_types@IV?$allocator@I@std@@@std@@@std@@QEAA@AEBV?$allocator@I@1@@Z DD 0ffffffffH
	DD	imagerel ?dtor$0@?0???0?$_Vector_alloc@U?$_Vec_base_types@IV?$allocator@I@std@@@std@@@std@@QEAA@AEBV?$allocator@I@1@@Z@4HA
xdata	ENDS
;	COMDAT CONST
CONST	SEGMENT
$cppxdata$??0?$_Vector_alloc@U?$_Vec_base_types@IV?$allocator@I@std@@@std@@@std@@QEAA@AEBV?$allocator@I@1@@Z DD 019930522H
	DD	01H
	DD	imagerel $stateUnwindMap$??0?$_Vector_alloc@U?$_Vec_base_types@IV?$allocator@I@std@@@std@@@std@@QEAA@AEBV?$allocator@I@1@@Z
	DD	00H
	DD	00H
	DD	03H
	DD	imagerel $ip2state$??0?$_Vector_alloc@U?$_Vec_base_types@IV?$allocator@I@std@@@std@@@std@@QEAA@AEBV?$allocator@I@1@@Z
	DD	068H
	DD	00H
	DD	01H
CONST	ENDS
;	COMDAT xdata
xdata	SEGMENT
$unwind$??0?$_Vector_alloc@U?$_Vec_base_types@IV?$allocator@I@std@@@std@@@std@@QEAA@AEBV?$allocator@I@1@@Z DD 025031c11H
	DD	0d20f2314H
	DD	0500bH
	DD	imagerel __CxxFrameHandler3
	DD	imagerel $cppxdata$??0?$_Vector_alloc@U?$_Vec_base_types@IV?$allocator@I@std@@@std@@@std@@QEAA@AEBV?$allocator@I@1@@Z
xdata	ENDS
;	COMDAT xdata
xdata	SEGMENT
$unwind$?max_size@?$_Wrap_alloc@V?$allocator@I@std@@@std@@QEBA_KU_Nil@2@@Z DD 025031301H
	DD	0b20e2313H
	DD	0500aH
xdata	ENDS
;	COMDAT xdata
xdata	SEGMENT
$unwind$?deallocate@?$_Wrap_alloc@V?$allocator@I@std@@@std@@QEAAXPEAI_K@Z DD 025031901H
	DD	0b2142319H
	DD	05010H
xdata	ENDS
;	COMDAT xdata
xdata	SEGMENT
$unwind$?allocate@?$_Wrap_alloc@V?$allocator@I@std@@@std@@QEAAPEAI_K@Z DD 025031401H
	DD	0b20f2314H
	DD	0500bH
xdata	ENDS
;	COMDAT xdata
xdata	SEGMENT
$unwind$??0?$_Wrap_alloc@V?$allocator@I@std@@@std@@QEAA@AEBV?$allocator@I@1@@Z DD 025031401H
	DD	0b20f2314H
	DD	0500bH
xdata	ENDS
;	COMDAT xdata
xdata	SEGMENT
$unwind$?max_size@?$allocator_traits@V?$allocator@I@std@@@std@@SA_KAEBV?$allocator@I@2@@Z DD 025030f01H
	DD	0b20a230fH
	DD	05006H
xdata	ENDS
;	COMDAT xdata
xdata	SEGMENT
$unwind$?max_size@?$allocator@I@std@@QEBA_KXZ DD 05030d01H
	DD	0720a030dH
	DD	05006H
xdata	ENDS
;	COMDAT xdata
xdata	SEGMENT
$unwind$?allocate@?$allocator@I@std@@QEAAPEAI_K@Z DD 025031401H
	DD	0b20f2314H
	DD	0500bH
xdata	ENDS
;	COMDAT xdata
xdata	SEGMENT
$unwind$?deallocate@?$allocator@I@std@@QEAAXPEAI_K@Z DD 025031901H
	DD	0b2142319H
	DD	05010H
xdata	ENDS
;	COMDAT xdata
xdata	SEGMENT
$unwind$??0?$allocator@I@std@@QEAA@AEBV01@@Z DD 05031201H
	DD	0720f0312H
	DD	0500bH
xdata	ENDS
;	COMDAT xdata
xdata	SEGMENT
$unwind$??0?$allocator@I@std@@QEAA@XZ DD 05030d01H
	DD	0720a030dH
	DD	05006H
xdata	ENDS
;	COMDAT xdata
xdata	SEGMENT
$unwind$?_Xor27@seed_seq@std@@AEBAII@Z DD 05031101H
	DD	0720e0311H
	DD	0500aH
xdata	ENDS
;	COMDAT xdata
xdata	SEGMENT
$unwind$??__EANZ@@YAXXZ DD 05030901H
	DD	072060309H
	DD	05002H
xdata	ENDS
;	COMDAT xdata
xdata	SEGMENT
$unwind$??__EANY@@YAXXZ DD 05030901H
	DD	072060309H
	DD	05002H
xdata	ENDS
;	COMDAT xdata
xdata	SEGMENT
$unwind$??__EANX@@YAXXZ DD 05030901H
	DD	072060309H
	DD	05002H
xdata	ENDS
;	COMDAT xdata
xdata	SEGMENT
$unwind$?_Xran@?$basic_string@DU?$char_traits@D@std@@V?$allocator@D@2@@std@@QEBAXXZ DD 025030f01H
	DD	0b20a230fH
	DD	05006H
xdata	ENDS
;	COMDAT xdata
xdata	SEGMENT
$unwind$?_Xlen@?$basic_string@DU?$char_traits@D@std@@V?$allocator@D@2@@std@@QEBAXXZ DD 025030f01H
	DD	0b20a230fH
	DD	05006H
xdata	ENDS
;	COMDAT xdata
xdata	SEGMENT
$unwind$?_Tidy@?$basic_string@DU?$char_traits@D@std@@V?$allocator@D@2@@std@@QEAAX_N_K@Z DD 025031801H
	DD	0d2132318H
	DD	0500fH
xdata	ENDS
;	COMDAT xdata
xdata	SEGMENT
$unwind$?_Inside@?$basic_string@DU?$char_traits@D@std@@V?$allocator@D@2@@std@@QEAA_NPEBD@Z DD 025031401H
	DD	0d20f2314H
	DD	0500bH
xdata	ENDS
;	COMDAT xdata
xdata	SEGMENT
$unwind$?_Grow@?$basic_string@DU?$char_traits@D@std@@V?$allocator@D@2@@std@@QEAA_N_K_N@Z DD 025031901H
	DD	0d2142319H
	DD	05010H
xdata	ENDS
;	COMDAT xdata
xdata	SEGMENT
$unwind$?_Eos@?$basic_string@DU?$char_traits@D@std@@V?$allocator@D@2@@std@@QEAAX_K@Z DD 025031401H
	DD	0d20f2314H
	DD	0500bH
xdata	ENDS
;	COMDAT xdata
xdata	SEGMENT
$unwind$?catch$0@?0??_Copy@?$basic_string@DU?$char_traits@D@std@@V?$allocator@D@2@@std@@QEAAX_K0@Z@4HA DD 020a19H
	DD	05006320aH
	DD	imagerel __CxxFrameHandler3
	DD	imagerel $cppxdata$?_Copy@?$basic_string@DU?$char_traits@D@std@@V?$allocator@D@2@@std@@QEAAX_K0@Z
xdata	ENDS
;	COMDAT xdata
xdata	SEGMENT
$unwind$?catch$1@?0??_Copy@?$basic_string@DU?$char_traits@D@std@@V?$allocator@D@2@@std@@QEAAX_K0@Z@4HA DD 020a19H
	DD	05006320aH
	DD	imagerel __CxxFrameHandler3
	DD	imagerel $cppxdata$?_Copy@?$basic_string@DU?$char_traits@D@std@@V?$allocator@D@2@@std@@QEAAX_K0@Z
xdata	ENDS
;	COMDAT xdata
xdata	SEGMENT
$ip2state$?_Copy@?$basic_string@DU?$char_traits@D@std@@V?$allocator@D@2@@std@@QEAAX_K0@Z DD imagerel ?_Copy@?$basic_string@DU?$char_traits@D@std@@V?$allocator@D@2@@std@@QEAAX_K0@Z
	DD	0ffffffffH
	DD	imagerel ?_Copy@?$basic_string@DU?$char_traits@D@std@@V?$allocator@D@2@@std@@QEAAX_K0@Z+302
	DD	00H
	DD	imagerel ?_Copy@?$basic_string@DU?$char_traits@D@std@@V?$allocator@D@2@@std@@QEAAX_K0@Z+352
	DD	0ffffffffH
	DD	imagerel ?catch$1@?0??_Copy@?$basic_string@DU?$char_traits@D@std@@V?$allocator@D@2@@std@@QEAAX_K0@Z@4HA
	DD	00H
	DD	imagerel ?catch$1@?0??_Copy@?$basic_string@DU?$char_traits@D@std@@V?$allocator@D@2@@std@@QEAAX_K0@Z@4HA+14
	DD	01H
	DD	imagerel ?catch$1@?0??_Copy@?$basic_string@DU?$char_traits@D@std@@V?$allocator@D@2@@std@@QEAAX_K0@Z@4HA+25
	DD	02H
	DD	imagerel ?catch$1@?0??_Copy@?$basic_string@DU?$char_traits@D@std@@V?$allocator@D@2@@std@@QEAAX_K0@Z@4HA+75
	DD	01H
	DD	imagerel ?catch$1@?0??_Copy@?$basic_string@DU?$char_traits@D@std@@V?$allocator@D@2@@std@@QEAAX_K0@Z@4HA+77
	DD	00H
	DD	imagerel ?catch$0@?0??_Copy@?$basic_string@DU?$char_traits@D@std@@V?$allocator@D@2@@std@@QEAAX_K0@Z@4HA+14
	DD	03H
	DD	imagerel ?catch$0@?0??_Copy@?$basic_string@DU?$char_traits@D@std@@V?$allocator@D@2@@std@@QEAAX_K0@Z@4HA+41
	DD	00H
xdata	ENDS
;	COMDAT xdata
xdata	SEGMENT
$handlerMap$1$?_Copy@?$basic_string@DU?$char_traits@D@std@@V?$allocator@D@2@@std@@QEAAX_K0@Z DD 040H
	DD	00H
	DD	00H
	DD	imagerel ?catch$0@?0??_Copy@?$basic_string@DU?$char_traits@D@std@@V?$allocator@D@2@@std@@QEAAX_K0@Z@4HA
	DD	038H
xdata	ENDS
;	COMDAT xdata
xdata	SEGMENT
$handlerMap$0$?_Copy@?$basic_string@DU?$char_traits@D@std@@V?$allocator@D@2@@std@@QEAAX_K0@Z DD 040H
	DD	00H
	DD	00H
	DD	imagerel ?catch$1@?0??_Copy@?$basic_string@DU?$char_traits@D@std@@V?$allocator@D@2@@std@@QEAAX_K0@Z@4HA
	DD	038H
xdata	ENDS
;	COMDAT xdata
xdata	SEGMENT
$tryMap$?_Copy@?$basic_string@DU?$char_traits@D@std@@V?$allocator@D@2@@std@@QEAAX_K0@Z DD 00H
	DD	00H
	DD	03H
	DD	01H
	DD	imagerel $handlerMap$0$?_Copy@?$basic_string@DU?$char_traits@D@std@@V?$allocator@D@2@@std@@QEAAX_K0@Z
	DD	02H
	DD	02H
	DD	03H
	DD	01H
	DD	imagerel $handlerMap$1$?_Copy@?$basic_string@DU?$char_traits@D@std@@V?$allocator@D@2@@std@@QEAAX_K0@Z
xdata	ENDS
;	COMDAT xdata
xdata	SEGMENT
$stateUnwindMap$?_Copy@?$basic_string@DU?$char_traits@D@std@@V?$allocator@D@2@@std@@QEAAX_K0@Z DD 0ffffffffH
	DD	00H
	DD	0ffffffffH
	DD	00H
	DD	01H
	DD	00H
	DD	01H
	DD	00H
xdata	ENDS
;	COMDAT CONST
CONST	SEGMENT
$cppxdata$?_Copy@?$basic_string@DU?$char_traits@D@std@@V?$allocator@D@2@@std@@QEAAX_K0@Z DD 019930522H
	DD	04H
	DD	imagerel $stateUnwindMap$?_Copy@?$basic_string@DU?$char_traits@D@std@@V?$allocator@D@2@@std@@QEAAX_K0@Z
	DD	02H
	DD	imagerel $tryMap$?_Copy@?$basic_string@DU?$char_traits@D@std@@V?$allocator@D@2@@std@@QEAAX_K0@Z
	DD	0aH
	DD	imagerel $ip2state$?_Copy@?$basic_string@DU?$char_traits@D@std@@V?$allocator@D@2@@std@@QEAAX_K0@Z
	DD	070H
	DD	00H
	DD	01H
CONST	ENDS
;	COMDAT xdata
xdata	SEGMENT
$unwind$?_Copy@?$basic_string@DU?$char_traits@D@std@@V?$allocator@D@2@@std@@QEAAX_K0@Z DD 025043219H
	DD	0117231cH
	DD	050100012H
	DD	imagerel __GSHandlerCheck_EH
	DD	imagerel $cppxdata$?_Copy@?$basic_string@DU?$char_traits@D@std@@V?$allocator@D@2@@std@@QEAAX_K0@Z
	DD	08bH
xdata	ENDS
;	COMDAT xdata
xdata	SEGMENT
$unwind$?max_size@?$basic_string@DU?$char_traits@D@std@@V?$allocator@D@2@@std@@QEBA_KXZ DD 025031201H
	DD	0f20d2312H
	DD	05006H
xdata	ENDS
;	COMDAT xdata
xdata	SEGMENT
$unwind$?size@?$basic_string@DU?$char_traits@D@std@@V?$allocator@D@2@@std@@QEBA_KXZ DD 025030f01H
	DD	0b20a230fH
	DD	05006H
xdata	ENDS
;	COMDAT xdata
xdata	SEGMENT
$unwind$?erase@?$basic_string@DU?$char_traits@D@std@@V?$allocator@D@2@@std@@QEAAAEAV12@_K0@Z DD 025031901H
	DD	0d2142319H
	DD	05010H
xdata	ENDS
;	COMDAT xdata
xdata	SEGMENT
$unwind$?erase@?$basic_string@DU?$char_traits@D@std@@V?$allocator@D@2@@std@@QEAAAEAV12@_K@Z DD 025031401H
	DD	0b20f2314H
	DD	0500bH
xdata	ENDS
;	COMDAT xdata
xdata	SEGMENT
$unwind$?assign@?$basic_string@DU?$char_traits@D@std@@V?$allocator@D@2@@std@@QEAAAEAV12@PEBD@Z DD 025031401H
	DD	0b20f2314H
	DD	0500bH
xdata	ENDS
;	COMDAT xdata
xdata	SEGMENT
$unwind$?assign@?$basic_string@DU?$char_traits@D@std@@V?$allocator@D@2@@std@@QEAAAEAV12@PEBD_K@Z DD 025031901H
	DD	0d2142319H
	DD	05010H
xdata	ENDS
;	COMDAT xdata
xdata	SEGMENT
$unwind$?assign@?$basic_string@DU?$char_traits@D@std@@V?$allocator@D@2@@std@@QEAAAEAV12@AEBV12@_K1@Z DD 025031e01H
	DD	0d219231eH
	DD	05015H
xdata	ENDS
;	COMDAT xdata
xdata	SEGMENT
$ip2state$??1?$basic_string@DU?$char_traits@D@std@@V?$allocator@D@2@@std@@QEAA@XZ DD imagerel ??1?$basic_string@DU?$char_traits@D@std@@V?$allocator@D@2@@std@@QEAA@XZ
	DD	0ffffffffH
xdata	ENDS
;	COMDAT CONST
CONST	SEGMENT
$cppxdata$??1?$basic_string@DU?$char_traits@D@std@@V?$allocator@D@2@@std@@QEAA@XZ DD 019930522H
	DD	00H
	DD	00H
	DD	00H
	DD	00H
	DD	01H
	DD	imagerel $ip2state$??1?$basic_string@DU?$char_traits@D@std@@V?$allocator@D@2@@std@@QEAA@XZ
	DD	060H
	DD	00H
	DD	05H
CONST	ENDS
;	COMDAT xdata
xdata	SEGMENT
$unwind$??1?$basic_string@DU?$char_traits@D@std@@V?$allocator@D@2@@std@@QEAA@XZ DD 025031719H
	DD	0d20a230fH
	DD	05006H
	DD	imagerel __CxxFrameHandler3
	DD	imagerel $cppxdata$??1?$basic_string@DU?$char_traits@D@std@@V?$allocator@D@2@@std@@QEAA@XZ
xdata	ENDS
;	COMDAT xdata
xdata	SEGMENT
$unwind$?dtor$0@?0???0?$basic_string@DU?$char_traits@D@std@@V?$allocator@D@2@@std@@QEAA@PEBD@Z@4HA DD 020601H
	DD	050023206H
xdata	ENDS
;	COMDAT xdata
xdata	SEGMENT
$ip2state$??0?$basic_string@DU?$char_traits@D@std@@V?$allocator@D@2@@std@@QEAA@PEBD@Z DD imagerel ??0?$basic_string@DU?$char_traits@D@std@@V?$allocator@D@2@@std@@QEAA@PEBD@Z
	DD	0ffffffffH
	DD	imagerel ??0?$basic_string@DU?$char_traits@D@std@@V?$allocator@D@2@@std@@QEAA@PEBD@Z+50
	DD	00H
	DD	imagerel ??0?$basic_string@DU?$char_traits@D@std@@V?$allocator@D@2@@std@@QEAA@PEBD@Z+78
	DD	0ffffffffH
xdata	ENDS
;	COMDAT xdata
xdata	SEGMENT
$stateUnwindMap$??0?$basic_string@DU?$char_traits@D@std@@V?$allocator@D@2@@std@@QEAA@PEBD@Z DD 0ffffffffH
	DD	imagerel ?dtor$0@?0???0?$basic_string@DU?$char_traits@D@std@@V?$allocator@D@2@@std@@QEAA@PEBD@Z@4HA
xdata	ENDS
;	COMDAT CONST
CONST	SEGMENT
$cppxdata$??0?$basic_string@DU?$char_traits@D@std@@V?$allocator@D@2@@std@@QEAA@PEBD@Z DD 019930522H
	DD	01H
	DD	imagerel $stateUnwindMap$??0?$basic_string@DU?$char_traits@D@std@@V?$allocator@D@2@@std@@QEAA@PEBD@Z
	DD	00H
	DD	00H
	DD	03H
	DD	imagerel $ip2state$??0?$basic_string@DU?$char_traits@D@std@@V?$allocator@D@2@@std@@QEAA@PEBD@Z
	DD	068H
	DD	00H
	DD	01H
CONST	ENDS
;	COMDAT xdata
xdata	SEGMENT
$unwind$??0?$basic_string@DU?$char_traits@D@std@@V?$allocator@D@2@@std@@QEAA@PEBD@Z DD 025031c11H
	DD	0d20f2314H
	DD	0500bH
	DD	imagerel __CxxFrameHandler3
	DD	imagerel $cppxdata$??0?$basic_string@DU?$char_traits@D@std@@V?$allocator@D@2@@std@@QEAA@PEBD@Z
xdata	ENDS
;	COMDAT xdata
xdata	SEGMENT
$unwind$??1?$_Compressed_pair@U?$_Wrap_alloc@V?$allocator@D@std@@@std@@V?$_String_val@U?$_Simple_types@D@std@@@2@$00@std@@QEAA@XZ DD 025030f01H
	DD	0b20a230fH
	DD	05006H
xdata	ENDS
;	COMDAT xdata
xdata	SEGMENT
$unwind$?_Get_second@?$_Compressed_pair@U?$_Wrap_alloc@V?$allocator@D@std@@@std@@V?$_String_val@U?$_Simple_types@D@std@@@2@$00@std@@QEBAAEBV?$_String_val@U?$_Simple_types@D@std@@@2@XZ DD 05030d01H
	DD	0720a030dH
	DD	05006H
xdata	ENDS
;	COMDAT xdata
xdata	SEGMENT
$unwind$?_Get_second@?$_Compressed_pair@U?$_Wrap_alloc@V?$allocator@D@std@@@std@@V?$_String_val@U?$_Simple_types@D@std@@@2@$00@std@@QEAAAEAV?$_String_val@U?$_Simple_types@D@std@@@2@XZ DD 05030d01H
	DD	0720a030dH
	DD	05006H
xdata	ENDS
;	COMDAT xdata
xdata	SEGMENT
$unwind$?_Get_first@?$_Compressed_pair@U?$_Wrap_alloc@V?$allocator@D@std@@@std@@V?$_String_val@U?$_Simple_types@D@std@@@2@$00@std@@QEBAAEBU?$_Wrap_alloc@V?$allocator@D@std@@@2@XZ DD 05030d01H
	DD	0720a030dH
	DD	05006H
xdata	ENDS
;	COMDAT xdata
xdata	SEGMENT
$unwind$?_Get_first@?$_Compressed_pair@U?$_Wrap_alloc@V?$allocator@D@std@@@std@@V?$_String_val@U?$_Simple_types@D@std@@@2@$00@std@@QEAAAEAU?$_Wrap_alloc@V?$allocator@D@std@@@2@XZ DD 05030d01H
	DD	0720a030dH
	DD	05006H
xdata	ENDS
;	COMDAT xdata
xdata	SEGMENT
$unwind$?_Myres@?$_String_alloc@U?$_String_base_types@DV?$allocator@D@std@@@std@@@std@@QEAAAEA_KXZ DD 025030f01H
	DD	0b20a230fH
	DD	05006H
xdata	ENDS
;	COMDAT xdata
xdata	SEGMENT
$unwind$?_Mysize@?$_String_alloc@U?$_String_base_types@DV?$allocator@D@std@@@std@@@std@@QEBAAEB_KXZ DD 025030f01H
	DD	0b20a230fH
	DD	05006H
xdata	ENDS
;	COMDAT xdata
xdata	SEGMENT
$unwind$?_Mysize@?$_String_alloc@U?$_String_base_types@DV?$allocator@D@std@@@std@@@std@@QEAAAEA_KXZ DD 025030f01H
	DD	0b20a230fH
	DD	05006H
xdata	ENDS
;	COMDAT xdata
xdata	SEGMENT
$unwind$?_Bx@?$_String_alloc@U?$_String_base_types@DV?$allocator@D@std@@@std@@@std@@QEAAAEAT_Bxty@?$_String_val@U?$_Simple_types@D@std@@@2@XZ DD 025030f01H
	DD	0b20a230fH
	DD	05006H
xdata	ENDS
;	COMDAT xdata
xdata	SEGMENT
$unwind$?_Get_data@?$_String_alloc@U?$_String_base_types@DV?$allocator@D@std@@@std@@@std@@QEBAAEBV?$_String_val@U?$_Simple_types@D@std@@@2@XZ DD 025030f01H
	DD	0b20a230fH
	DD	05006H
xdata	ENDS
;	COMDAT xdata
xdata	SEGMENT
$unwind$?_Get_data@?$_String_alloc@U?$_String_base_types@DV?$allocator@D@std@@@std@@@std@@QEAAAEAV?$_String_val@U?$_Simple_types@D@std@@@2@XZ DD 025030f01H
	DD	0b20a230fH
	DD	05006H
xdata	ENDS
;	COMDAT xdata
xdata	SEGMENT
$unwind$?_Getal@?$_String_alloc@U?$_String_base_types@DV?$allocator@D@std@@@std@@@std@@QEBAAEBU?$_Wrap_alloc@V?$allocator@D@std@@@2@XZ DD 025030f01H
	DD	0b20a230fH
	DD	05006H
xdata	ENDS
;	COMDAT xdata
xdata	SEGMENT
$unwind$?_Getal@?$_String_alloc@U?$_String_base_types@DV?$allocator@D@std@@@std@@@std@@QEAAAEAU?$_Wrap_alloc@V?$allocator@D@std@@@2@XZ DD 025030f01H
	DD	0b20a230fH
	DD	05006H
xdata	ENDS
;	COMDAT xdata
xdata	SEGMENT
$unwind$?_Orphan_all@?$_String_alloc@U?$_String_base_types@DV?$allocator@D@std@@@std@@@std@@QEAAXXZ DD 025030f01H
	DD	0b20a230fH
	DD	05006H
xdata	ENDS
;	COMDAT xdata
xdata	SEGMENT
$unwind$?_Myproxy@?$_String_alloc@U?$_String_base_types@DV?$allocator@D@std@@@std@@@std@@QEAAAEAPEAU_Container_proxy@2@XZ DD 025030f01H
	DD	0b20a230fH
	DD	05006H
xdata	ENDS
;	COMDAT xdata
xdata	SEGMENT
$unwind$?_Free_proxy@?$_String_alloc@U?$_String_base_types@DV?$allocator@D@std@@@std@@@std@@QEAAXXZ DD 025031d19H
	DD	0d20a230fH
	DD	05006H
	DD	imagerel __GSHandlerCheck
	DD	068H
xdata	ENDS
;	COMDAT xdata
xdata	SEGMENT
$unwind$?_Alloc_proxy@?$_String_alloc@U?$_String_base_types@DV?$allocator@D@std@@@std@@@std@@QEAAXXZ DD 025042019H
	DD	010d2312H
	DD	050060012H
	DD	imagerel __GSHandlerCheck
	DD	080H
xdata	ENDS
;	COMDAT xdata
xdata	SEGMENT
$ip2state$??1?$_String_alloc@U?$_String_base_types@DV?$allocator@D@std@@@std@@@std@@QEAA@XZ DD imagerel ??1?$_String_alloc@U?$_String_base_types@DV?$allocator@D@std@@@std@@@std@@QEAA@XZ
	DD	0ffffffffH
xdata	ENDS
;	COMDAT CONST
CONST	SEGMENT
$cppxdata$??1?$_String_alloc@U?$_String_base_types@DV?$allocator@D@std@@@std@@@std@@QEAA@XZ DD 019930522H
	DD	00H
	DD	00H
	DD	00H
	DD	00H
	DD	01H
	DD	imagerel $ip2state$??1?$_String_alloc@U?$_String_base_types@DV?$allocator@D@std@@@std@@@std@@QEAA@XZ
	DD	060H
	DD	00H
	DD	05H
CONST	ENDS
;	COMDAT xdata
xdata	SEGMENT
$unwind$??1?$_String_alloc@U?$_String_base_types@DV?$allocator@D@std@@@std@@@std@@QEAA@XZ DD 025031719H
	DD	0d20a230fH
	DD	05006H
	DD	imagerel __CxxFrameHandler3
	DD	imagerel $cppxdata$??1?$_String_alloc@U?$_String_base_types@DV?$allocator@D@std@@@std@@@std@@QEAA@XZ
xdata	ENDS
;	COMDAT xdata
xdata	SEGMENT
$unwind$?dtor$0@?0???0?$_String_alloc@U?$_String_base_types@DV?$allocator@D@std@@@std@@@std@@QEAA@AEBV?$allocator@D@1@@Z@4HA DD 020601H
	DD	050023206H
xdata	ENDS
;	COMDAT xdata
xdata	SEGMENT
$ip2state$??0?$_String_alloc@U?$_String_base_types@DV?$allocator@D@std@@@std@@@std@@QEAA@AEBV?$allocator@D@1@@Z DD imagerel ??0?$_String_alloc@U?$_String_base_types@DV?$allocator@D@std@@@std@@@std@@QEAA@AEBV?$allocator@D@1@@Z
	DD	0ffffffffH
	DD	imagerel ??0?$_String_alloc@U?$_String_base_types@DV?$allocator@D@std@@@std@@@std@@QEAA@AEBV?$allocator@D@1@@Z+49
	DD	00H
	DD	imagerel ??0?$_String_alloc@U?$_String_base_types@DV?$allocator@D@std@@@std@@@std@@QEAA@AEBV?$allocator@D@1@@Z+59
	DD	0ffffffffH
xdata	ENDS
;	COMDAT xdata
xdata	SEGMENT
$stateUnwindMap$??0?$_String_alloc@U?$_String_base_types@DV?$allocator@D@std@@@std@@@std@@QEAA@AEBV?$allocator@D@1@@Z DD 0ffffffffH
	DD	imagerel ?dtor$0@?0???0?$_String_alloc@U?$_String_base_types@DV?$allocator@D@std@@@std@@@std@@QEAA@AEBV?$allocator@D@1@@Z@4HA
xdata	ENDS
;	COMDAT CONST
CONST	SEGMENT
$cppxdata$??0?$_String_alloc@U?$_String_base_types@DV?$allocator@D@std@@@std@@@std@@QEAA@AEBV?$allocator@D@1@@Z DD 019930522H
	DD	01H
	DD	imagerel $stateUnwindMap$??0?$_String_alloc@U?$_String_base_types@DV?$allocator@D@std@@@std@@@std@@QEAA@AEBV?$allocator@D@1@@Z
	DD	00H
	DD	00H
	DD	03H
	DD	imagerel $ip2state$??0?$_String_alloc@U?$_String_base_types@DV?$allocator@D@std@@@std@@@std@@QEAA@AEBV?$allocator@D@1@@Z
	DD	068H
	DD	00H
	DD	01H
CONST	ENDS
;	COMDAT xdata
xdata	SEGMENT
